Component: ARM Compiler 5.06 update 7 (build 960) Tool: armlink [4d3601]

==============================================================================

Section Cross References

    main.o(i.main) refers to main.o(i._Z8scb_initv) for scb_init()
    main.o(i.main) refers to bsp_init.o(i.clock_init) for clock_init
    main.o(i.main) refers to bsp_init.o(i.uart1_init) for uart1_init
    main.o(i.main) refers to bsp_init.o(i.uart2_init) for uart2_init
    main.o(i.main) refers to bsp_init.o(i.uart4_init) for uart4_init
    main.o(i.main) refers to bsp_ots.o(i._Z12bsp_ots_initv) for bsp_ots_init()
    main.o(i.main) refers to bsp_init.o(i.get_all_clock) for get_all_clock
    main.o(i.main) refers to bsp_init.o(i.led_pin_init) for led_pin_init
    main.o(i.main) refers to bsp_adc.o(i.adc_init) for adc_init
    main.o(i.main) refers to bsp_init.o(i.endstop_pin_init) for endstop_pin_init
    main.o(i.main) refers to bsp_init.o(i.stepper_pin_init) for stepper_pin_init
    main.o(i.main) refers to bsp_init.o(i.heater_pin_init) for heater_pin_init
    main.o(i.main) refers to bsp_timer.o(i._Z20timerA2_bltouch_initv) for timerA2_bltouch_init()
    main.o(i.main) refers to bsp_pwm.o(i._Z12fan_pwm_initv) for fan_pwm_init()
    main.o(i.main) refers to bsp_pwm.o(i._Z13beep_pwm_initv) for beep_pwm_init()
    main.o(i.main) refers to bsp_sdio.o(i._Z13hal_sdio_initv) for hal_sdio_init()
    main.o(i.main) refers to bsp_timer.o(i._Z13timer02A_initv) for timer02A_init()
    main.o(i.main) refers to bsp_timer.o(i._Z13timer02B_initv) for timer02B_init()
    main.o(i.main) refers to bsp_timer.o(i._Z12timer41_initv) for timer41_init()
    main.o(i.main) refers to bsp_timer.o(i._Z12timer42_initv) for timer42_init()
    main.o(i.main) refers to bsp_timer.o(i._Z13timer01B_initv) for timer01B_init()
    main.o(i.main) refers to hc32f46x_utility.o(i.SysTick_Init) for SysTick_Init
    main.o(i.main) refers to bsp_spi_tft.o(i._Z8LCD_Initv) for LCD_Init()
    main.o(i.main) refers to marlincore.o(i.setup) for setup
    main.o(i.main) refers to marlincore.o(i.loop) for loop
    main.o(.ARM.exidx) refers to main.o(i._Z13soft_delay_msj) for i._Z13soft_delay_msj
    main.o(.ARM.exidx) refers to main.o(i._Z8scb_initv) for i._Z8scb_initv
    main.o(.ARM.exidx) refers to main.o(i.main) for i.main
    hardwareserial.o(i._ZN14HardwareSerial5writeEh) refers to hc32f46x_usart.o(i.USART_SendData) for USART_SendData
    hardwareserial.o(i._ZN14HardwareSerialC1EP16M4_USART_TypeDef) refers to print.o(.constdata__ZTV5Print) for vtable for Print
    hardwareserial.o(i._ZN14HardwareSerialC1EP16M4_USART_TypeDef) refers to stream.o(.constdata__ZTV6Stream) for vtable for Stream
    hardwareserial.o(i._ZN14HardwareSerialC1EP16M4_USART_TypeDef) refers to hardwareserial.o(.constdata__ZTV14HardwareSerial) for vtable for HardwareSerial
    hardwareserial.o(.ARM.exidx) refers to hardwareserial.o(i._ZN14HardwareSerialC1EP16M4_USART_TypeDef) for i._ZN14HardwareSerialC1EP16M4_USART_TypeDef
    hardwareserial.o(.ARM.exidx) refers to hardwareserial.o(i._ZN14HardwareSerial9availableEv) for i._ZN14HardwareSerial9availableEv
    hardwareserial.o(.ARM.exidx) refers to hardwareserial.o(i._ZN14HardwareSerial4readEv) for i._ZN14HardwareSerial4readEv
    hardwareserial.o(.ARM.exidx) refers to hardwareserial.o(i._ZN14HardwareSerial5flushEv) for i._ZN14HardwareSerial5flushEv
    hardwareserial.o(.ARM.exidx) refers to hardwareserial.o(i._ZN14HardwareSerial5writeEh) for i._ZN14HardwareSerial5writeEh
    hardwareserial.o(.ARM.exidx) refers to hardwareserial.o(i._ZN14HardwareSerial4peekEv) for i._ZN14HardwareSerial4peekEv
    hardwareserial.o(.ARM.exidx) refers to hardwareserial.o(i._ZN14HardwareSerial21_rx_complete_callbackEh) for i._ZN14HardwareSerial21_rx_complete_callbackEh
    hardwareserial.o(.ARM.exidx) refers to hardwareserial.o(i._ZN14HardwareSerial15set_buffer_headEh) for i._ZN14HardwareSerial15set_buffer_headEh
    print.o(i._ZN5Print5printEPKc) refers to print.o(i._ZN5Print5writeEPKc) for Print::write(const char*)
    print.o(i._ZN5Print5printEdi) refers to printfa.o(i.__0printf) for __2printf
    print.o(i._ZN5Print5printEhi) refers to print.o(i._ZN5Print5printEmi) for Print::print(unsigned long, int)
    print.o(i._ZN5Print5printEii) refers to print.o(i._ZN5Print5printEli) for Print::print(long, int)
    print.o(i._ZN5Print5printEji) refers to print.o(i._ZN5Print5printEmi) for Print::print(unsigned long, int)
    print.o(i._ZN5Print5printEli) refers to printfa.o(i.__0printf) for __2printf
    print.o(i._ZN5Print5printEmi) refers to printfa.o(i.__0printf) for __2printf
    print.o(i._ZN5Print7printlnEPKc) refers to print.o(i._ZN5Print5printEPKc) for Print::print(const char*)
    print.o(i._ZN5Print7printlnEPKc) refers to print.o(i._ZN5Print7printlnEv) for Print::println()
    print.o(i._ZN5Print7printlnERK6String) refers to print.o(i._ZN5Print5printERK6String) for Print::print(const String&)
    print.o(i._ZN5Print7printlnERK6String) refers to print.o(i._ZN5Print7printlnEv) for Print::println()
    print.o(i._ZN5Print7printlnERK9Printable) refers to print.o(i._ZN5Print5printERK9Printable) for Print::print(const Printable&)
    print.o(i._ZN5Print7printlnERK9Printable) refers to print.o(i._ZN5Print7printlnEv) for Print::println()
    print.o(i._ZN5Print7printlnEc) refers to print.o(i._ZN5Print5printEc) for Print::print(char)
    print.o(i._ZN5Print7printlnEc) refers to print.o(i._ZN5Print7printlnEv) for Print::println()
    print.o(i._ZN5Print7printlnEdi) refers to print.o(i._ZN5Print5printEdi) for Print::print(double, int)
    print.o(i._ZN5Print7printlnEdi) refers to print.o(i._ZN5Print7printlnEv) for Print::println()
    print.o(i._ZN5Print7printlnEhi) refers to print.o(i._ZN5Print5printEhi) for Print::print(unsigned char, int)
    print.o(i._ZN5Print7printlnEhi) refers to print.o(i._ZN5Print7printlnEv) for Print::println()
    print.o(i._ZN5Print7printlnEii) refers to print.o(i._ZN5Print5printEii) for Print::print(int, int)
    print.o(i._ZN5Print7printlnEii) refers to print.o(i._ZN5Print7printlnEv) for Print::println()
    print.o(i._ZN5Print7printlnEji) refers to print.o(i._ZN5Print5printEji) for Print::print(unsigned, int)
    print.o(i._ZN5Print7printlnEji) refers to print.o(i._ZN5Print7printlnEv) for Print::println()
    print.o(i._ZN5Print7printlnEli) refers to print.o(i._ZN5Print5printEli) for Print::print(long, int)
    print.o(i._ZN5Print7printlnEli) refers to print.o(i._ZN5Print7printlnEv) for Print::println()
    print.o(i._ZN5Print7printlnEmi) refers to print.o(i._ZN5Print5printEmi) for Print::print(unsigned long, int)
    print.o(i._ZN5Print7printlnEmi) refers to print.o(i._ZN5Print7printlnEv) for Print::println()
    print.o(i._ZN5Print7printlnEv) refers to print.o(i._ZN5Print5writeEPKc) for Print::write(const char*)
    print.o(.ARM.exidx) refers to print.o(i._ZN5Print5writeEPKhj) for i._ZN5Print5writeEPKhj
    print.o(.ARM.exidx) refers to print.o(i._ZN5Print5writeEPKvj) for i._ZN5Print5writeEPKvj
    print.o(.ARM.exidx) refers to print.o(i._ZN5Print5printERK6String) for i._ZN5Print5printERK6String
    print.o(.ARM.exidx) refers to print.o(i._ZN5Print5printEPKc) for i._ZN5Print5printEPKc
    print.o(.ARM.exidx) refers to print.o(i._ZN5Print5printEc) for i._ZN5Print5printEc
    print.o(.ARM.exidx) refers to print.o(i._ZN5Print5printEmi) for i._ZN5Print5printEmi
    print.o(.ARM.exidx) refers to print.o(i._ZN5Print5printEhi) for i._ZN5Print5printEhi
    print.o(.ARM.exidx) refers to print.o(i._ZN5Print5printEli) for i._ZN5Print5printEli
    print.o(.ARM.exidx) refers to print.o(i._ZN5Print5printEii) for i._ZN5Print5printEii
    print.o(.ARM.exidx) refers to print.o(i._ZN5Print5printEji) for i._ZN5Print5printEji
    print.o(.ARM.exidx) refers to print.o(i._ZN5Print5printEdi) for i._ZN5Print5printEdi
    print.o(.ARM.exidx) refers to print.o(i._ZN5Print5printERK9Printable) for i._ZN5Print5printERK9Printable
    print.o(.ARM.exidx) refers to print.o(i._ZN5Print7printlnEv) for i._ZN5Print7printlnEv
    print.o(.ARM.exidx) refers to print.o(i._ZN5Print7printlnERK6String) for i._ZN5Print7printlnERK6String
    print.o(.ARM.exidx) refers to print.o(i._ZN5Print7printlnEPKc) for i._ZN5Print7printlnEPKc
    print.o(.ARM.exidx) refers to print.o(i._ZN5Print7printlnEc) for i._ZN5Print7printlnEc
    print.o(.ARM.exidx) refers to print.o(i._ZN5Print7printlnEhi) for i._ZN5Print7printlnEhi
    print.o(.ARM.exidx) refers to print.o(i._ZN5Print7printlnEii) for i._ZN5Print7printlnEii
    print.o(.ARM.exidx) refers to print.o(i._ZN5Print7printlnEji) for i._ZN5Print7printlnEji
    print.o(.ARM.exidx) refers to print.o(i._ZN5Print7printlnEli) for i._ZN5Print7printlnEli
    print.o(.ARM.exidx) refers to print.o(i._ZN5Print7printlnEmi) for i._ZN5Print7printlnEmi
    print.o(.ARM.exidx) refers to print.o(i._ZN5Print7printlnEdi) for i._ZN5Print7printlnEdi
    print.o(.ARM.exidx) refers to print.o(i._ZN5Print7printlnERK9Printable) for i._ZN5Print7printlnERK9Printable
    stream.o(i._ZN6Stream10parseFloatE13LookaheadModec) refers to stream.o(i._ZN6Stream13peekNextDigitE13LookaheadModeb) for Stream::peekNextDigit(LookaheadMode, bool)
    stream.o(i._ZN6Stream10parseFloatE13LookaheadModec) refers to f2d.o(.text) for __aeabi_f2d
    stream.o(i._ZN6Stream10parseFloatE13LookaheadModec) refers to dmul.o(.text) for __aeabi_dmul
    stream.o(i._ZN6Stream10parseFloatE13LookaheadModec) refers to d2f.o(.text) for __aeabi_d2f
    stream.o(i._ZN6Stream10parseFloatE13LookaheadModec) refers to stream.o(i._ZN6Stream9timedPeekEv) for Stream::timedPeek()
    stream.o(i._ZN6Stream10readStringEv) refers to wstring.o(i._ZN6StringC1EPKc) for String::String(const char*)
    stream.o(i._ZN6Stream10readStringEv) refers to stream.o(i._ZN6Stream9timedReadEv) for Stream::timedRead()
    stream.o(i._ZN6Stream10readStringEv) refers to stream.o(i._ZN6StringpLEc) for String::operator +=(char)
    stream.o(i._ZN6Stream13peekNextDigitE13LookaheadModeb) refers to stream.o(i._ZN6Stream9timedPeekEv) for Stream::timedPeek()
    stream.o(i._ZN6Stream14readBytesUntilEcPcj) refers to stream.o(i._ZN6Stream9timedReadEv) for Stream::timedRead()
    stream.o(i._ZN6Stream15readStringUntilEc) refers to wstring.o(i._ZN6StringC1EPKc) for String::String(const char*)
    stream.o(i._ZN6Stream15readStringUntilEc) refers to stream.o(i._ZN6Stream9timedReadEv) for Stream::timedRead()
    stream.o(i._ZN6Stream15readStringUntilEc) refers to stream.o(i._ZN6StringpLEc) for String::operator +=(char)
    stream.o(i._ZN6Stream4findEPKc) refers to strlen.o(.text) for strlen
    stream.o(i._ZN6Stream4findEPKc) refers to stream.o(i._ZN6Stream9findUntilEPKcjS1_j) for Stream::findUntil(const char*, unsigned, const char*, unsigned)
    stream.o(i._ZN6Stream4findEPKcj) refers to stream.o(i._ZN6Stream9findUntilEPKcjS1_j) for Stream::findUntil(const char*, unsigned, const char*, unsigned)
    stream.o(i._ZN6Stream8parseIntE13LookaheadModec) refers to stream.o(i._ZN6Stream13peekNextDigitE13LookaheadModeb) for Stream::peekNextDigit(LookaheadMode, bool)
    stream.o(i._ZN6Stream8parseIntE13LookaheadModec) refers to stream.o(i._ZN6Stream9timedPeekEv) for Stream::timedPeek()
    stream.o(i._ZN6Stream9findMultiEPNS_11MultiTargetEi) refers to stream.o(i._ZN6Stream9timedReadEv) for Stream::timedRead()
    stream.o(i._ZN6Stream9findUntilEPKcS1_) refers to strlen.o(.text) for strlen
    stream.o(i._ZN6Stream9findUntilEPKcS1_) refers to stream.o(i._ZN6Stream9findUntilEPKcjS1_j) for Stream::findUntil(const char*, unsigned, const char*, unsigned)
    stream.o(i._ZN6Stream9findUntilEPKcjS1_j) refers to stream.o(i._ZN6Stream9findMultiEPNS_11MultiTargetEi) for Stream::findMulti(Stream::MultiTarget*, int)
    stream.o(i._ZN6Stream9findUntilEPKcjS1_j) refers to memseta.o(.text) for __aeabi_memclr4
    stream.o(i._ZN6Stream9readBytesEPcj) refers to stream.o(i._ZN6Stream9timedReadEv) for Stream::timedRead()
    stream.o(i._ZN6Stream9timedPeekEv) refers to board_tim0.o(i.millis) for millis
    stream.o(i._ZN6Stream9timedReadEv) refers to board_tim0.o(i.millis) for millis
    stream.o(.ARM.exidx) refers to stream.o(i._ZN6Stream9timedReadEv) for i._ZN6Stream9timedReadEv
    stream.o(.ARM.exidx) refers to stream.o(i._ZN6Stream9timedPeekEv) for i._ZN6Stream9timedPeekEv
    stream.o(.ARM.exidx) refers to stream.o(i._ZN6Stream13peekNextDigitE13LookaheadModeb) for i._ZN6Stream13peekNextDigitE13LookaheadModeb
    stream.o(.ARM.exidx) refers to stream.o(i._ZN6Stream10setTimeoutEm) for i._ZN6Stream10setTimeoutEm
    stream.o(.ARM.exidx) refers to stream.o(i._ZN6Stream9findMultiEPNS_11MultiTargetEi) for i._ZN6Stream9findMultiEPNS_11MultiTargetEi
    stream.o(.ARM.exidx) refers to stream.o(i._ZN6Stream9findUntilEPKcjS1_j) for i._ZN6Stream9findUntilEPKcjS1_j
    stream.o(.ARM.exidx) refers to stream.o(i._ZN6Stream4findEPKc) for i._ZN6Stream4findEPKc
    stream.o(.ARM.exidx) refers to stream.o(i._ZN6Stream4findEPKcj) for i._ZN6Stream4findEPKcj
    stream.o(.ARM.exidx) refers to stream.o(i._ZN6Stream9findUntilEPKcS1_) for i._ZN6Stream9findUntilEPKcS1_
    stream.o(.ARM.exidx) refers to stream.o(i._ZN6Stream8parseIntE13LookaheadModec) for i._ZN6Stream8parseIntE13LookaheadModec
    stream.o(.ARM.exidx) refers to stream.o(i._ZN6Stream10parseFloatE13LookaheadModec) for i._ZN6Stream10parseFloatE13LookaheadModec
    stream.o(.ARM.exidx) refers to stream.o(i._ZN6Stream9readBytesEPcj) for i._ZN6Stream9readBytesEPcj
    stream.o(.ARM.exidx) refers to stream.o(i._ZN6Stream14readBytesUntilEcPcj) for i._ZN6Stream14readBytesUntilEcPcj
    stream.o(.ARM.exidx) refers to stream.o(i._ZN6Stream10readStringEv) for i._ZN6Stream10readStringEv
    stream.o(.ARM.exidx) refers to stream.o(i._ZN6Stream15readStringUntilEc) for i._ZN6Stream15readStringUntilEc
    wstring.o(i._ZN6String10invalidateEv) refers to mallocr.o(i.__free$realloc) for free
    wstring.o(i._ZN6String11toLowerCaseEv) refers to tolower.o(.text) for tolower
    wstring.o(i._ZN6String11toUpperCaseEv) refers to toupper.o(.text) for toupper
    wstring.o(i._ZN6String12changeBufferEj) refers to mallocr.o(i.realloc) for realloc
    wstring.o(i._ZN6String4copyEPKcj) refers to wstring.o(i._ZN6String7reserveEj) for String::reserve(unsigned)
    wstring.o(i._ZN6String4copyEPKcj) refers to wstring.o(i._ZN6String10invalidateEv) for String::invalidate()
    wstring.o(i._ZN6String4copyEPKcj) refers to strcpy.o(.text) for strcpy
    wstring.o(i._ZN6String4moveERS_) refers to strcpy.o(.text) for strcpy
    wstring.o(i._ZN6String4moveERS_) refers to mallocr.o(i.__free$realloc) for free
    wstring.o(i._ZN6String4moveERS_) refers to wstring.o(.constdata) for <Data1>
    wstring.o(i._ZN6String4trimEv) refers to wstring.o(i.isspace) for isspace
    wstring.o(i._ZN6String4trimEv) refers to memmovea.o(.text) for __aeabi_memcpy
    wstring.o(i._ZN6String6concatEPKc) refers to strlen.o(.text) for strlen
    wstring.o(i._ZN6String6concatEPKc) refers to wstring.o(i._ZN6String6concatEPKcj) for String::concat(const char*, unsigned)
    wstring.o(i._ZN6String6concatEPKcj) refers to wstring.o(i._ZN6String7reserveEj) for String::reserve(unsigned)
    wstring.o(i._ZN6String6concatEPKcj) refers to strcpy.o(.text) for strcpy
    wstring.o(i._ZN6String6concatERKS_) refers to wstring.o(i._ZN6String6concatEPKcj) for String::concat(const char*, unsigned)
    wstring.o(i._ZN6String6concatEc) refers to wstring.o(i._ZN6String6concatEPKcj) for String::concat(const char*, unsigned)
    wstring.o(i._ZN6String6concatEd) refers to dtostrf.o(i._Z7dtostrfdahPc) for dtostrf(double, signed char, unsigned char, char*)
    wstring.o(i._ZN6String6concatEd) refers to strlen.o(.text) for strlen
    wstring.o(i._ZN6String6concatEd) refers to wstring.o(i._ZN6String6concatEPKcj) for String::concat(const char*, unsigned)
    wstring.o(i._ZN6String6concatEf) refers to f2d.o(.text) for __aeabi_f2d
    wstring.o(i._ZN6String6concatEf) refers to dtostrf.o(i._Z7dtostrfdahPc) for dtostrf(double, signed char, unsigned char, char*)
    wstring.o(i._ZN6String6concatEf) refers to strlen.o(.text) for strlen
    wstring.o(i._ZN6String6concatEf) refers to wstring.o(i._ZN6String6concatEPKcj) for String::concat(const char*, unsigned)
    wstring.o(i._ZN6String6concatEh) refers to printfa.o(i.__0sprintf) for __2sprintf
    wstring.o(i._ZN6String6concatEh) refers to strlen.o(.text) for strlen
    wstring.o(i._ZN6String6concatEh) refers to wstring.o(i._ZN6String6concatEPKcj) for String::concat(const char*, unsigned)
    wstring.o(i._ZN6String6concatEi) refers to printfa.o(i.__0sprintf) for __2sprintf
    wstring.o(i._ZN6String6concatEi) refers to strlen.o(.text) for strlen
    wstring.o(i._ZN6String6concatEi) refers to wstring.o(i._ZN6String6concatEPKcj) for String::concat(const char*, unsigned)
    wstring.o(i._ZN6String6concatEj) refers to printfa.o(i.__0sprintf) for __2sprintf
    wstring.o(i._ZN6String6concatEj) refers to strlen.o(.text) for strlen
    wstring.o(i._ZN6String6concatEj) refers to wstring.o(i._ZN6String6concatEPKcj) for String::concat(const char*, unsigned)
    wstring.o(i._ZN6String6concatEl) refers to printfa.o(i.__0sprintf) for __2sprintf
    wstring.o(i._ZN6String6concatEl) refers to strlen.o(.text) for strlen
    wstring.o(i._ZN6String6concatEl) refers to wstring.o(i._ZN6String6concatEPKcj) for String::concat(const char*, unsigned)
    wstring.o(i._ZN6String6concatEm) refers to printfa.o(i.__0sprintf) for __2sprintf
    wstring.o(i._ZN6String6concatEm) refers to strlen.o(.text) for strlen
    wstring.o(i._ZN6String6concatEm) refers to wstring.o(i._ZN6String6concatEPKcj) for String::concat(const char*, unsigned)
    wstring.o(i._ZN6String6removeEj) refers to wstring.o(i._ZN6String6removeEjj) for String::remove(unsigned, unsigned)
    wstring.o(i._ZN6String6removeEjj) refers to strncpy.o(.text) for strncpy
    wstring.o(i._ZN6String7replaceERKS_S1_) refers to memmovea.o(.text) for __aeabi_memcpy
    wstring.o(i._ZN6String7replaceERKS_S1_) refers to wstring.o(i._ZSt6strstrPcPKc) for std::strstr(char*, const char*)
    wstring.o(i._ZN6String7replaceERKS_S1_) refers to strcpy.o(.text) for strcpy
    wstring.o(i._ZN6String7replaceERKS_S1_) refers to wstring.o(i._ZN6String12changeBufferEj) for String::changeBuffer(unsigned)
    wstring.o(i._ZN6String7replaceERKS_S1_) refers to wstring.o(i._ZNK6String11lastIndexOfERKS_j) for String::lastIndexOf(const String&, unsigned) const
    wstring.o(i._ZN6String7reserveEj) refers to wstring.o(i._ZN6String12changeBufferEj) for String::changeBuffer(unsigned)
    wstring.o(i._ZN6StringC1EO15StringSumHelper) refers to wstring.o(i._ZN6String4initEv) for String::init()
    wstring.o(i._ZN6StringC1EO15StringSumHelper) refers to wstring.o(i._ZN6String4moveERS_) for String::move(String&)
    wstring.o(i._ZN6StringC1EOS_) refers to wstring.o(i._ZN6String4initEv) for String::init()
    wstring.o(i._ZN6StringC1EOS_) refers to wstring.o(i._ZN6String4moveERS_) for String::move(String&)
    wstring.o(i._ZN6StringC1EPKc) refers to wstring.o(i._ZN6String4initEv) for String::init()
    wstring.o(i._ZN6StringC1EPKc) refers to strlen.o(.text) for strlen
    wstring.o(i._ZN6StringC1EPKc) refers to wstring.o(i._ZN6String4copyEPKcj) for String::copy(const char*, unsigned)
    wstring.o(i._ZN6StringC1ERKS_) refers to wstring.o(i._ZN6String4initEv) for String::init()
    wstring.o(i._ZN6StringC1ERKS_) refers to wstring.o(i._ZN6StringaSERKS_) for String::operator =(const String&)
    wstring.o(i._ZN6StringC1Ec) refers to wstring.o(i._ZN6String4initEv) for String::init()
    wstring.o(i._ZN6StringC1Ec) refers to wstring.o(i._ZN6StringaSEPKc) for String::operator =(const char*)
    wstring.o(i._ZN6StringC1Ehh) refers to wstring.o(i._ZN6String4initEv) for String::init()
    wstring.o(i._ZN6StringC1Ehh) refers to printfa.o(i.__0sprintf) for __2sprintf
    wstring.o(i._ZN6StringC1Ehh) refers to wstring.o(i._ZN6StringaSEPKc) for String::operator =(const char*)
    wstring.o(i._ZN6StringC1Eih) refers to wstring.o(i._ZN6String4initEv) for String::init()
    wstring.o(i._ZN6StringC1Eih) refers to printfa.o(i.__0sprintf) for __2sprintf
    wstring.o(i._ZN6StringC1Eih) refers to wstring.o(i._ZN6StringaSEPKc) for String::operator =(const char*)
    wstring.o(i._ZN6StringC1Ejh) refers to wstring.o(i._ZN6String4initEv) for String::init()
    wstring.o(i._ZN6StringC1Ejh) refers to printfa.o(i.__0sprintf) for __2sprintf
    wstring.o(i._ZN6StringC1Ejh) refers to wstring.o(i._ZN6StringaSEPKc) for String::operator =(const char*)
    wstring.o(i._ZN6StringD1Ev) refers to mallocr.o(i.__free$realloc) for free
    wstring.o(i._ZN6StringaSEO15StringSumHelper) refers to wstring.o(i._ZN6String4moveERS_) for String::move(String&)
    wstring.o(i._ZN6StringaSEOS_) refers to wstring.o(i._ZN6String4moveERS_) for String::move(String&)
    wstring.o(i._ZN6StringaSEPKc) refers to strlen.o(.text) for strlen
    wstring.o(i._ZN6StringaSEPKc) refers to wstring.o(i._ZN6String4copyEPKcj) for String::copy(const char*, unsigned)
    wstring.o(i._ZN6StringaSEPKc) refers to wstring.o(i._ZN6String10invalidateEv) for String::invalidate()
    wstring.o(i._ZN6StringaSERKS_) refers to wstring.o(i._ZN6String4copyEPKcj) for String::copy(const char*, unsigned)
    wstring.o(i._ZN6StringaSERKS_) refers to wstring.o(i._ZN6String10invalidateEv) for String::invalidate()
    wstring.o(i._ZN6StringixEj) refers to wstring.o(.data) for String::operator [](unsigned)::dummy_writable_char
    wstring.o(i._ZNK6String10startsWithERKS_) refers to wstring.o(i._ZNK6String10startsWithERKS_j) for String::startsWith(const String&, unsigned) const
    wstring.o(i._ZNK6String10startsWithERKS_j) refers to strncmp.o(.text) for strncmp
    wstring.o(i._ZNK6String11lastIndexOfERKS_) refers to wstring.o(i._ZNK6String11lastIndexOfERKS_j) for String::lastIndexOf(const String&, unsigned) const
    wstring.o(i._ZNK6String11lastIndexOfERKS_j) refers to wstring.o(i._ZSt6strstrPcPKc) for std::strstr(char*, const char*)
    wstring.o(i._ZNK6String11lastIndexOfEc) refers to wstring.o(i._ZNK6String11lastIndexOfEcj) for String::lastIndexOf(char, unsigned) const
    wstring.o(i._ZNK6String11lastIndexOfEcj) refers to strrchr.o(.text) for strrchr
    wstring.o(i._ZNK6String16equalsIgnoreCaseERKS_) refers to tolower.o(.text) for tolower
    wstring.o(i._ZNK6String5toIntEv) refers to atol.o(.text) for atol
    wstring.o(i._ZNK6String6charAtEj) refers to wstring.o(i._ZNK6StringixEj) for String::operator [](unsigned) const
    wstring.o(i._ZNK6String6equalsEPKc) refers to strcmp.o(.text) for strcmp
    wstring.o(i._ZNK6String6equalsERKS_) refers to wstring.o(i._ZNK6String9compareToERKS_) for String::compareTo(const String&) const
    wstring.o(i._ZNK6String7indexOfERKS_) refers to wstring.o(i._ZNK6String7indexOfERKS_j) for String::indexOf(const String&, unsigned) const
    wstring.o(i._ZNK6String7indexOfERKS_j) refers to wstring.o(i._ZSt6strstrPcPKc) for std::strstr(char*, const char*)
    wstring.o(i._ZNK6String7indexOfEc) refers to wstring.o(i._ZNK6String7indexOfEcj) for String::indexOf(char, unsigned) const
    wstring.o(i._ZNK6String7indexOfEcj) refers to strchr.o(.text) for strchr
    wstring.o(i._ZNK6String7toFloatEv) refers to wstring.o(i._ZNK6String8toDoubleEv) for String::toDouble() const
    wstring.o(i._ZNK6String7toFloatEv) refers to d2f.o(.text) for __aeabi_d2f
    wstring.o(i._ZNK6String8endsWithERKS_) refers to strcmp.o(.text) for strcmp
    wstring.o(i._ZNK6String8getBytesEPhjj) refers to strncpy.o(.text) for strncpy
    wstring.o(i._ZNK6String8toDoubleEv) refers to atof.o(i.__hardfp_atof) for __hardfp_atof
    wstring.o(i._ZNK6String9compareToERKS_) refers to strcmp.o(.text) for strcmp
    wstring.o(i._ZNK6String9substringEjj) refers to wstring.o(i._ZN6StringC1EPKc) for String::String(const char*)
    wstring.o(i._ZNK6String9substringEjj) refers to wstring.o(i._ZN6StringaSEPKc) for String::operator =(const char*)
    wstring.o(i._ZNK6StringgeERKS_) refers to wstring.o(i._ZNK6String9compareToERKS_) for String::compareTo(const String&) const
    wstring.o(i._ZNK6StringgtERKS_) refers to wstring.o(i._ZNK6String9compareToERKS_) for String::compareTo(const String&) const
    wstring.o(i._ZNK6StringleERKS_) refers to wstring.o(i._ZNK6String9compareToERKS_) for String::compareTo(const String&) const
    wstring.o(i._ZNK6StringltERKS_) refers to wstring.o(i._ZNK6String9compareToERKS_) for String::compareTo(const String&) const
    wstring.o(i._ZplRK15StringSumHelperPKc) refers to strlen.o(.text) for strlen
    wstring.o(i._ZplRK15StringSumHelperPKc) refers to wstring.o(i._ZN6String6concatEPKcj) for String::concat(const char*, unsigned)
    wstring.o(i._ZplRK15StringSumHelperPKc) refers to wstring.o(i._ZN6String10invalidateEv) for String::invalidate()
    wstring.o(i._ZplRK15StringSumHelperRK6String) refers to wstring.o(i._ZN6String6concatEPKcj) for String::concat(const char*, unsigned)
    wstring.o(i._ZplRK15StringSumHelperRK6String) refers to wstring.o(i._ZN6String10invalidateEv) for String::invalidate()
    wstring.o(i._ZplRK15StringSumHelperc) refers to wstring.o(i._ZN6String6concatEc) for String::concat(char)
    wstring.o(i._ZplRK15StringSumHelperc) refers to wstring.o(i._ZN6String10invalidateEv) for String::invalidate()
    wstring.o(i._ZplRK15StringSumHelperd) refers to wstring.o(i._ZN6String6concatEd) for String::concat(double)
    wstring.o(i._ZplRK15StringSumHelperd) refers to wstring.o(i._ZN6String10invalidateEv) for String::invalidate()
    wstring.o(i._ZplRK15StringSumHelperf) refers to wstring.o(i._ZN6String6concatEf) for String::concat(float)
    wstring.o(i._ZplRK15StringSumHelperf) refers to wstring.o(i._ZN6String10invalidateEv) for String::invalidate()
    wstring.o(i._ZplRK15StringSumHelperh) refers to wstring.o(i._ZN6String6concatEh) for String::concat(unsigned char)
    wstring.o(i._ZplRK15StringSumHelperh) refers to wstring.o(i._ZN6String10invalidateEv) for String::invalidate()
    wstring.o(i._ZplRK15StringSumHelperi) refers to wstring.o(i._ZN6String6concatEi) for String::concat(int)
    wstring.o(i._ZplRK15StringSumHelperi) refers to wstring.o(i._ZN6String10invalidateEv) for String::invalidate()
    wstring.o(i._ZplRK15StringSumHelperj) refers to wstring.o(i._ZN6String6concatEj) for String::concat(unsigned)
    wstring.o(i._ZplRK15StringSumHelperj) refers to wstring.o(i._ZN6String10invalidateEv) for String::invalidate()
    wstring.o(i._ZplRK15StringSumHelperl) refers to wstring.o(i._ZN6String6concatEl) for String::concat(long)
    wstring.o(i._ZplRK15StringSumHelperl) refers to wstring.o(i._ZN6String10invalidateEv) for String::invalidate()
    wstring.o(i._ZplRK15StringSumHelperm) refers to wstring.o(i._ZN6String6concatEm) for String::concat(unsigned long)
    wstring.o(i._ZplRK15StringSumHelperm) refers to wstring.o(i._ZN6String10invalidateEv) for String::invalidate()
    wstring.o(.ARM.exidx) refers to wstring.o(i._ZN6String10invalidateEv) for i._ZN6String10invalidateEv
    wstring.o(.ARM.exidx) refers to wstring.o(i._ZN6String12changeBufferEj) for i._ZN6String12changeBufferEj
    wstring.o(.ARM.exidx) refers to wstring.o(i._ZN6String7reserveEj) for i._ZN6String7reserveEj
    wstring.o(.ARM.exidx) refers to wstring.o(i._ZN6String6concatEPKcj) for i._ZN6String6concatEPKcj
    wstring.o(.ARM.exidx) refers to wstring.o(i._ZplRK15StringSumHelperRK6String) for i._ZplRK15StringSumHelperRK6String
    wstring.o(.ARM.exidx) refers to wstring.o(i._ZplRK15StringSumHelperPKc) for i._ZplRK15StringSumHelperPKc
    wstring.o(.ARM.exidx) refers to wstring.o(i._ZN6String6concatEc) for i._ZN6String6concatEc
    wstring.o(.ARM.exidx) refers to wstring.o(i._ZplRK15StringSumHelperc) for i._ZplRK15StringSumHelperc
    wstring.o(.ARM.exidx) refers to wstring.o(i._ZN6String6concatEh) for i._ZN6String6concatEh
    wstring.o(.ARM.exidx) refers to wstring.o(i._ZplRK15StringSumHelperh) for i._ZplRK15StringSumHelperh
    wstring.o(.ARM.exidx) refers to wstring.o(i._ZN6String6concatEi) for i._ZN6String6concatEi
    wstring.o(.ARM.exidx) refers to wstring.o(i._ZplRK15StringSumHelperi) for i._ZplRK15StringSumHelperi
    wstring.o(.ARM.exidx) refers to wstring.o(i._ZN6String6concatEj) for i._ZN6String6concatEj
    wstring.o(.ARM.exidx) refers to wstring.o(i._ZplRK15StringSumHelperj) for i._ZplRK15StringSumHelperj
    wstring.o(.ARM.exidx) refers to wstring.o(i._ZN6String6concatEl) for i._ZN6String6concatEl
    wstring.o(.ARM.exidx) refers to wstring.o(i._ZplRK15StringSumHelperl) for i._ZplRK15StringSumHelperl
    wstring.o(.ARM.exidx) refers to wstring.o(i._ZN6String6concatEm) for i._ZN6String6concatEm
    wstring.o(.ARM.exidx) refers to wstring.o(i._ZplRK15StringSumHelperm) for i._ZplRK15StringSumHelperm
    wstring.o(.ARM.exidx) refers to wstring.o(i._ZN6String6concatEf) for i._ZN6String6concatEf
    wstring.o(.ARM.exidx) refers to wstring.o(i._ZplRK15StringSumHelperf) for i._ZplRK15StringSumHelperf
    wstring.o(.ARM.exidx) refers to wstring.o(i._ZN6String6concatEd) for i._ZN6String6concatEd
    wstring.o(.ARM.exidx) refers to wstring.o(i._ZplRK15StringSumHelperd) for i._ZplRK15StringSumHelperd
    wstring.o(.ARM.exidx) refers to wstring.o(i._ZN6String4copyEPKcj) for i._ZN6String4copyEPKcj
    wstring.o(.ARM.exidx) refers to wstring.o(i._ZN6StringC1EPKc) for i._ZN6StringC1EPKc
    wstring.o(.ARM.exidx) refers to wstring.o(i._ZN6StringaSERKS_) for i._ZN6StringaSERKS_
    wstring.o(.ARM.exidx) refers to wstring.o(i._ZN6StringC1ERKS_) for i._ZN6StringC1ERKS_
    wstring.o(.ARM.exidx) refers to wstring.o(i._ZN6String4moveERS_) for i._ZN6String4moveERS_
    wstring.o(.ARM.exidx) refers to wstring.o(i._ZN6StringC1EOS_) for i._ZN6StringC1EOS_
    wstring.o(.ARM.exidx) refers to wstring.o(i._ZN6StringC1EO15StringSumHelper) for i._ZN6StringC1EO15StringSumHelper
    wstring.o(.ARM.exidx) refers to wstring.o(i._ZN6StringaSEPKc) for i._ZN6StringaSEPKc
    wstring.o(.ARM.exidx) refers to wstring.o(i._ZN6StringC1Ec) for i._ZN6StringC1Ec
    wstring.o(.ARM.exidx) refers to wstring.o(i._ZN6StringC1Ehh) for i._ZN6StringC1Ehh
    wstring.o(.ARM.exidx) refers to wstring.o(i._ZN6StringC1Eih) for i._ZN6StringC1Eih
    wstring.o(.ARM.exidx) refers to wstring.o(i._ZN6StringC1Ejh) for i._ZN6StringC1Ejh
    wstring.o(.ARM.exidx) refers to wstring.o(i._ZN6StringD1Ev) for i._ZN6StringD1Ev
    wstring.o(.ARM.exidx) refers to wstring.o(i._ZN6StringaSEOS_) for i._ZN6StringaSEOS_
    wstring.o(.ARM.exidx) refers to wstring.o(i._ZN6StringaSEO15StringSumHelper) for i._ZN6StringaSEO15StringSumHelper
    wstring.o(.ARM.exidx) refers to wstring.o(i._ZN6String6concatERKS_) for i._ZN6String6concatERKS_
    wstring.o(.ARM.exidx) refers to wstring.o(i._ZN6String6concatEPKc) for i._ZN6String6concatEPKc
    wstring.o(.ARM.exidx) refers to wstring.o(i._ZNK6String9compareToERKS_) for i._ZNK6String9compareToERKS_
    wstring.o(.ARM.exidx) refers to wstring.o(i._ZNK6String6equalsERKS_) for i._ZNK6String6equalsERKS_
    wstring.o(.ARM.exidx) refers to wstring.o(i._ZNK6String6equalsEPKc) for i._ZNK6String6equalsEPKc
    wstring.o(.ARM.exidx) refers to wstring.o(i._ZNK6StringltERKS_) for i._ZNK6StringltERKS_
    wstring.o(.ARM.exidx) refers to wstring.o(i._ZNK6StringgtERKS_) for i._ZNK6StringgtERKS_
    wstring.o(.ARM.exidx) refers to wstring.o(i._ZNK6StringleERKS_) for i._ZNK6StringleERKS_
    wstring.o(.ARM.exidx) refers to wstring.o(i._ZNK6StringgeERKS_) for i._ZNK6StringgeERKS_
    wstring.o(.ARM.exidx) refers to wstring.o(i._ZNK6String16equalsIgnoreCaseERKS_) for i._ZNK6String16equalsIgnoreCaseERKS_
    wstring.o(.ARM.exidx) refers to wstring.o(i._ZNK6String10startsWithERKS_j) for i._ZNK6String10startsWithERKS_j
    wstring.o(.ARM.exidx) refers to wstring.o(i._ZNK6String10startsWithERKS_) for i._ZNK6String10startsWithERKS_
    wstring.o(.ARM.exidx) refers to wstring.o(i._ZNK6String8endsWithERKS_) for i._ZNK6String8endsWithERKS_
    wstring.o(.ARM.exidx) refers to wstring.o(i._ZNK6StringixEj) for i._ZNK6StringixEj
    wstring.o(.ARM.exidx) refers to wstring.o(i._ZNK6String6charAtEj) for i._ZNK6String6charAtEj
    wstring.o(.ARM.exidx) refers to wstring.o(i._ZN6String9setCharAtEjc) for i._ZN6String9setCharAtEjc
    wstring.o(.ARM.exidx) refers to wstring.o(i._ZN6StringixEj) for i._ZN6StringixEj
    wstring.o(.ARM.exidx) refers to wstring.o(i._ZNK6String8getBytesEPhjj) for i._ZNK6String8getBytesEPhjj
    wstring.o(.ARM.exidx) refers to wstring.o(i._ZNK6String7indexOfEcj) for i._ZNK6String7indexOfEcj
    wstring.o(.ARM.exidx) refers to wstring.o(i._ZNK6String7indexOfEc) for i._ZNK6String7indexOfEc
    wstring.o(.ARM.exidx) refers to wstring.o(i._ZNK6String7indexOfERKS_j) for i._ZNK6String7indexOfERKS_j
    wstring.o(.ARM.exidx) refers to wstring.o(i._ZNK6String7indexOfERKS_) for i._ZNK6String7indexOfERKS_
    wstring.o(.ARM.exidx) refers to wstring.o(i._ZNK6String11lastIndexOfEcj) for i._ZNK6String11lastIndexOfEcj
    wstring.o(.ARM.exidx) refers to wstring.o(i._ZNK6String11lastIndexOfEc) for i._ZNK6String11lastIndexOfEc
    wstring.o(.ARM.exidx) refers to wstring.o(i._ZNK6String11lastIndexOfERKS_j) for i._ZNK6String11lastIndexOfERKS_j
    wstring.o(.ARM.exidx) refers to wstring.o(i._ZNK6String11lastIndexOfERKS_) for i._ZNK6String11lastIndexOfERKS_
    wstring.o(.ARM.exidx) refers to wstring.o(i._ZNK6String9substringEjj) for i._ZNK6String9substringEjj
    wstring.o(.ARM.exidx) refers to wstring.o(i._ZN6String7replaceEcc) for i._ZN6String7replaceEcc
    wstring.o(.ARM.exidx) refers to wstring.o(i._ZN6String7replaceERKS_S1_) for i._ZN6String7replaceERKS_S1_
    wstring.o(.ARM.exidx) refers to wstring.o(i._ZN6String6removeEjj) for i._ZN6String6removeEjj
    wstring.o(.ARM.exidx) refers to wstring.o(i._ZN6String6removeEj) for i._ZN6String6removeEj
    wstring.o(.ARM.exidx) refers to wstring.o(i._ZN6String11toLowerCaseEv) for i._ZN6String11toLowerCaseEv
    wstring.o(.ARM.exidx) refers to wstring.o(i._ZN6String11toUpperCaseEv) for i._ZN6String11toUpperCaseEv
    wstring.o(.ARM.exidx) refers to wstring.o(i._ZN6String4trimEv) for i._ZN6String4trimEv
    wstring.o(.ARM.exidx) refers to wstring.o(i._ZNK6String5toIntEv) for i._ZNK6String5toIntEv
    wstring.o(.ARM.exidx) refers to wstring.o(i._ZNK6String8toDoubleEv) for i._ZNK6String8toDoubleEv
    wstring.o(.ARM.exidx) refers to wstring.o(i._ZNK6String7toFloatEv) for i._ZNK6String7toFloatEv
    wstring.o(.constdata) refers to wstring.o(i._ZNK6String14StringIfHelperEv) for String::StringIfHelper() const
    bsp_adc.o(i._ZN33_INTERNAL_11_bsp_adc_cpp_adc_init12adc_pin_initEv) refers to hc32f46x_gpio.o(i.PORT_Init) for PORT_Init
    bsp_adc.o(i._ZN33_INTERNAL_11_bsp_adc_cpp_adc_init13AdcInitConfigEv) refers to hc32f46x_pwc.o(i.PWC_Fcg3PeriphClockCmd) for PWC_Fcg3PeriphClockCmd
    bsp_adc.o(i._ZN33_INTERNAL_11_bsp_adc_cpp_adc_init13AdcInitConfigEv) refers to hc32f46x_adc.o(i.ADC_Init) for ADC_Init
    bsp_adc.o(i._ZN33_INTERNAL_11_bsp_adc_cpp_adc_init13AdcSetPinModeEh11en_pin_mode) refers to hc32f46x_gpio.o(i.PORT_Init) for PORT_Init
    bsp_adc.o(i._ZN33_INTERNAL_11_bsp_adc_cpp_adc_init14AdcClockConfigEv) refers to hc32f46x_clk.o(i.CLK_SysClkConfig) for CLK_SysClkConfig
    bsp_adc.o(i._ZN33_INTERNAL_11_bsp_adc_cpp_adc_init14AdcClockConfigEv) refers to hc32f46x_clk.o(i.CLK_SetPeriClkSource) for CLK_SetPeriClkSource
    bsp_adc.o(i._ZN33_INTERNAL_11_bsp_adc_cpp_adc_init16AdcChannelConfigEv) refers to hc32f46x_adc.o(i.ADC_AddAdcChannel) for ADC_AddAdcChannel
    bsp_adc.o(i._ZN33_INTERNAL_11_bsp_adc_cpp_adc_init16AdcTriggerConfigEv) refers to hc32f46x_pwc.o(i.PWC_Fcg0PeriphClockCmd) for PWC_Fcg0PeriphClockCmd
    bsp_adc.o(i._ZN33_INTERNAL_11_bsp_adc_cpp_adc_init16AdcTriggerConfigEv) refers to hc32f46x_adc.o(i.ADC_TriggerSrcCmd) for ADC_TriggerSrcCmd
    bsp_adc.o(i._ZN33_INTERNAL_11_bsp_adc_cpp_adc_init20AdcSetChannelPinModeEPK14M4_ADC_TypeDefj11en_pin_mode) refers to bsp_adc.o(i._ZN33_INTERNAL_11_bsp_adc_cpp_adc_init13AdcSetPinModeEh11en_pin_mode) for [local to bsp_adc_cpp]::AdcSetPinMode(unsigned char, en_pin_mode)
    bsp_adc.o(i.adc_dma_config) refers to memseta.o(.text) for __aeabi_memclr4
    bsp_adc.o(i.adc_dma_config) refers to hc32f46x_pwc.o(i.PWC_Fcg0PeriphClockCmd) for PWC_Fcg0PeriphClockCmd
    bsp_adc.o(i.adc_dma_config) refers to hc32f46x_dmac.o(i.DMA_InitChannel) for DMA_InitChannel
    bsp_adc.o(i.adc_dma_config) refers to hc32f46x_dmac.o(i.DMA_Cmd) for DMA_Cmd
    bsp_adc.o(i.adc_dma_config) refers to hc32f46x_dmac.o(i.DMA_ChannelCmd) for DMA_ChannelCmd
    bsp_adc.o(i.adc_dma_config) refers to hc32f46x_dmac.o(i.DMA_ClearIrqFlag) for DMA_ClearIrqFlag
    bsp_adc.o(i.adc_dma_config) refers to hc32f46x_dmac.o(i.DMA_SetTriggerSrc) for DMA_SetTriggerSrc
    bsp_adc.o(i.adc_dma_config) refers to bsp_adc.o(.data) for g_adc_value
    bsp_adc.o(i.adc_init) refers to bsp_adc.o(i._ZN33_INTERNAL_11_bsp_adc_cpp_adc_init13AdcInitConfigEv) for [local to bsp_adc_cpp]::AdcInitConfig()
    bsp_adc.o(i.adc_init) refers to bsp_adc.o(i._ZN33_INTERNAL_11_bsp_adc_cpp_adc_init12adc_pin_initEv) for [local to bsp_adc_cpp]::adc_pin_init()
    bsp_adc.o(i.adc_init) refers to bsp_adc.o(i._ZN33_INTERNAL_11_bsp_adc_cpp_adc_init16AdcChannelConfigEv) for [local to bsp_adc_cpp]::AdcChannelConfig()
    bsp_adc.o(i.adc_init) refers to bsp_adc.o(i._ZN33_INTERNAL_11_bsp_adc_cpp_adc_init16AdcTriggerConfigEv) for [local to bsp_adc_cpp]::AdcTriggerConfig()
    bsp_adc.o(i.adc_init) refers to bsp_adc.o(i.adc_dma_config) for adc_dma_config
    bsp_adc.o(i.adc_init) refers to hc32f46x_adc.o(i.ADC_StartConvert) for ADC_StartConvert
    bsp_adc.o(.ARM.exidx) refers to bsp_adc.o(i.adc_dma_config) for i.adc_dma_config
    bsp_adc.o(.ARM.exidx) refers to bsp_adc.o(i._ZN33_INTERNAL_11_bsp_adc_cpp_adc_init16AdcTriggerConfigEv) for i._ZN33_INTERNAL_11_bsp_adc_cpp_adc_init16AdcTriggerConfigEv
    bsp_adc.o(.ARM.exidx) refers to bsp_adc.o(i._ZN33_INTERNAL_11_bsp_adc_cpp_adc_init16AdcChannelConfigEv) for i._ZN33_INTERNAL_11_bsp_adc_cpp_adc_init16AdcChannelConfigEv
    bsp_adc.o(.ARM.exidx) refers to bsp_adc.o(i._ZN33_INTERNAL_11_bsp_adc_cpp_adc_init12adc_pin_initEv) for i._ZN33_INTERNAL_11_bsp_adc_cpp_adc_init12adc_pin_initEv
    bsp_adc.o(.ARM.exidx) refers to bsp_adc.o(i._ZN33_INTERNAL_11_bsp_adc_cpp_adc_init13AdcInitConfigEv) for i._ZN33_INTERNAL_11_bsp_adc_cpp_adc_init13AdcInitConfigEv
    bsp_adc.o(.ARM.exidx) refers to bsp_adc.o(i.adc_init) for i.adc_init
    bsp_adc.o(.ARM.exidx) refers to bsp_adc.o(i._ZN33_INTERNAL_11_bsp_adc_cpp_adc_init14AdcClockConfigEv) for i._ZN33_INTERNAL_11_bsp_adc_cpp_adc_init14AdcClockConfigEv
    bsp_adc.o(.ARM.exidx) refers to bsp_adc.o(i._ZN33_INTERNAL_11_bsp_adc_cpp_adc_init13AdcSetPinModeEh11en_pin_mode) for i._ZN33_INTERNAL_11_bsp_adc_cpp_adc_init13AdcSetPinModeEh11en_pin_mode
    bsp_adc.o(.ARM.exidx) refers to bsp_adc.o(i._ZN33_INTERNAL_11_bsp_adc_cpp_adc_init20AdcSetChannelPinModeEPK14M4_ADC_TypeDefj11en_pin_mode) for i._ZN33_INTERNAL_11_bsp_adc_cpp_adc_init20AdcSetChannelPinModeEPK14M4_ADC_TypeDefj11en_pin_mode
    bsp_init.o(i.clock_init) refers to memseta.o(.text) for __aeabi_memclr4
    bsp_init.o(i.clock_init) refers to hc32f46x_clk.o(i.CLK_SysClkConfig) for CLK_SysClkConfig
    bsp_init.o(i.clock_init) refers to hc32f46x_clk.o(i.CLK_SetPeriClkSource) for CLK_SetPeriClkSource
    bsp_init.o(i.clock_init) refers to hc32f46x_clk.o(i.CLK_XtalConfig) for CLK_XtalConfig
    bsp_init.o(i.clock_init) refers to hc32f46x_clk.o(i.CLK_XtalCmd) for CLK_XtalCmd
    bsp_init.o(i.clock_init) refers to hc32f46x_efm.o(i.EFM_Unlock) for EFM_Unlock
    bsp_init.o(i.clock_init) refers to hc32f46x_efm.o(i.EFM_SetLatency) for EFM_SetLatency
    bsp_init.o(i.clock_init) refers to hc32f46x_efm.o(i.EFM_Lock) for EFM_Lock
    bsp_init.o(i.clock_init) refers to hc32f46x_pwc.o(i.PWC_HS2HP) for PWC_HS2HP
    bsp_init.o(i.clock_init) refers to hc32f46x_clk.o(i.CLK_SetPllSource) for CLK_SetPllSource
    bsp_init.o(i.clock_init) refers to hc32f46x_clk.o(i.CLK_MpllConfig) for CLK_MpllConfig
    bsp_init.o(i.clock_init) refers to hc32f46x_clk.o(i.CLK_MpllCmd) for CLK_MpllCmd
    bsp_init.o(i.clock_init) refers to hc32f46x_clk.o(i.CLK_GetFlagStatus) for CLK_GetFlagStatus
    bsp_init.o(i.clock_init) refers to hc32f46x_clk.o(i.CLK_SetSysClkSource) for CLK_SetSysClkSource
    bsp_init.o(i.fan_pin_init) refers to hc32f46x_gpio.o(i.PORT_DebugPortSetting) for PORT_DebugPortSetting
    bsp_init.o(i.get_all_clock) refers to memseta.o(.text) for __aeabi_memclr4
    bsp_init.o(i.get_all_clock) refers to hc32f46x_clk.o(i.CLK_GetClockFreq) for CLK_GetClockFreq
    bsp_init.o(i.get_all_clock) refers to hc32f46x_clk.o(i.CLK_GetPllClockFreq) for CLK_GetPllClockFreq
    bsp_init.o(i.get_all_clock) refers to startup.o(i.f_cpu_init) for f_cpu_init
    bsp_init.o(i.led_pin_init) refers to hc32f46x_gpio.o(i.PORT_Init) for PORT_Init
    bsp_init.o(i.led_pin_init) refers to hc32f46x_gpio.o(i.PORT_ResetBits) for PORT_ResetBits
    bsp_init.o(i.led_pin_init) refers to hc32f46x_gpio.o(i.PORT_SetBits) for PORT_SetBits
    bsp_init.o(i.led_pin_init) refers to hc32f46x_gpio.o(i.PORT_DebugPortSetting) for PORT_DebugPortSetting
    bsp_init.o(i.led_pin_init) refers to hc32f46x_gpio.o(i.PORT_SetFunc) for PORT_SetFunc
    bsp_init.o(i.shut_off_power) refers to hc32f46x_gpio.o(i.PORT_ResetBits) for PORT_ResetBits
    bsp_init.o(i.uart1_init) refers to hc32f46x_pwc.o(i.PWC_Fcg1PeriphClockCmd) for PWC_Fcg1PeriphClockCmd
    bsp_init.o(i.uart1_init) refers to hc32f46x_usart.o(i.USART_UART_Init) for USART_UART_Init
    bsp_init.o(i.uart1_init) refers to hc32f46x_usart.o(i.USART_SetBaudrate) for USART_SetBaudrate
    bsp_init.o(i.uart1_init) refers to hc32f46x_interrupts.o(i.enIrqRegistration) for enIrqRegistration
    bsp_init.o(i.uart1_init) refers to bsp_init.o(i._ZN34_INTERNAL_12_bsp_init_cpp_efd8dd3118__NVIC_SetPriorityE4IRQnj) for [local to bsp_init_cpp]::__NVIC_SetPriority(IRQn, unsigned)
    bsp_init.o(i.uart1_init) refers to bsp_init.o(i._ZN34_INTERNAL_12_bsp_init_cpp_efd8dd3122__NVIC_ClearPendingIRQE4IRQn) for [local to bsp_init_cpp]::__NVIC_ClearPendingIRQ(IRQn)
    bsp_init.o(i.uart1_init) refers to bsp_init.o(i._ZN34_INTERNAL_12_bsp_init_cpp_efd8dd3116__NVIC_EnableIRQE4IRQn) for [local to bsp_init_cpp]::__NVIC_EnableIRQ(IRQn)
    bsp_init.o(i.uart1_init) refers to hc32f46x_usart.o(i.USART_FuncCmd) for USART_FuncCmd
    bsp_init.o(i.uart1_init) refers to bsp_init.o(.constdata) for .constdata
    bsp_init.o(i.uart1_init) refers to bsp_irq.o(i.BSP_USART1_RIIrqHander) for BSP_USART1_RIIrqHander
    bsp_init.o(i.uart1_init) refers to bsp_irq.o(i.BSP_USART1_EIIrqHander) for BSP_USART1_EIIrqHander
    bsp_init.o(i.uart1_init) refers to bsp_irq.o(i.BSP_USART1_TIrqHander) for BSP_USART1_TIrqHander
    bsp_init.o(i.uart1_init) refers to bsp_irq.o(i.BSP_USART1_TCIIrqHander) for BSP_USART1_TCIIrqHander
    bsp_init.o(i.uart2_init) refers to hc32f46x_pwc.o(i.PWC_Fcg1PeriphClockCmd) for PWC_Fcg1PeriphClockCmd
    bsp_init.o(i.uart2_init) refers to hc32f46x_gpio.o(i.PORT_SetFunc) for PORT_SetFunc
    bsp_init.o(i.uart2_init) refers to hc32f46x_usart.o(i.USART_UART_Init) for USART_UART_Init
    bsp_init.o(i.uart2_init) refers to hc32f46x_usart.o(i.USART_SetBaudrate) for USART_SetBaudrate
    bsp_init.o(i.uart2_init) refers to hc32f46x_interrupts.o(i.enIrqRegistration) for enIrqRegistration
    bsp_init.o(i.uart2_init) refers to bsp_init.o(i._ZN34_INTERNAL_12_bsp_init_cpp_efd8dd3118__NVIC_SetPriorityE4IRQnj) for [local to bsp_init_cpp]::__NVIC_SetPriority(IRQn, unsigned)
    bsp_init.o(i.uart2_init) refers to bsp_init.o(i._ZN34_INTERNAL_12_bsp_init_cpp_efd8dd3122__NVIC_ClearPendingIRQE4IRQn) for [local to bsp_init_cpp]::__NVIC_ClearPendingIRQ(IRQn)
    bsp_init.o(i.uart2_init) refers to bsp_init.o(i._ZN34_INTERNAL_12_bsp_init_cpp_efd8dd3116__NVIC_EnableIRQE4IRQn) for [local to bsp_init_cpp]::__NVIC_EnableIRQ(IRQn)
    bsp_init.o(i.uart2_init) refers to hc32f46x_usart.o(i.USART_FuncCmd) for USART_FuncCmd
    bsp_init.o(i.uart2_init) refers to bsp_init.o(.constdata) for .constdata
    bsp_init.o(i.uart2_init) refers to bsp_irq.o(i.BSP_USART2_RIIrqHander) for BSP_USART2_RIIrqHander
    bsp_init.o(i.uart2_init) refers to bsp_irq.o(i.BSP_USART2_EIIrqHander) for BSP_USART2_EIIrqHander
    bsp_init.o(i.uart2_init) refers to bsp_irq.o(i.BSP_USART2_TIrqHander) for BSP_USART2_TIrqHander
    bsp_init.o(i.uart2_init) refers to bsp_irq.o(i.BSP_USART2_TCIIrqHander) for BSP_USART2_TCIIrqHander
    bsp_init.o(i.uart3_init) refers to hc32f46x_pwc.o(i.PWC_Fcg1PeriphClockCmd) for PWC_Fcg1PeriphClockCmd
    bsp_init.o(i.uart3_init) refers to hc32f46x_gpio.o(i.PORT_SetFunc) for PORT_SetFunc
    bsp_init.o(i.uart3_init) refers to hc32f46x_usart.o(i.USART_UART_Init) for USART_UART_Init
    bsp_init.o(i.uart3_init) refers to hc32f46x_usart.o(i.USART_SetBaudrate) for USART_SetBaudrate
    bsp_init.o(i.uart3_init) refers to hc32f46x_interrupts.o(i.enIrqRegistration) for enIrqRegistration
    bsp_init.o(i.uart3_init) refers to bsp_init.o(i._ZN34_INTERNAL_12_bsp_init_cpp_efd8dd3118__NVIC_SetPriorityE4IRQnj) for [local to bsp_init_cpp]::__NVIC_SetPriority(IRQn, unsigned)
    bsp_init.o(i.uart3_init) refers to bsp_init.o(i._ZN34_INTERNAL_12_bsp_init_cpp_efd8dd3122__NVIC_ClearPendingIRQE4IRQn) for [local to bsp_init_cpp]::__NVIC_ClearPendingIRQ(IRQn)
    bsp_init.o(i.uart3_init) refers to bsp_init.o(i._ZN34_INTERNAL_12_bsp_init_cpp_efd8dd3116__NVIC_EnableIRQE4IRQn) for [local to bsp_init_cpp]::__NVIC_EnableIRQ(IRQn)
    bsp_init.o(i.uart3_init) refers to hc32f46x_usart.o(i.USART_FuncCmd) for USART_FuncCmd
    bsp_init.o(i.uart3_init) refers to bsp_init.o(.constdata) for .constdata
    bsp_init.o(i.uart3_init) refers to bsp_irq.o(i.BSP_USART3_RIIrqHander) for BSP_USART3_RIIrqHander
    bsp_init.o(i.uart3_init) refers to bsp_irq.o(i.BSP_USART3_EIIrqHander) for BSP_USART3_EIIrqHander
    bsp_init.o(i.uart3_init) refers to bsp_irq.o(i.BSP_USART3_TIrqHander) for BSP_USART3_TIrqHander
    bsp_init.o(i.uart3_init) refers to bsp_irq.o(i.BSP_USART3_TCIIrqHander) for BSP_USART3_TCIIrqHander
    bsp_init.o(i.uart4_init) refers to hc32f46x_pwc.o(i.PWC_Fcg1PeriphClockCmd) for PWC_Fcg1PeriphClockCmd
    bsp_init.o(i.uart4_init) refers to hc32f46x_gpio.o(i.PORT_SetFunc) for PORT_SetFunc
    bsp_init.o(i.uart4_init) refers to hc32f46x_usart.o(i.USART_UART_Init) for USART_UART_Init
    bsp_init.o(i.uart4_init) refers to hc32f46x_usart.o(i.USART_SetBaudrate) for USART_SetBaudrate
    bsp_init.o(i.uart4_init) refers to hc32f46x_interrupts.o(i.enIrqRegistration) for enIrqRegistration
    bsp_init.o(i.uart4_init) refers to bsp_init.o(i._ZN34_INTERNAL_12_bsp_init_cpp_efd8dd3118__NVIC_SetPriorityE4IRQnj) for [local to bsp_init_cpp]::__NVIC_SetPriority(IRQn, unsigned)
    bsp_init.o(i.uart4_init) refers to bsp_init.o(i._ZN34_INTERNAL_12_bsp_init_cpp_efd8dd3122__NVIC_ClearPendingIRQE4IRQn) for [local to bsp_init_cpp]::__NVIC_ClearPendingIRQ(IRQn)
    bsp_init.o(i.uart4_init) refers to bsp_init.o(i._ZN34_INTERNAL_12_bsp_init_cpp_efd8dd3116__NVIC_EnableIRQE4IRQn) for [local to bsp_init_cpp]::__NVIC_EnableIRQ(IRQn)
    bsp_init.o(i.uart4_init) refers to hc32f46x_usart.o(i.USART_FuncCmd) for USART_FuncCmd
    bsp_init.o(i.uart4_init) refers to bsp_init.o(.constdata) for .constdata
    bsp_init.o(i.uart4_init) refers to bsp_irq.o(i.BSP_USART4_RIIrqHander) for BSP_USART4_RIIrqHander
    bsp_init.o(i.uart4_init) refers to bsp_irq.o(i.BSP_USART4_EIIrqHander) for BSP_USART4_EIIrqHander
    bsp_init.o(i.uart4_init) refers to bsp_irq.o(i.BSP_USART4_TIrqHander) for BSP_USART4_TIrqHander
    bsp_init.o(i.uart4_init) refers to bsp_irq.o(i.BSP_USART4_TCIIrqHander) for BSP_USART4_TCIIrqHander
    bsp_init.o(.ARM.exidx) refers to bsp_init.o(i._ZN34_INTERNAL_12_bsp_init_cpp_efd8dd3118__NVIC_SetPriorityE4IRQnj) for i._ZN34_INTERNAL_12_bsp_init_cpp_efd8dd3118__NVIC_SetPriorityE4IRQnj
    bsp_init.o(.ARM.exidx) refers to bsp_init.o(i.clock_init) for i.clock_init
    bsp_init.o(.ARM.exidx) refers to bsp_init.o(i.get_all_clock) for i.get_all_clock
    bsp_init.o(.ARM.exidx) refers to bsp_init.o(i.shut_off_power) for i.shut_off_power
    bsp_init.o(.ARM.exidx) refers to bsp_init.o(i.led_pin_init) for i.led_pin_init
    bsp_init.o(.ARM.exidx) refers to bsp_init.o(i.endstop_pin_init) for i.endstop_pin_init
    bsp_init.o(.ARM.exidx) refers to bsp_init.o(i.stepper_pin_init) for i.stepper_pin_init
    bsp_init.o(.ARM.exidx) refers to bsp_init.o(i.heater_pin_init) for i.heater_pin_init
    bsp_init.o(.ARM.exidx) refers to bsp_init.o(i.fan_pin_init) for i.fan_pin_init
    bsp_init.o(.ARM.exidx) refers to bsp_init.o(i.uart1_init) for i.uart1_init
    bsp_init.o(.ARM.exidx) refers to bsp_init.o(i.uart2_init) for i.uart2_init
    bsp_init.o(.ARM.exidx) refers to bsp_init.o(i.uart3_init) for i.uart3_init
    bsp_init.o(.ARM.exidx) refers to bsp_init.o(i.uart4_init) for i.uart4_init
    bsp_init.o(.ARM.exidx) refers to bsp_init.o(i._ZN34_INTERNAL_12_bsp_init_cpp_efd8dd3116__NVIC_EnableIRQE4IRQn) for i._ZN34_INTERNAL_12_bsp_init_cpp_efd8dd3116__NVIC_EnableIRQE4IRQn
    bsp_init.o(.ARM.exidx) refers to bsp_init.o(i._ZN34_INTERNAL_12_bsp_init_cpp_efd8dd3122__NVIC_ClearPendingIRQE4IRQn) for i._ZN34_INTERNAL_12_bsp_init_cpp_efd8dd3122__NVIC_ClearPendingIRQE4IRQn
    bsp_irq.o(i.BSP_USART1_EIIrqHander) refers to hc32f46x_usart.o(i.USART_GetStatus) for USART_GetStatus
    bsp_irq.o(i.BSP_USART1_EIIrqHander) refers to hc32f46x_usart.o(i.USART_ClearStatus) for USART_ClearStatus
    bsp_irq.o(i.BSP_USART1_RIIrqHander) refers to hc32f46x_usart.o(i.USART_RecData) for USART_RecData
    bsp_irq.o(i.BSP_USART1_RIIrqHander) refers to hardwareserial.o(i._ZN14HardwareSerial21_rx_complete_callbackEh) for HardwareSerial::_rx_complete_callback(unsigned char)
    bsp_irq.o(i.BSP_USART1_RIIrqHander) refers to board_gpio.o(.bss) for Serial1
    bsp_irq.o(i.BSP_USART2_EIIrqHander) refers to hc32f46x_usart.o(i.USART_GetStatus) for USART_GetStatus
    bsp_irq.o(i.BSP_USART2_EIIrqHander) refers to hc32f46x_usart.o(i.USART_ClearStatus) for USART_ClearStatus
    bsp_irq.o(i.BSP_USART2_RIIrqHander) refers to hc32f46x_usart.o(i.USART_RecData) for USART_RecData
    bsp_irq.o(i.BSP_USART2_RIIrqHander) refers to hardwareserial.o(i._ZN14HardwareSerial21_rx_complete_callbackEh) for HardwareSerial::_rx_complete_callback(unsigned char)
    bsp_irq.o(i.BSP_USART2_RIIrqHander) refers to board_gpio.o(.bss) for Serial2
    bsp_irq.o(i.BSP_USART3_EIIrqHander) refers to hc32f46x_usart.o(i.USART_GetStatus) for USART_GetStatus
    bsp_irq.o(i.BSP_USART3_EIIrqHander) refers to hc32f46x_usart.o(i.USART_ClearStatus) for USART_ClearStatus
    bsp_irq.o(i.BSP_USART3_RIIrqHander) refers to hc32f46x_usart.o(i.USART_RecData) for USART_RecData
    bsp_irq.o(i.BSP_USART3_RIIrqHander) refers to hardwareserial.o(i._ZN14HardwareSerial21_rx_complete_callbackEh) for HardwareSerial::_rx_complete_callback(unsigned char)
    bsp_irq.o(i.BSP_USART3_RIIrqHander) refers to board_gpio.o(.bss) for Serial3
    bsp_irq.o(i.BSP_USART4_EIIrqHander) refers to hc32f46x_usart.o(i.USART_GetStatus) for USART_GetStatus
    bsp_irq.o(i.BSP_USART4_EIIrqHander) refers to hc32f46x_usart.o(i.USART_ClearStatus) for USART_ClearStatus
    bsp_irq.o(i.BSP_USART4_RIIrqHander) refers to hc32f46x_usart.o(i.USART_RecData) for USART_RecData
    bsp_irq.o(i.BSP_USART4_RIIrqHander) refers to hardwareserial.o(i._ZN14HardwareSerial21_rx_complete_callbackEh) for HardwareSerial::_rx_complete_callback(unsigned char)
    bsp_irq.o(i.BSP_USART4_RIIrqHander) refers to board_gpio.o(.bss) for Serial4
    bsp_irq.o(.ARM.exidx) refers to bsp_irq.o(i.BSP_USART1_RIIrqHander) for i.BSP_USART1_RIIrqHander
    bsp_irq.o(.ARM.exidx) refers to bsp_irq.o(i.BSP_USART1_EIIrqHander) for i.BSP_USART1_EIIrqHander
    bsp_irq.o(.ARM.exidx) refers to bsp_irq.o(i.BSP_USART1_TIrqHander) for i.BSP_USART1_TIrqHander
    bsp_irq.o(.ARM.exidx) refers to bsp_irq.o(i.BSP_USART1_TCIIrqHander) for i.BSP_USART1_TCIIrqHander
    bsp_irq.o(.ARM.exidx) refers to bsp_irq.o(i.BSP_USART2_RIIrqHander) for i.BSP_USART2_RIIrqHander
    bsp_irq.o(.ARM.exidx) refers to bsp_irq.o(i.BSP_USART2_EIIrqHander) for i.BSP_USART2_EIIrqHander
    bsp_irq.o(.ARM.exidx) refers to bsp_irq.o(i.BSP_USART2_TIrqHander) for i.BSP_USART2_TIrqHander
    bsp_irq.o(.ARM.exidx) refers to bsp_irq.o(i.BSP_USART2_TCIIrqHander) for i.BSP_USART2_TCIIrqHander
    bsp_irq.o(.ARM.exidx) refers to bsp_irq.o(i.BSP_USART3_RIIrqHander) for i.BSP_USART3_RIIrqHander
    bsp_irq.o(.ARM.exidx) refers to bsp_irq.o(i.BSP_USART3_EIIrqHander) for i.BSP_USART3_EIIrqHander
    bsp_irq.o(.ARM.exidx) refers to bsp_irq.o(i.BSP_USART3_TIrqHander) for i.BSP_USART3_TIrqHander
    bsp_irq.o(.ARM.exidx) refers to bsp_irq.o(i.BSP_USART3_TCIIrqHander) for i.BSP_USART3_TCIIrqHander
    bsp_irq.o(.ARM.exidx) refers to bsp_irq.o(i.BSP_USART4_RIIrqHander) for i.BSP_USART4_RIIrqHander
    bsp_irq.o(.ARM.exidx) refers to bsp_irq.o(i.BSP_USART4_EIIrqHander) for i.BSP_USART4_EIIrqHander
    bsp_irq.o(.ARM.exidx) refers to bsp_irq.o(i.BSP_USART4_TIrqHander) for i.BSP_USART4_TIrqHander
    bsp_irq.o(.ARM.exidx) refers to bsp_irq.o(i.BSP_USART4_TCIIrqHander) for i.BSP_USART4_TCIIrqHander
    bsp_ots.o(i._Z12bsp_ots_initv) refers to hc32f46x_clk.o(i.CLK_LrcCmd) for CLK_LrcCmd
    bsp_ots.o(i._Z12bsp_ots_initv) refers to hc32f46x_pwc.o(i.PWC_Fcg3PeriphClockCmd) for PWC_Fcg3PeriphClockCmd
    bsp_ots.o(i._Z12bsp_ots_initv) refers to hc32f46x_ots.o(i.OTS_Init) for OTS_Init
    bsp_ots.o(i._Z12bsp_ots_initv) refers to system_hc32f46x.o(.data) for SystemCoreClock
    bsp_ots.o(i._Z8test_otsv) refers to hc32f46x_ots.o(i.OTS_StartGetTemp) for OTS_StartGetTemp
    bsp_ots.o(i._Z8test_otsv) refers to f2d.o(.text) for __aeabi_f2d
    bsp_ots.o(i._Z8test_otsv) refers to printfa.o(i.__0printf) for __2printf
    bsp_ots.o(.ARM.exidx) refers to bsp_ots.o(i._Z12bsp_ots_initv) for i._Z12bsp_ots_initv
    bsp_ots.o(.ARM.exidx) refers to bsp_ots.o(i._Z8test_otsv) for i._Z8test_otsv
    bsp_pwm.o(i._Z12fan_pwm_initv) refers to bsp_pwm.o(i._Z16hal_fan_pwm_inith) for hal_fan_pwm_init(unsigned char)
    bsp_pwm.o(i._Z13beep_pwm_initv) refers to hc32f46x_pwc.o(i.PWC_Fcg2PeriphClockCmd) for PWC_Fcg2PeriphClockCmd
    bsp_pwm.o(i._Z13beep_pwm_initv) refers to hc32f46x_pwc.o(i.PWC_Fcg0PeriphClockCmd) for PWC_Fcg0PeriphClockCmd
    bsp_pwm.o(i._Z13beep_pwm_initv) refers to hc32f46x_gpio.o(i.PORT_SetFunc) for PORT_SetFunc
    bsp_pwm.o(i._Z13beep_pwm_initv) refers to hc32f46x_timera.o(i.TIMERA_BaseInit) for TIMERA_BaseInit
    bsp_pwm.o(i._Z13beep_pwm_initv) refers to hc32f46x_timera.o(i.TIMERA_IrqCmd) for TIMERA_IrqCmd
    bsp_pwm.o(i._Z13beep_pwm_initv) refers to dfltui.o(.text) for __aeabi_ui2d
    bsp_pwm.o(i._Z13beep_pwm_initv) refers to dmul.o(.text) for __aeabi_dmul
    bsp_pwm.o(i._Z13beep_pwm_initv) refers to dfixui.o(.text) for __aeabi_d2uiz
    bsp_pwm.o(i._Z13beep_pwm_initv) refers to hc32f46x_timera.o(i.TIMERA_CompareInit) for TIMERA_CompareInit
    bsp_pwm.o(i._Z13beep_pwm_initv) refers to hc32f46x_timera.o(i.TIMERA_CompareCmd) for TIMERA_CompareCmd
    bsp_pwm.o(i._Z13beep_pwm_initv) refers to hc32f46x_timera.o(i.TIMERA_SetCompareValue) for TIMERA_SetCompareValue
    bsp_pwm.o(i._Z13beep_pwm_initv) refers to hc32f46x_timera.o(i.TIMERA_SpecifyOutputSta) for TIMERA_SpecifyOutputSta
    bsp_pwm.o(i._Z13beep_pwm_stopv) refers to hc32f46x_timera.o(i.TIMERA_Cmd) for TIMERA_Cmd
    bsp_pwm.o(i._Z16hal_fan_pwm_inith) refers to hc32f46x_pwc.o(i.PWC_Fcg2PeriphClockCmd) for PWC_Fcg2PeriphClockCmd
    bsp_pwm.o(i._Z16hal_fan_pwm_inith) refers to hc32f46x_pwc.o(i.PWC_Fcg0PeriphClockCmd) for PWC_Fcg0PeriphClockCmd
    bsp_pwm.o(i._Z16hal_fan_pwm_inith) refers to hc32f46x_gpio.o(i.PORT_SetFunc) for PORT_SetFunc
    bsp_pwm.o(i._Z16hal_fan_pwm_inith) refers to hc32f46x_timera.o(i.TIMERA_BaseInit) for TIMERA_BaseInit
    bsp_pwm.o(i._Z16hal_fan_pwm_inith) refers to hc32f46x_timera.o(i.TIMERA_IrqCmd) for TIMERA_IrqCmd
    bsp_pwm.o(i._Z16hal_fan_pwm_inith) refers to hc32f46x_timera.o(i.TIMERA_CompareInit) for TIMERA_CompareInit
    bsp_pwm.o(i._Z16hal_fan_pwm_inith) refers to hc32f46x_timera.o(i.TIMERA_CompareCmd) for TIMERA_CompareCmd
    bsp_pwm.o(i._Z16hal_fan_pwm_inith) refers to hc32f46x_timera.o(i.TIMERA_Cmd) for TIMERA_Cmd
    bsp_pwm.o(i._Z16hal_fan_pwm_inith) refers to hc32f46x_timera.o(i.TIMERA_SetCompareValue) for TIMERA_SetCompareValue
    bsp_pwm.o(i._Z16hal_fan_pwm_inith) refers to hc32f46x_timera.o(i.TIMERA_SpecifyOutputSta) for TIMERA_SpecifyOutputSta
    bsp_pwm.o(i._Z17fan_pwm_set_ratiohh) refers to hc32f46x_timera.o(i.TIMERA_GetCompareValue) for TIMERA_GetCompareValue
    bsp_pwm.o(i._Z17fan_pwm_set_ratiohh) refers to hc32f46x_timera.o(i.TIMERA_GetPeriodValue) for TIMERA_GetPeriodValue
    bsp_pwm.o(i._Z17fan_pwm_set_ratiohh) refers to hc32f46x_timera.o(i.TIMERA_SetCompareValue) for TIMERA_SetCompareValue
    bsp_pwm.o(i._Z17fan_pwm_set_ratiohh) refers to hc32f46x_timera.o(i.TIMERA_SpecifyOutputSta) for TIMERA_SpecifyOutputSta
    bsp_pwm.o(i._Z22beep_pwm_set_frequencyjh) refers to hc32f46x_timera.o(i.TIMERA_SetCompareValue) for TIMERA_SetCompareValue
    bsp_pwm.o(i._Z22beep_pwm_set_frequencyjh) refers to hc32f46x_timera.o(i.TIMERA_SpecifyOutputSta) for TIMERA_SpecifyOutputSta
    bsp_pwm.o(i._Z22beep_pwm_set_frequencyjh) refers to hc32f46x_timera.o(i.TIMERA_Cmd) for TIMERA_Cmd
    bsp_pwm.o(.ARM.exidx) refers to bsp_pwm.o(i._Z16hal_fan_pwm_inith) for i._Z16hal_fan_pwm_inith
    bsp_pwm.o(.ARM.exidx) refers to bsp_pwm.o(i._Z12fan_pwm_initv) for i._Z12fan_pwm_initv
    bsp_pwm.o(.ARM.exidx) refers to bsp_pwm.o(i._Z17fan_pwm_set_ratiohh) for i._Z17fan_pwm_set_ratiohh
    bsp_pwm.o(.ARM.exidx) refers to bsp_pwm.o(i._Z13beep_pwm_initv) for i._Z13beep_pwm_initv
    bsp_pwm.o(.ARM.exidx) refers to bsp_pwm.o(i._Z22beep_pwm_set_frequencyjh) for i._Z22beep_pwm_set_frequencyjh
    bsp_pwm.o(.ARM.exidx) refers to bsp_pwm.o(i._Z13beep_pwm_stopv) for i._Z13beep_pwm_stopv
    bsp_rmu.o(i._Z19rmu_get_reset_causev) refers to hc32f46x_rmu.o(i.RMU_GetResetCause) for RMU_GetResetCause
    bsp_rmu.o(i._Z21rmu_clear_reset_causev) refers to hc32f46x_rmu.o(i.RMU_ClrResetFlag) for RMU_ClrResetFlag
    bsp_rmu.o(.ARM.exidx) refers to bsp_rmu.o(i._Z19rmu_get_reset_causev) for i._Z19rmu_get_reset_causev
    bsp_rmu.o(.ARM.exidx) refers to bsp_rmu.o(i._Z21rmu_clear_reset_causev) for i._Z21rmu_clear_reset_causev
    bsp_sdio.o(i._Z10sdio_writejPKh) refers to sd_card.o(i.SDCARD_WriteBlocks) for SDCARD_WriteBlocks
    bsp_sdio.o(i._Z10sdio_writejPKh) refers to bsp_sdio.o(.data) for stcSdhandle
    bsp_sdio.o(i._Z13hal_sdio_initv) refers to bsp_sdio.o(i._ZN34_INTERNAL_12_bsp_sdio_cpp_98f0653513SdiocInitPinsEv) for [local to bsp_sdio_cpp]::SdiocInitPins()
    bsp_sdio.o(i._Z13hal_sdio_initv) refers to bsp_sdio.o(i._Z20sdio_controller_initv) for sdio_controller_init()
    bsp_sdio.o(i._Z13sdio_raw_testv) refers to sd_card.o(i.SDCARD_Erase) for SDCARD_Erase
    bsp_sdio.o(i._Z13sdio_raw_testv) refers to printfa.o(i.__0printf) for __2printf
    bsp_sdio.o(i._Z13sdio_raw_testv) refers to sd_card.o(i.SDCARD_ReadBlocks) for SDCARD_ReadBlocks
    bsp_sdio.o(i._Z13sdio_raw_testv) refers to sd_card.o(i.SDCARD_WriteBlocks) for SDCARD_WriteBlocks
    bsp_sdio.o(i._Z13sdio_raw_testv) refers to memcmp.o(.text) for memcmp
    bsp_sdio.o(i._Z13sdio_raw_testv) refers to bsp_sdio.o(.data) for stcSdhandle
    bsp_sdio.o(i._Z13sdio_raw_testv) refers to bsp_sdio.o(.bss) for au32ReadBlocks
    bsp_sdio.o(i._Z20sdio_controller_initv) refers to sd_card.o(i.SDCARD_Init) for SDCARD_Init
    bsp_sdio.o(i._Z20sdio_controller_initv) refers to bsp_sdio.o(.data) for stcSdhandle
    bsp_sdio.o(i._Z9sdio_readjPh) refers to sd_card.o(i.SDCARD_ReadBlocks) for SDCARD_ReadBlocks
    bsp_sdio.o(i._Z9sdio_readjPh) refers to bsp_sdio.o(.data) for stcSdhandle
    bsp_sdio.o(i._ZN34_INTERNAL_12_bsp_sdio_cpp_98f0653513SdiocInitPinsEv) refers to hc32f46x_gpio.o(i.PORT_SetFunc) for PORT_SetFunc
    bsp_sdio.o(.ARM.exidx) refers to bsp_sdio.o(i._Z20sdio_controller_initv) for i._Z20sdio_controller_initv
    bsp_sdio.o(.ARM.exidx) refers to bsp_sdio.o(i._ZN34_INTERNAL_12_bsp_sdio_cpp_98f0653513SdiocInitPinsEv) for i._ZN34_INTERNAL_12_bsp_sdio_cpp_98f0653513SdiocInitPinsEv
    bsp_sdio.o(.ARM.exidx) refers to bsp_sdio.o(i._Z13hal_sdio_initv) for i._Z13hal_sdio_initv
    bsp_sdio.o(.ARM.exidx) refers to bsp_sdio.o(i._Z10sdio_writejPKh) for i._Z10sdio_writejPKh
    bsp_sdio.o(.ARM.exidx) refers to bsp_sdio.o(i._Z9sdio_readjPh) for i._Z9sdio_readjPh
    bsp_sdio.o(.ARM.exidx) refers to bsp_sdio.o(i._Z13sdio_raw_testv) for i._Z13sdio_raw_testv
    bsp_spi_tft.o(i._Z10LCD_WR_REGh) refers to hc32f46x_gpio.o(i.PORT_ResetBits) for PORT_ResetBits
    bsp_spi_tft.o(i._Z10LCD_WR_REGh) refers to bsp_spi_tft.o(i._Z12LCD_Writ_Bush) for LCD_Writ_Bus(unsigned char)
    bsp_spi_tft.o(i._Z10LCD_WR_REGh) refers to bsp_spi_tft.o(i._Z8delay_mst) for delay_ms(unsigned short)
    bsp_spi_tft.o(i._Z10LCD_WR_REGh) refers to hc32f46x_gpio.o(i.PORT_SetBits) for PORT_SetBits
    bsp_spi_tft.o(i._Z11Draw_Circlettht) refers to bsp_spi_tft.o(i._Z13LCD_DrawPointttt) for LCD_DrawPoint(unsigned short, unsigned short, unsigned short)
    bsp_spi_tft.o(i._Z11LCD_WR_DATAt) refers to bsp_spi_tft.o(i._Z12LCD_Writ_Bush) for LCD_Writ_Bus(unsigned char)
    bsp_spi_tft.o(i._Z12LCD_DrawLinettttt) refers to bsp_spi_tft.o(i._Z13LCD_DrawPointttt) for LCD_DrawPoint(unsigned short, unsigned short, unsigned short)
    bsp_spi_tft.o(i._Z12LCD_WR_DATA8h) refers to bsp_spi_tft.o(i._Z12LCD_Writ_Bush) for LCD_Writ_Bus(unsigned char)
    bsp_spi_tft.o(i._Z12LCD_Writ_Bush) refers to hc32f46x_spi.o(i.SPI_SendData8) for SPI_SendData8
    bsp_spi_tft.o(i._Z12LCD_Writ_Bush) refers to hc32f46x_spi.o(i.SPI_GetFlag) for SPI_GetFlag
    bsp_spi_tft.o(i._Z13LCD_DrawPointttt) refers to bsp_spi_tft.o(i._Z15LCD_Address_Settttt) for LCD_Address_Set(unsigned short, unsigned short, unsigned short, unsigned short)
    bsp_spi_tft.o(i._Z13LCD_DrawPointttt) refers to bsp_spi_tft.o(i._Z11LCD_WR_DATAt) for LCD_WR_DATA(unsigned short)
    bsp_spi_tft.o(i._Z13LCD_GPIO_Initv) refers to hc32f46x_gpio.o(i.PORT_ResetBits) for PORT_ResetBits
    bsp_spi_tft.o(i._Z13LCD_GPIO_Initv) refers to hc32f46x_gpio.o(i.PORT_SetFunc) for PORT_SetFunc
    bsp_spi_tft.o(i._Z13LCD_GPIO_Initv) refers to hc32f46x_gpio.o(i.PORT_Init) for PORT_Init
    bsp_spi_tft.o(i._Z13LCD_GPIO_Initv) refers to hc32f46x_gpio.o(i.PORT_SetBits) for PORT_SetBits
    bsp_spi_tft.o(i._Z13LCD_GPIO_Initv) refers to memseta.o(.text) for __aeabi_memclr4
    bsp_spi_tft.o(i._Z13LCD_GPIO_Initv) refers to hc32f46x_pwc.o(i.PWC_Fcg1PeriphClockCmd) for PWC_Fcg1PeriphClockCmd
    bsp_spi_tft.o(i._Z13LCD_GPIO_Initv) refers to hc32f46x_spi.o(i.SPI_Init) for SPI_Init
    bsp_spi_tft.o(i._Z13LCD_GPIO_Initv) refers to hc32f46x_spi.o(i.SPI_Cmd) for SPI_Cmd
    bsp_spi_tft.o(i._Z14LCD_ShowIntNumttthtth) refers to bsp_spi_tft.o(i._Z5mypowhh) for mypow(unsigned char, unsigned char)
    bsp_spi_tft.o(i._Z14LCD_ShowIntNumttthtth) refers to bsp_spi_tft.o(i._Z12LCD_ShowChartthtthh) for LCD_ShowChar(unsigned short, unsigned short, unsigned char, unsigned short, unsigned short, unsigned char, unsigned char)
    bsp_spi_tft.o(i._Z14LCD_ShowStringttPKhtthh) refers to bsp_spi_tft.o(i._Z12LCD_ShowChartthtthh) for LCD_ShowChar(unsigned short, unsigned short, unsigned char, unsigned short, unsigned short, unsigned char, unsigned char)
    bsp_spi_tft.o(i._Z15LCD_Address_Settttt) refers to bsp_spi_tft.o(i._Z10LCD_WR_REGh) for LCD_WR_REG(unsigned char)
    bsp_spi_tft.o(i._Z15LCD_Address_Settttt) refers to bsp_spi_tft.o(i._Z11LCD_WR_DATAt) for LCD_WR_DATA(unsigned short)
    bsp_spi_tft.o(i._Z15LCD_ShowPicturettttPKh) refers to bsp_spi_tft.o(i._Z15LCD_Address_Settttt) for LCD_Address_Set(unsigned short, unsigned short, unsigned short, unsigned short)
    bsp_spi_tft.o(i._Z15LCD_ShowPicturettttPKh) refers to bsp_spi_tft.o(i._Z12LCD_WR_DATA8h) for LCD_WR_DATA8(unsigned char)
    bsp_spi_tft.o(i._Z17LCD_DrawRectanglettttt) refers to bsp_spi_tft.o(i._Z12LCD_DrawLinettttt) for LCD_DrawLine(unsigned short, unsigned short, unsigned short, unsigned short, unsigned short)
    bsp_spi_tft.o(i._Z17LCD_ShowFloatNum1ttfhtth) refers to bsp_spi_tft.o(i._Z5mypowhh) for mypow(unsigned char, unsigned char)
    bsp_spi_tft.o(i._Z17LCD_ShowFloatNum1ttfhtth) refers to bsp_spi_tft.o(i._Z12LCD_ShowChartthtthh) for LCD_ShowChar(unsigned short, unsigned short, unsigned char, unsigned short, unsigned short, unsigned char, unsigned char)
    bsp_spi_tft.o(i._Z17Show_logo_secreenv) refers to bsp_spi_tft.o(i._Z15LCD_Address_Settttt) for LCD_Address_Set(unsigned short, unsigned short, unsigned short, unsigned short)
    bsp_spi_tft.o(i._Z17Show_logo_secreenv) refers to bsp_spi_tft.o(i._Z11LCD_WR_DATAt) for LCD_WR_DATA(unsigned short)
    bsp_spi_tft.o(i._Z17Show_logo_secreenv) refers to bsp_spi_tft.o(.constdata) for _ac
    bsp_spi_tft.o(i._Z8LCD_Fillttttt) refers to bsp_spi_tft.o(i._Z15LCD_Address_Settttt) for LCD_Address_Set(unsigned short, unsigned short, unsigned short, unsigned short)
    bsp_spi_tft.o(i._Z8LCD_Fillttttt) refers to bsp_spi_tft.o(i._Z11LCD_WR_DATAt) for LCD_WR_DATA(unsigned short)
    bsp_spi_tft.o(i._Z8LCD_Initv) refers to bsp_spi_tft.o(i._Z13LCD_GPIO_Initv) for LCD_GPIO_Init()
    bsp_spi_tft.o(i._Z8LCD_Initv) refers to bsp_spi_tft.o(i._Z10LCD_WR_REGh) for LCD_WR_REG(unsigned char)
    bsp_spi_tft.o(i._Z8LCD_Initv) refers to hc32f46x_utility.o(i.Ddl_Delay1ms) for Ddl_Delay1ms
    bsp_spi_tft.o(i._Z8LCD_Initv) refers to bsp_spi_tft.o(i._Z12LCD_WR_DATA8h) for LCD_WR_DATA8(unsigned char)
    bsp_spi_tft.o(.ARM.exidx) refers to bsp_spi_tft.o(i._Z12LCD_Writ_Bush) for i._Z12LCD_Writ_Bush
    bsp_spi_tft.o(.ARM.exidx) refers to bsp_spi_tft.o(i._Z11LCD_WR_DATAt) for i._Z11LCD_WR_DATAt
    bsp_spi_tft.o(.ARM.exidx) refers to bsp_spi_tft.o(i._Z8delay_mst) for i._Z8delay_mst
    bsp_spi_tft.o(.ARM.exidx) refers to bsp_spi_tft.o(i._Z10LCD_WR_REGh) for i._Z10LCD_WR_REGh
    bsp_spi_tft.o(.ARM.exidx) refers to bsp_spi_tft.o(i._Z15LCD_Address_Settttt) for i._Z15LCD_Address_Settttt
    bsp_spi_tft.o(.ARM.exidx) refers to bsp_spi_tft.o(i._Z17Show_logo_secreenv) for i._Z17Show_logo_secreenv
    bsp_spi_tft.o(.ARM.exidx) refers to bsp_spi_tft.o(i._ZN37_INTERNAL_15_bsp_spi_tft_cpp_f5105d6a13Spi_DmaConfigEv) for i._ZN37_INTERNAL_15_bsp_spi_tft_cpp_f5105d6a13Spi_DmaConfigEv
    bsp_spi_tft.o(.ARM.exidx) refers to bsp_spi_tft.o(i._Z13LCD_GPIO_Initv) for i._Z13LCD_GPIO_Initv
    bsp_spi_tft.o(.ARM.exidx) refers to bsp_spi_tft.o(i._Z12LCD_WR_DATA8h) for i._Z12LCD_WR_DATA8h
    bsp_spi_tft.o(.ARM.exidx) refers to bsp_spi_tft.o(i._Z8LCD_Initv) for i._Z8LCD_Initv
    bsp_spi_tft.o(.ARM.exidx) refers to bsp_spi_tft.o(i._Z8LCD_Fillttttt) for i._Z8LCD_Fillttttt
    bsp_spi_tft.o(.ARM.exidx) refers to bsp_spi_tft.o(i._Z13LCD_DrawPointttt) for i._Z13LCD_DrawPointttt
    bsp_spi_tft.o(.ARM.exidx) refers to bsp_spi_tft.o(i._Z12LCD_DrawLinettttt) for i._Z12LCD_DrawLinettttt
    bsp_spi_tft.o(.ARM.exidx) refers to bsp_spi_tft.o(i._Z17LCD_DrawRectanglettttt) for i._Z17LCD_DrawRectanglettttt
    bsp_spi_tft.o(.ARM.exidx) refers to bsp_spi_tft.o(i._Z11Draw_Circlettht) for i._Z11Draw_Circlettht
    bsp_spi_tft.o(.ARM.exidx) refers to bsp_spi_tft.o(i._Z15LCD_ShowChinesettPhtthh) for i._Z15LCD_ShowChinesettPhtthh
    bsp_spi_tft.o(.ARM.exidx) refers to bsp_spi_tft.o(i._Z20LCD_ShowChinese12x12ttPhtthh) for i._Z20LCD_ShowChinese12x12ttPhtthh
    bsp_spi_tft.o(.ARM.exidx) refers to bsp_spi_tft.o(i._Z20LCD_ShowChinese16x16ttPhtthh) for i._Z20LCD_ShowChinese16x16ttPhtthh
    bsp_spi_tft.o(.ARM.exidx) refers to bsp_spi_tft.o(i._Z20LCD_ShowChinese24x24ttPhtthh) for i._Z20LCD_ShowChinese24x24ttPhtthh
    bsp_spi_tft.o(.ARM.exidx) refers to bsp_spi_tft.o(i._Z20LCD_ShowChinese32x32ttPhtthh) for i._Z20LCD_ShowChinese32x32ttPhtthh
    bsp_spi_tft.o(.ARM.exidx) refers to bsp_spi_tft.o(i._Z12LCD_ShowChartthtthh) for i._Z12LCD_ShowChartthtthh
    bsp_spi_tft.o(.ARM.exidx) refers to bsp_spi_tft.o(i._Z14LCD_ShowStringttPKhtthh) for i._Z14LCD_ShowStringttPKhtthh
    bsp_spi_tft.o(.ARM.exidx) refers to bsp_spi_tft.o(i._Z5mypowhh) for i._Z5mypowhh
    bsp_spi_tft.o(.ARM.exidx) refers to bsp_spi_tft.o(i._Z14LCD_ShowIntNumttthtth) for i._Z14LCD_ShowIntNumttthtth
    bsp_spi_tft.o(.ARM.exidx) refers to bsp_spi_tft.o(i._Z17LCD_ShowFloatNum1ttfhtth) for i._Z17LCD_ShowFloatNum1ttfhtth
    bsp_spi_tft.o(.ARM.exidx) refers to bsp_spi_tft.o(i._Z15LCD_ShowPicturettttPKh) for i._Z15LCD_ShowPicturettttPKh
    bsp_timer.o(i._Z12timer41_initv) refers to hc32f46x_pwc.o(i.PWC_Fcg2PeriphClockCmd) for PWC_Fcg2PeriphClockCmd
    bsp_timer.o(i._Z12timer41_initv) refers to hc32f46x_timer4_cnt.o(i.TIMER4_CNT_Init) for TIMER4_CNT_Init
    bsp_timer.o(i._Z12timer41_initv) refers to hc32f46x_interrupts.o(i.enIrqRegistration) for enIrqRegistration
    bsp_timer.o(i._Z12timer41_initv) refers to bsp_timer.o(i._ZN35_INTERNAL_13_bsp_timer_cpp_f2615aa418__NVIC_SetPriorityE4IRQnj) for [local to bsp_timer_cpp]::__NVIC_SetPriority(IRQn, unsigned)
    bsp_timer.o(i._Z12timer41_initv) refers to bsp_timer.o(i._ZN35_INTERNAL_13_bsp_timer_cpp_f2615aa422__NVIC_ClearPendingIRQE4IRQn) for [local to bsp_timer_cpp]::__NVIC_ClearPendingIRQ(IRQn)
    bsp_timer.o(i._Z12timer41_initv) refers to bsp_timer.o(i._ZN35_INTERNAL_13_bsp_timer_cpp_f2615aa416__NVIC_EnableIRQE4IRQn) for [local to bsp_timer_cpp]::__NVIC_EnableIRQ(IRQn)
    bsp_timer.o(i._Z12timer41_initv) refers to hc32f46x_timer4_cnt.o(i.TIMER4_CNT_ClearCountVal) for TIMER4_CNT_ClearCountVal
    bsp_timer.o(i._Z12timer41_initv) refers to hc32f46x_timer4_cnt.o(i.TIMER4_CNT_Start) for TIMER4_CNT_Start
    bsp_timer.o(i._Z12timer41_initv) refers to temperature.o(i._Z25timer41_zero_match_irq_cbv) for timer41_zero_match_irq_cb()
    bsp_timer.o(i._Z12timer42_initv) refers to hc32f46x_pwc.o(i.PWC_Fcg2PeriphClockCmd) for PWC_Fcg2PeriphClockCmd
    bsp_timer.o(i._Z12timer42_initv) refers to hc32f46x_timer4_cnt.o(i.TIMER4_CNT_Init) for TIMER4_CNT_Init
    bsp_timer.o(i._Z12timer42_initv) refers to hc32f46x_interrupts.o(i.enIrqRegistration) for enIrqRegistration
    bsp_timer.o(i._Z12timer42_initv) refers to bsp_timer.o(i._ZN35_INTERNAL_13_bsp_timer_cpp_f2615aa418__NVIC_SetPriorityE4IRQnj) for [local to bsp_timer_cpp]::__NVIC_SetPriority(IRQn, unsigned)
    bsp_timer.o(i._Z12timer42_initv) refers to bsp_timer.o(i._ZN35_INTERNAL_13_bsp_timer_cpp_f2615aa422__NVIC_ClearPendingIRQE4IRQn) for [local to bsp_timer_cpp]::__NVIC_ClearPendingIRQ(IRQn)
    bsp_timer.o(i._Z12timer42_initv) refers to bsp_timer.o(i._ZN35_INTERNAL_13_bsp_timer_cpp_f2615aa416__NVIC_EnableIRQE4IRQn) for [local to bsp_timer_cpp]::__NVIC_EnableIRQ(IRQn)
    bsp_timer.o(i._Z12timer42_initv) refers to hc32f46x_timer4_cnt.o(i.TIMER4_CNT_ClearCountVal) for TIMER4_CNT_ClearCountVal
    bsp_timer.o(i._Z12timer42_initv) refers to hc32f46x_timer4_cnt.o(i.TIMER4_CNT_Start) for TIMER4_CNT_Start
    bsp_timer.o(i._Z12timer42_initv) refers to stepper.o(i._Z25timer42_zero_match_irq_cbv) for timer42_zero_match_irq_cb()
    bsp_timer.o(i._Z13get_pclk1Freqv) refers to hc32f46x_clk.o(i.CLK_GetClockFreq) for CLK_GetClockFreq
    bsp_timer.o(i._Z13timer01B_initv) refers to hc32f46x_pwc.o(i.PWC_Fcg2PeriphClockCmd) for PWC_Fcg2PeriphClockCmd
    bsp_timer.o(i._Z13timer01B_initv) refers to hc32f46x_clk.o(i.CLK_GetClockFreq) for CLK_GetClockFreq
    bsp_timer.o(i._Z13timer01B_initv) refers to hc32f46x_timer0.o(i.TIMER0_BaseInit) for TIMER0_BaseInit
    bsp_timer.o(i._Z13timer01B_initv) refers to hc32f46x_interrupts.o(i.enIrqRegistration) for enIrqRegistration
    bsp_timer.o(i._Z13timer01B_initv) refers to bsp_timer.o(i._ZN35_INTERNAL_13_bsp_timer_cpp_f2615aa422__NVIC_ClearPendingIRQE4IRQn) for [local to bsp_timer_cpp]::__NVIC_ClearPendingIRQ(IRQn)
    bsp_timer.o(i._Z13timer01B_initv) refers to bsp_timer.o(i._ZN35_INTERNAL_13_bsp_timer_cpp_f2615aa418__NVIC_SetPriorityE4IRQnj) for [local to bsp_timer_cpp]::__NVIC_SetPriority(IRQn, unsigned)
    bsp_timer.o(i._Z13timer01B_initv) refers to bsp_timer.o(i._ZN35_INTERNAL_13_bsp_timer_cpp_f2615aa416__NVIC_EnableIRQE4IRQn) for [local to bsp_timer_cpp]::__NVIC_EnableIRQ(IRQn)
    bsp_timer.o(i._Z13timer01B_initv) refers to hc32f46x_timer0.o(i.TIMER0_IntCmd) for TIMER0_IntCmd
    bsp_timer.o(i._Z13timer01B_initv) refers to tone.o(i._Z17Timer01B_CallBackv) for Timer01B_CallBack()
    bsp_timer.o(i._Z13timer02A_initv) refers to hc32f46x_pwc.o(i.PWC_Fcg2PeriphClockCmd) for PWC_Fcg2PeriphClockCmd
    bsp_timer.o(i._Z13timer02A_initv) refers to hc32f46x_clk.o(i.CLK_GetClockFreq) for CLK_GetClockFreq
    bsp_timer.o(i._Z13timer02A_initv) refers to hc32f46x_timer0.o(i.TIMER0_BaseInit) for TIMER0_BaseInit
    bsp_timer.o(i._Z13timer02A_initv) refers to hc32f46x_interrupts.o(i.enIrqRegistration) for enIrqRegistration
    bsp_timer.o(i._Z13timer02A_initv) refers to bsp_timer.o(i._ZN35_INTERNAL_13_bsp_timer_cpp_f2615aa422__NVIC_ClearPendingIRQE4IRQn) for [local to bsp_timer_cpp]::__NVIC_ClearPendingIRQ(IRQn)
    bsp_timer.o(i._Z13timer02A_initv) refers to bsp_timer.o(i._ZN35_INTERNAL_13_bsp_timer_cpp_f2615aa418__NVIC_SetPriorityE4IRQnj) for [local to bsp_timer_cpp]::__NVIC_SetPriority(IRQn, unsigned)
    bsp_timer.o(i._Z13timer02A_initv) refers to bsp_timer.o(i._ZN35_INTERNAL_13_bsp_timer_cpp_f2615aa416__NVIC_EnableIRQE4IRQn) for [local to bsp_timer_cpp]::__NVIC_EnableIRQ(IRQn)
    bsp_timer.o(i._Z13timer02A_initv) refers to hc32f46x_timer0.o(i.TIMER0_IntCmd) for TIMER0_IntCmd
    bsp_timer.o(i._Z13timer02A_initv) refers to hc32f46x_timer0.o(i.TIMER0_Cmd) for TIMER0_Cmd
    bsp_timer.o(i._Z13timer02A_initv) refers to bsp_timer.o(i._Z17Timer02A_CallBackv) for Timer02A_CallBack()
    bsp_timer.o(i._Z13timer02B_initv) refers to hc32f46x_pwc.o(i.PWC_Fcg2PeriphClockCmd) for PWC_Fcg2PeriphClockCmd
    bsp_timer.o(i._Z13timer02B_initv) refers to hc32f46x_clk.o(i.CLK_GetClockFreq) for CLK_GetClockFreq
    bsp_timer.o(i._Z13timer02B_initv) refers to hc32f46x_timer0.o(i.TIMER0_BaseInit) for TIMER0_BaseInit
    bsp_timer.o(i._Z13timer02B_initv) refers to hc32f46x_interrupts.o(i.enIrqRegistration) for enIrqRegistration
    bsp_timer.o(i._Z13timer02B_initv) refers to bsp_timer.o(i._ZN35_INTERNAL_13_bsp_timer_cpp_f2615aa422__NVIC_ClearPendingIRQE4IRQn) for [local to bsp_timer_cpp]::__NVIC_ClearPendingIRQ(IRQn)
    bsp_timer.o(i._Z13timer02B_initv) refers to bsp_timer.o(i._ZN35_INTERNAL_13_bsp_timer_cpp_f2615aa418__NVIC_SetPriorityE4IRQnj) for [local to bsp_timer_cpp]::__NVIC_SetPriority(IRQn, unsigned)
    bsp_timer.o(i._Z13timer02B_initv) refers to bsp_timer.o(i._ZN35_INTERNAL_13_bsp_timer_cpp_f2615aa416__NVIC_EnableIRQE4IRQn) for [local to bsp_timer_cpp]::__NVIC_EnableIRQ(IRQn)
    bsp_timer.o(i._Z13timer02B_initv) refers to hc32f46x_timer0.o(i.TIMER0_IntCmd) for TIMER0_IntCmd
    bsp_timer.o(i._Z13timer02B_initv) refers to hc32f46x_timer0.o(i.TIMER0_Cmd) for TIMER0_Cmd
    bsp_timer.o(i._Z13timer02B_initv) refers to softwareserial.o(i._Z17Timer02B_CallBackv) for Timer02B_CallBack()
    bsp_timer.o(i._Z15timer01B_enablev) refers to hc32f46x_timer0.o(i.TIMER0_Cmd) for TIMER0_Cmd
    bsp_timer.o(i._Z16timer01B_disablev) refers to hc32f46x_timer0.o(i.TIMER0_Cmd) for TIMER0_Cmd
    bsp_timer.o(i._Z16timer42_irq_ctrl19en_functional_state) refers to bsp_timer.o(i._ZN35_INTERNAL_13_bsp_timer_cpp_f2615aa416__NVIC_EnableIRQE4IRQn) for [local to bsp_timer_cpp]::__NVIC_EnableIRQ(IRQn)
    bsp_timer.o(i._Z17Timer02A_CallBackv) refers to board_tim0.o(.data) for _millis
    bsp_timer.o(i._Z17servo_set_comparet) refers to hc32f46x_timera.o(i.TIMERA_GetPeriodValue) for TIMERA_GetPeriodValue
    bsp_timer.o(i._Z17servo_set_comparet) refers to hc32f46x_timera.o(i.TIMERA_SetCompareValue) for TIMERA_SetCompareValue
    bsp_timer.o(i._Z17timer42_get_countv) refers to hc32f46x_timer4_cnt.o(i.TIMER4_CNT_GetCountVal) for TIMER4_CNT_GetCountVal
    bsp_timer.o(i._Z18timer42_init_checkv) refers to hc32f46x_timer4_cnt.o(i.TIMER4_CNT_Load) for TIMER4_CNT_Load
    bsp_timer.o(i._Z19timer42_set_comparet) refers to hc32f46x_timer4_cnt.o(i.TIMER4_CNT_SetCycleVal) for TIMER4_CNT_SetCycleVal
    bsp_timer.o(i._Z20timerA2_bltouch_initv) refers to hc32f46x_pwc.o(i.PWC_Fcg2PeriphClockCmd) for PWC_Fcg2PeriphClockCmd
    bsp_timer.o(i._Z20timerA2_bltouch_initv) refers to hc32f46x_pwc.o(i.PWC_Fcg0PeriphClockCmd) for PWC_Fcg0PeriphClockCmd
    bsp_timer.o(i._Z20timerA2_bltouch_initv) refers to hc32f46x_gpio.o(i.PORT_SetFunc) for PORT_SetFunc
    bsp_timer.o(i._Z20timerA2_bltouch_initv) refers to hc32f46x_clk.o(i.CLK_GetClockFreq) for CLK_GetClockFreq
    bsp_timer.o(i._Z20timerA2_bltouch_initv) refers to hc32f46x_timera.o(i.TIMERA_BaseInit) for TIMERA_BaseInit
    bsp_timer.o(i._Z20timerA2_bltouch_initv) refers to hc32f46x_timera.o(i.TIMERA_CompareInit) for TIMERA_CompareInit
    bsp_timer.o(i._Z20timerA2_bltouch_initv) refers to hc32f46x_timera.o(i.TIMERA_CompareCmd) for TIMERA_CompareCmd
    bsp_timer.o(i._Z20timerA2_bltouch_initv) refers to hc32f46x_timera.o(i.TIMERA_HwStartupConfig) for TIMERA_HwStartupConfig
    bsp_timer.o(i._Z20timerA2_bltouch_initv) refers to hc32f46x_timera.o(i.TIMERA_Cmd) for TIMERA_Cmd
    bsp_timer.o(i._Z21timer01B_set_overflowt) refers to hc32f46x_clk.o(i.CLK_GetClockFreq) for CLK_GetClockFreq
    bsp_timer.o(i._Z21timer01B_set_overflowt) refers to hc32f46x_timer0.o(i.TIMER0_Cmd) for TIMER0_Cmd
    bsp_timer.o(i._Z21timer42_set_frequencyj) refers to hc32f46x_timer4_cnt.o(i.TIMER4_CNT_Load) for TIMER4_CNT_Load
    bsp_timer.o(i._Z21timer42_set_frequencyj) refers to bsp_timer.o(i._Z13get_pclk1Freqv) for get_pclk1Freq()
    bsp_timer.o(i._Z21timer42_set_frequencyj) refers to printfa.o(i.__0printf) for __2printf
    bsp_timer.o(i._Z21timer42_set_frequencyj) refers to hc32f46x_timer4_cnt.o(i.TIMER4_CNT_Init) for TIMER4_CNT_Init
    bsp_timer.o(i._Z21timer42_set_frequencyj) refers to hc32f46x_timer4_cnt.o(i.TIMER4_CNT_Start) for TIMER4_CNT_Start
    bsp_timer.o(.ARM.exidx) refers to bsp_timer.o(i._ZN35_INTERNAL_13_bsp_timer_cpp_f2615aa418__NVIC_SetPriorityE4IRQnj) for i._ZN35_INTERNAL_13_bsp_timer_cpp_f2615aa418__NVIC_SetPriorityE4IRQnj
    bsp_timer.o(.ARM.exidx) refers to bsp_timer.o(i._Z17Timer02A_CallBackv) for i._Z17Timer02A_CallBackv
    bsp_timer.o(.ARM.exidx) refers to bsp_timer.o(i._Z13timer02A_initv) for i._Z13timer02A_initv
    bsp_timer.o(.ARM.exidx) refers to bsp_timer.o(i._Z17servo_set_comparet) for i._Z17servo_set_comparet
    bsp_timer.o(.ARM.exidx) refers to bsp_timer.o(i._Z20timerA2_bltouch_initv) for i._Z20timerA2_bltouch_initv
    bsp_timer.o(.ARM.exidx) refers to bsp_timer.o(i._Z13timer01B_initv) for i._Z13timer01B_initv
    bsp_timer.o(.ARM.exidx) refers to bsp_timer.o(i._Z21timer01B_set_overflowt) for i._Z21timer01B_set_overflowt
    bsp_timer.o(.ARM.exidx) refers to bsp_timer.o(i._Z15timer01B_enablev) for i._Z15timer01B_enablev
    bsp_timer.o(.ARM.exidx) refers to bsp_timer.o(i._Z16timer01B_disablev) for i._Z16timer01B_disablev
    bsp_timer.o(.ARM.exidx) refers to bsp_timer.o(i._Z13timer02B_initv) for i._Z13timer02B_initv
    bsp_timer.o(.ARM.exidx) refers to bsp_timer.o(i._Z13get_pclk1Freqv) for i._Z13get_pclk1Freqv
    bsp_timer.o(.ARM.exidx) refers to bsp_timer.o(i._Z18set_timer_overflowt) for i._Z18set_timer_overflowt
    bsp_timer.o(.ARM.exidx) refers to bsp_timer.o(i._Z22set_timer_clk_prescale17en_tim0_clock_div) for i._Z22set_timer_clk_prescale17en_tim0_clock_div
    bsp_timer.o(.ARM.exidx) refers to bsp_timer.o(i._Z12timer41_initv) for i._Z12timer41_initv
    bsp_timer.o(.ARM.exidx) refers to bsp_timer.o(i._Z12timer42_initv) for i._Z12timer42_initv
    bsp_timer.o(.ARM.exidx) refers to bsp_timer.o(i._Z18timer42_init_checkv) for i._Z18timer42_init_checkv
    bsp_timer.o(.ARM.exidx) refers to bsp_timer.o(i._Z21timer42_set_frequencyj) for i._Z21timer42_set_frequencyj
    bsp_timer.o(.ARM.exidx) refers to bsp_timer.o(i._Z16timer42_irq_ctrl19en_functional_state) for i._Z16timer42_irq_ctrl19en_functional_state
    bsp_timer.o(.ARM.exidx) refers to bsp_timer.o(i._Z15timer42_irq_getv) for i._Z15timer42_irq_getv
    bsp_timer.o(.ARM.exidx) refers to bsp_timer.o(i._Z19timer42_set_comparet) for i._Z19timer42_set_comparet
    bsp_timer.o(.ARM.exidx) refers to bsp_timer.o(i._Z17timer42_get_countv) for i._Z17timer42_get_countv
    bsp_timer.o(.ARM.exidx) refers to bsp_timer.o(i._ZN35_INTERNAL_13_bsp_timer_cpp_f2615aa416__NVIC_EnableIRQE4IRQn) for i._ZN35_INTERNAL_13_bsp_timer_cpp_f2615aa416__NVIC_EnableIRQE4IRQn
    bsp_timer.o(.ARM.exidx) refers to bsp_timer.o(i._ZN35_INTERNAL_13_bsp_timer_cpp_f2615aa422__NVIC_ClearPendingIRQE4IRQn) for i._ZN35_INTERNAL_13_bsp_timer_cpp_f2615aa422__NVIC_ClearPendingIRQE4IRQn
    bsp_wdt.o(i._Z12bsp_wdt_initv) refers to hc32f46x_wdt.o(i.WDT_Init) for WDT_Init
    bsp_wdt.o(i._Z15bsp_wdt_refreshv) refers to hc32f46x_wdt.o(i.WDT_RefreshCounter) for WDT_RefreshCounter
    bsp_wdt.o(i._Z15bsp_wdt_refreshv) refers to printfa.o(i.__0printf) for __2printf
    bsp_wdt.o(i._Z15bsp_wdt_refreshv) refers to bsp_wdt.o(.constdata) for bsp_wdt_refresh()::__FUNCTION__
    bsp_wdt.o(.ARM.exidx) refers to bsp_wdt.o(i._Z12bsp_wdt_initv) for i._Z12bsp_wdt_initv
    bsp_wdt.o(.ARM.exidx) refers to bsp_wdt.o(i._Z15bsp_wdt_refreshv) for i._Z15bsp_wdt_refreshv
    sd_card.o(i.SDCARD_Erase) refers to hc32f46x_sdioc.o(i.SDIOC_GetResponse) for SDIOC_GetResponse
    sd_card.o(i.SDCARD_Erase) refers to sdmmc_cmd.o(i.SDMMC_Cmd32_EraseWrBlkStart) for SDMMC_Cmd32_EraseWrBlkStart
    sd_card.o(i.SDCARD_Erase) refers to sdmmc_cmd.o(i.SDMMC_Cmd33_EraseWrBlkEnd) for SDMMC_Cmd33_EraseWrBlkEnd
    sd_card.o(i.SDCARD_Erase) refers to sdmmc_cmd.o(i.SDMMC_Cmd38_Erase) for SDMMC_Cmd38_Erase
    sd_card.o(i.SDCARD_Erase) refers to sd_card.o(i._ZN30_INTERNAL_9_sd_card_c_c2602c0a22SdCardCheckReayForDataEP13stc_sd_handlej) for [local to sd_card_c]::SdCardCheckReayForData(stc_sd_handle*, unsigned)
    sd_card.o(i.SDCARD_Erase) refers to system_hc32f46x.o(.data) for SystemCoreClock
    sd_card.o(i.SDCARD_Init) refers to sd_card.o(i._ZN30_INTERNAL_9_sd_card_c_c2602c0a14SdCardInitHostEPK13stc_sd_handle) for [local to sd_card_c]::SdCardInitHost(const stc_sd_handle*)
    sd_card.o(i.SDCARD_Init) refers to sd_card.o(i._ZN30_INTERNAL_9_sd_card_c_c2602c0a13SdCardPowerONEP13stc_sd_handle) for [local to sd_card_c]::SdCardPowerON(stc_sd_handle*)
    sd_card.o(i.SDCARD_Init) refers to sd_card.o(i._ZN30_INTERNAL_9_sd_card_c_c2602c0a12SdCardInitSdEP13stc_sd_handle) for [local to sd_card_c]::SdCardInitSd(stc_sd_handle*)
    sd_card.o(i.SDCARD_Init) refers to sd_card.o(i._ZN30_INTERNAL_9_sd_card_c_c2602c0a17SdCardSetBusWidthEP13stc_sd_handle) for [local to sd_card_c]::SdCardSetBusWidth(stc_sd_handle*)
    sd_card.o(i.SDCARD_Init) refers to sd_card.o(i._ZN30_INTERNAL_9_sd_card_c_c2602c0a14SdCardSetSpeedEP13stc_sd_handle) for [local to sd_card_c]::SdCardSetSpeed(stc_sd_handle*)
    sd_card.o(i.SDCARD_ReadBlocks) refers to sd_card.o(i.SDCARD_GetDeviceMode) for SDCARD_GetDeviceMode
    sd_card.o(i.SDCARD_ReadBlocks) refers to sdmmc_cmd.o(i.SDMMC_Cmd16_SetBlockLength) for SDMMC_Cmd16_SetBlockLength
    sd_card.o(i.SDCARD_ReadBlocks) refers to hc32f46x_sdioc.o(i.SDIOC_ConfigData) for SDIOC_ConfigData
    sd_card.o(i.SDCARD_ReadBlocks) refers to sd_card.o(i._ZN30_INTERNAL_9_sd_card_c_c2602c0a16DmaSdiocRxConfigEP14M4_DMA_TypeDef14en_dma_channelP16M4_SDIOC_TypeDefPht) for [local to sd_card_c]::DmaSdiocRxConfig(M4_DMA_TypeDef*, en_dma_channel, M4_SDIOC_TypeDef*, unsigned char*, unsigned short)
    sd_card.o(i.SDCARD_ReadBlocks) refers to sdmmc_cmd.o(i.SDMMC_Cmd17_ReadSingleBlock) for SDMMC_Cmd17_ReadSingleBlock
    sd_card.o(i.SDCARD_ReadBlocks) refers to sdmmc_cmd.o(i.SDMMC_Cmd18_ReadMultipleBlock) for SDMMC_Cmd18_ReadMultipleBlock
    sd_card.o(i.SDCARD_ReadBlocks) refers to hc32f46x_sdioc.o(i.SDIOC_GetStatus) for SDIOC_GetStatus
    sd_card.o(i.SDCARD_ReadBlocks) refers to hc32f46x_sdioc.o(i.SDIOC_GetNormalIrqFlag) for SDIOC_GetNormalIrqFlag
    sd_card.o(i.SDCARD_ReadBlocks) refers to hc32f46x_sdioc.o(i.SDIOC_ReadBuffer) for SDIOC_ReadBuffer
    sd_card.o(i.SDCARD_ReadBlocks) refers to hc32f46x_sdioc.o(i.SDIOC_ClearNormalIrqFlag) for SDIOC_ClearNormalIrqFlag
    sd_card.o(i.SDCARD_ReadBlocks) refers to system_hc32f46x.o(.data) for SystemCoreClock
    sd_card.o(i.SDCARD_WriteBlocks) refers to sd_card.o(i.SDCARD_GetDeviceMode) for SDCARD_GetDeviceMode
    sd_card.o(i.SDCARD_WriteBlocks) refers to sdmmc_cmd.o(i.SDMMC_Cmd16_SetBlockLength) for SDMMC_Cmd16_SetBlockLength
    sd_card.o(i.SDCARD_WriteBlocks) refers to hc32f46x_sdioc.o(i.SDIOC_ConfigData) for SDIOC_ConfigData
    sd_card.o(i.SDCARD_WriteBlocks) refers to sd_card.o(i._ZN30_INTERNAL_9_sd_card_c_c2602c0a16DmaSdiocTxConfigEP14M4_DMA_TypeDef14en_dma_channelP16M4_SDIOC_TypeDefPht) for [local to sd_card_c]::DmaSdiocTxConfig(M4_DMA_TypeDef*, en_dma_channel, M4_SDIOC_TypeDef*, unsigned char*, unsigned short)
    sd_card.o(i.SDCARD_WriteBlocks) refers to sdmmc_cmd.o(i.SDMMC_Cmd24_WriteSingleBlock) for SDMMC_Cmd24_WriteSingleBlock
    sd_card.o(i.SDCARD_WriteBlocks) refers to sdmmc_cmd.o(i.SDMMC_Cmd25_WriteMultipleBlock) for SDMMC_Cmd25_WriteMultipleBlock
    sd_card.o(i.SDCARD_WriteBlocks) refers to hc32f46x_sdioc.o(i.SDIOC_GetStatus) for SDIOC_GetStatus
    sd_card.o(i.SDCARD_WriteBlocks) refers to hc32f46x_sdioc.o(i.SDIOC_GetNormalIrqFlag) for SDIOC_GetNormalIrqFlag
    sd_card.o(i.SDCARD_WriteBlocks) refers to hc32f46x_sdioc.o(i.SDIOC_WriteBuffer) for SDIOC_WriteBuffer
    sd_card.o(i.SDCARD_WriteBlocks) refers to hc32f46x_sdioc.o(i.SDIOC_ClearNormalIrqFlag) for SDIOC_ClearNormalIrqFlag
    sd_card.o(i.SDCARD_WriteBlocks) refers to sd_card.o(i._ZN30_INTERNAL_9_sd_card_c_c2602c0a22SdCardCheckReayForDataEP13stc_sd_handlej) for [local to sd_card_c]::SdCardCheckReayForData(stc_sd_handle*, unsigned)
    sd_card.o(i.SDCARD_WriteBlocks) refers to system_hc32f46x.o(.data) for SystemCoreClock
    sd_card.o(i._ZN30_INTERNAL_9_sd_card_c_c2602c0a12SdCardInitSdEP13stc_sd_handle) refers to sdmmc_cmd.o(i.SDMMC_Cmd2_AllSendCID) for SDMMC_Cmd2_AllSendCID
    sd_card.o(i._ZN30_INTERNAL_9_sd_card_c_c2602c0a12SdCardInitSdEP13stc_sd_handle) refers to sdmmc_cmd.o(i.SDMMC_Cmd3_SendRelativeAddr) for SDMMC_Cmd3_SendRelativeAddr
    sd_card.o(i._ZN30_INTERNAL_9_sd_card_c_c2602c0a12SdCardInitSdEP13stc_sd_handle) refers to sdmmc_cmd.o(i.SDMMC_Cmd9_SendCSD) for SDMMC_Cmd9_SendCSD
    sd_card.o(i._ZN30_INTERNAL_9_sd_card_c_c2602c0a12SdCardInitSdEP13stc_sd_handle) refers to sd_card.o(i.SDCARD_GetCardCSD) for SDCARD_GetCardCSD
    sd_card.o(i._ZN30_INTERNAL_9_sd_card_c_c2602c0a12SdCardInitSdEP13stc_sd_handle) refers to sdmmc_cmd.o(i.SDMMC_Cmd7_SelectDeselectCard) for SDMMC_Cmd7_SelectDeselectCard
    sd_card.o(i._ZN30_INTERNAL_9_sd_card_c_c2602c0a13SdCardPowerONEP13stc_sd_handle) refers to sdmmc_cmd.o(i.SDMMC_Cmd0_GoIdleState) for SDMMC_Cmd0_GoIdleState
    sd_card.o(i._ZN30_INTERNAL_9_sd_card_c_c2602c0a13SdCardPowerONEP13stc_sd_handle) refers to sdmmc_cmd.o(i.SDMMC_Cmd8_SendIfCond) for SDMMC_Cmd8_SendIfCond
    sd_card.o(i._ZN30_INTERNAL_9_sd_card_c_c2602c0a13SdCardPowerONEP13stc_sd_handle) refers to sdmmc_cmd.o(i.SDMMC_Cmd55_AppCmd) for SDMMC_Cmd55_AppCmd
    sd_card.o(i._ZN30_INTERNAL_9_sd_card_c_c2602c0a13SdCardPowerONEP13stc_sd_handle) refers to sdmmc_cmd.o(i.SDMMC_Acmd41_SdSendOpCond) for SDMMC_Acmd41_SdSendOpCond
    sd_card.o(i._ZN30_INTERNAL_9_sd_card_c_c2602c0a14SdCardInitHostEPK13stc_sd_handle) refers to hc32f46x_pwc.o(i.PWC_Fcg1PeriphClockCmd) for PWC_Fcg1PeriphClockCmd
    sd_card.o(i._ZN30_INTERNAL_9_sd_card_c_c2602c0a14SdCardInitHostEPK13stc_sd_handle) refers to hc32f46x_sdioc.o(i.SDIOC_SetMode) for SDIOC_SetMode
    sd_card.o(i._ZN30_INTERNAL_9_sd_card_c_c2602c0a14SdCardInitHostEPK13stc_sd_handle) refers to hc32f46x_sdioc.o(i.SDIOC_Init) for SDIOC_Init
    sd_card.o(i._ZN30_INTERNAL_9_sd_card_c_c2602c0a14SdCardSetSpeedEP13stc_sd_handle) refers to memseta.o(.text) for __aeabi_memclr4
    sd_card.o(i._ZN30_INTERNAL_9_sd_card_c_c2602c0a14SdCardSetSpeedEP13stc_sd_handle) refers to sdmmc_cmd.o(i.SDMMC_Cmd16_SetBlockLength) for SDMMC_Cmd16_SetBlockLength
    sd_card.o(i._ZN30_INTERNAL_9_sd_card_c_c2602c0a14SdCardSetSpeedEP13stc_sd_handle) refers to hc32f46x_sdioc.o(i.SDIOC_ConfigData) for SDIOC_ConfigData
    sd_card.o(i._ZN30_INTERNAL_9_sd_card_c_c2602c0a14SdCardSetSpeedEP13stc_sd_handle) refers to sdmmc_cmd.o(i.SDMMC_Cmd6_SwitchFunc) for SDMMC_Cmd6_SwitchFunc
    sd_card.o(i._ZN30_INTERNAL_9_sd_card_c_c2602c0a14SdCardSetSpeedEP13stc_sd_handle) refers to hc32f46x_sdioc.o(i.SDIOC_GetStatus) for SDIOC_GetStatus
    sd_card.o(i._ZN30_INTERNAL_9_sd_card_c_c2602c0a14SdCardSetSpeedEP13stc_sd_handle) refers to hc32f46x_sdioc.o(i.SDIOC_GetNormalIrqFlag) for SDIOC_GetNormalIrqFlag
    sd_card.o(i._ZN30_INTERNAL_9_sd_card_c_c2602c0a14SdCardSetSpeedEP13stc_sd_handle) refers to hc32f46x_sdioc.o(i.SDIOC_ReadBuffer) for SDIOC_ReadBuffer
    sd_card.o(i._ZN30_INTERNAL_9_sd_card_c_c2602c0a14SdCardSetSpeedEP13stc_sd_handle) refers to hc32f46x_sdioc.o(i.SDIOC_ClearNormalIrqFlag) for SDIOC_ClearNormalIrqFlag
    sd_card.o(i._ZN30_INTERNAL_9_sd_card_c_c2602c0a14SdCardSetSpeedEP13stc_sd_handle) refers to hc32f46x_sdioc.o(i.SDIOC_SetSpeedMode) for SDIOC_SetSpeedMode
    sd_card.o(i._ZN30_INTERNAL_9_sd_card_c_c2602c0a14SdCardSetSpeedEP13stc_sd_handle) refers to hc32f46x_sdioc.o(i.SDIOC_SetClk) for SDIOC_SetClk
    sd_card.o(i._ZN30_INTERNAL_9_sd_card_c_c2602c0a14SdCardSetSpeedEP13stc_sd_handle) refers to system_hc32f46x.o(.data) for SystemCoreClock
    sd_card.o(i._ZN30_INTERNAL_9_sd_card_c_c2602c0a16DmaSdiocRxConfigEP14M4_DMA_TypeDef14en_dma_channelP16M4_SDIOC_TypeDefPht) refers to hc32f46x_pwc.o(i.PWC_Fcg0PeriphClockCmd) for PWC_Fcg0PeriphClockCmd
    sd_card.o(i._ZN30_INTERNAL_9_sd_card_c_c2602c0a16DmaSdiocRxConfigEP14M4_DMA_TypeDef14en_dma_channelP16M4_SDIOC_TypeDefPht) refers to hc32f46x_dmac.o(i.DMA_Cmd) for DMA_Cmd
    sd_card.o(i._ZN30_INTERNAL_9_sd_card_c_c2602c0a16DmaSdiocRxConfigEP14M4_DMA_TypeDef14en_dma_channelP16M4_SDIOC_TypeDefPht) refers to memseta.o(.text) for __aeabi_memclr4
    sd_card.o(i._ZN30_INTERNAL_9_sd_card_c_c2602c0a16DmaSdiocRxConfigEP14M4_DMA_TypeDef14en_dma_channelP16M4_SDIOC_TypeDefPht) refers to hc32f46x_dmac.o(i.DMA_InitChannel) for DMA_InitChannel
    sd_card.o(i._ZN30_INTERNAL_9_sd_card_c_c2602c0a16DmaSdiocRxConfigEP14M4_DMA_TypeDef14en_dma_channelP16M4_SDIOC_TypeDefPht) refers to hc32f46x_dmac.o(i.DMA_ChannelCmd) for DMA_ChannelCmd
    sd_card.o(i._ZN30_INTERNAL_9_sd_card_c_c2602c0a16DmaSdiocRxConfigEP14M4_DMA_TypeDef14en_dma_channelP16M4_SDIOC_TypeDefPht) refers to hc32f46x_dmac.o(i.DMA_ClearIrqFlag) for DMA_ClearIrqFlag
    sd_card.o(i._ZN30_INTERNAL_9_sd_card_c_c2602c0a16DmaSdiocRxConfigEP14M4_DMA_TypeDef14en_dma_channelP16M4_SDIOC_TypeDefPht) refers to hc32f46x_dmac.o(i.DMA_SetTriggerSrc) for DMA_SetTriggerSrc
    sd_card.o(i._ZN30_INTERNAL_9_sd_card_c_c2602c0a16DmaSdiocTxConfigEP14M4_DMA_TypeDef14en_dma_channelP16M4_SDIOC_TypeDefPht) refers to hc32f46x_pwc.o(i.PWC_Fcg0PeriphClockCmd) for PWC_Fcg0PeriphClockCmd
    sd_card.o(i._ZN30_INTERNAL_9_sd_card_c_c2602c0a16DmaSdiocTxConfigEP14M4_DMA_TypeDef14en_dma_channelP16M4_SDIOC_TypeDefPht) refers to hc32f46x_dmac.o(i.DMA_Cmd) for DMA_Cmd
    sd_card.o(i._ZN30_INTERNAL_9_sd_card_c_c2602c0a16DmaSdiocTxConfigEP14M4_DMA_TypeDef14en_dma_channelP16M4_SDIOC_TypeDefPht) refers to memseta.o(.text) for __aeabi_memclr4
    sd_card.o(i._ZN30_INTERNAL_9_sd_card_c_c2602c0a16DmaSdiocTxConfigEP14M4_DMA_TypeDef14en_dma_channelP16M4_SDIOC_TypeDefPht) refers to hc32f46x_dmac.o(i.DMA_InitChannel) for DMA_InitChannel
    sd_card.o(i._ZN30_INTERNAL_9_sd_card_c_c2602c0a16DmaSdiocTxConfigEP14M4_DMA_TypeDef14en_dma_channelP16M4_SDIOC_TypeDefPht) refers to hc32f46x_dmac.o(i.DMA_ChannelCmd) for DMA_ChannelCmd
    sd_card.o(i._ZN30_INTERNAL_9_sd_card_c_c2602c0a16DmaSdiocTxConfigEP14M4_DMA_TypeDef14en_dma_channelP16M4_SDIOC_TypeDefPht) refers to hc32f46x_dmac.o(i.DMA_ClearIrqFlag) for DMA_ClearIrqFlag
    sd_card.o(i._ZN30_INTERNAL_9_sd_card_c_c2602c0a16DmaSdiocTxConfigEP14M4_DMA_TypeDef14en_dma_channelP16M4_SDIOC_TypeDefPht) refers to hc32f46x_dmac.o(i.DMA_SetTriggerSrc) for DMA_SetTriggerSrc
    sd_card.o(i._ZN30_INTERNAL_9_sd_card_c_c2602c0a17SdCardSetBusWidthEP13stc_sd_handle) refers to sdmmc_cmd.o(i.SDMMC_Cmd55_AppCmd) for SDMMC_Cmd55_AppCmd
    sd_card.o(i._ZN30_INTERNAL_9_sd_card_c_c2602c0a17SdCardSetBusWidthEP13stc_sd_handle) refers to sdmmc_cmd.o(i.SDMMC_Acmd6_SetBusWidth) for SDMMC_Acmd6_SetBusWidth
    sd_card.o(i._ZN30_INTERNAL_9_sd_card_c_c2602c0a17SdCardSetBusWidthEP13stc_sd_handle) refers to hc32f46x_sdioc.o(i.SDIOC_SetBusWidth) for SDIOC_SetBusWidth
    sd_card.o(i._ZN30_INTERNAL_9_sd_card_c_c2602c0a22SdCardCheckReayForDataEP13stc_sd_handlej) refers to sdmmc_cmd.o(i.SDMMC_Cmd13_SendStatus) for SDMMC_Cmd13_SendStatus
    sd_card.o(.ARM.exidx) refers to sd_card.o(i._ZN30_INTERNAL_9_sd_card_c_c2602c0a14SdCardSetSpeedEP13stc_sd_handle) for i._ZN30_INTERNAL_9_sd_card_c_c2602c0a14SdCardSetSpeedEP13stc_sd_handle
    sd_card.o(.ARM.exidx) refers to sd_card.o(i._ZN30_INTERNAL_9_sd_card_c_c2602c0a17SdCardSetBusWidthEP13stc_sd_handle) for i._ZN30_INTERNAL_9_sd_card_c_c2602c0a17SdCardSetBusWidthEP13stc_sd_handle
    sd_card.o(.ARM.exidx) refers to sd_card.o(i.SDCARD_GetCardCSD) for i.SDCARD_GetCardCSD
    sd_card.o(.ARM.exidx) refers to sd_card.o(i._ZN30_INTERNAL_9_sd_card_c_c2602c0a12SdCardInitSdEP13stc_sd_handle) for i._ZN30_INTERNAL_9_sd_card_c_c2602c0a12SdCardInitSdEP13stc_sd_handle
    sd_card.o(.ARM.exidx) refers to sd_card.o(i._ZN30_INTERNAL_9_sd_card_c_c2602c0a13SdCardPowerONEP13stc_sd_handle) for i._ZN30_INTERNAL_9_sd_card_c_c2602c0a13SdCardPowerONEP13stc_sd_handle
    sd_card.o(.ARM.exidx) refers to sd_card.o(i._ZN30_INTERNAL_9_sd_card_c_c2602c0a14SdCardInitHostEPK13stc_sd_handle) for i._ZN30_INTERNAL_9_sd_card_c_c2602c0a14SdCardInitHostEPK13stc_sd_handle
    sd_card.o(.ARM.exidx) refers to sd_card.o(i.SDCARD_Init) for i.SDCARD_Init
    sd_card.o(.ARM.exidx) refers to sd_card.o(i.SDCARD_SetDeviceMode) for i.SDCARD_SetDeviceMode
    sd_card.o(.ARM.exidx) refers to sd_card.o(i.SDCARD_GetDeviceMode) for i.SDCARD_GetDeviceMode
    sd_card.o(.ARM.exidx) refers to sd_card.o(i._ZN30_INTERNAL_9_sd_card_c_c2602c0a22SdCardCheckReayForDataEP13stc_sd_handlej) for i._ZN30_INTERNAL_9_sd_card_c_c2602c0a22SdCardCheckReayForDataEP13stc_sd_handlej
    sd_card.o(.ARM.exidx) refers to sd_card.o(i.SDCARD_Erase) for i.SDCARD_Erase
    sd_card.o(.ARM.exidx) refers to sd_card.o(i._ZN30_INTERNAL_9_sd_card_c_c2602c0a16DmaSdiocRxConfigEP14M4_DMA_TypeDef14en_dma_channelP16M4_SDIOC_TypeDefPht) for i._ZN30_INTERNAL_9_sd_card_c_c2602c0a16DmaSdiocRxConfigEP14M4_DMA_TypeDef14en_dma_channelP16M4_SDIOC_TypeDefPht
    sd_card.o(.ARM.exidx) refers to sd_card.o(i.SDCARD_ReadBlocks) for i.SDCARD_ReadBlocks
    sd_card.o(.ARM.exidx) refers to sd_card.o(i._ZN30_INTERNAL_9_sd_card_c_c2602c0a16DmaSdiocTxConfigEP14M4_DMA_TypeDef14en_dma_channelP16M4_SDIOC_TypeDefPht) for i._ZN30_INTERNAL_9_sd_card_c_c2602c0a16DmaSdiocTxConfigEP14M4_DMA_TypeDef14en_dma_channelP16M4_SDIOC_TypeDefPht
    sd_card.o(.ARM.exidx) refers to sd_card.o(i.SDCARD_WriteBlocks) for i.SDCARD_WriteBlocks
    sdmmc_cmd.o(i.SDMMC_Acmd13_SdStatus) refers to sdmmc_cmd.o(i._ZN33_INTERNAL_11_sdmmc_cmd_c_1dd5230f17SDMMC_WaitBusIdleEP16M4_SDIOC_TypeDef) for [local to sdmmc_cmd_c]::SDMMC_WaitBusIdle(M4_SDIOC_TypeDef*)
    sdmmc_cmd.o(i.SDMMC_Acmd13_SdStatus) refers to hc32f46x_sdioc.o(i.SDIOC_SendCommand) for SDIOC_SendCommand
    sdmmc_cmd.o(i.SDMMC_Acmd13_SdStatus) refers to sdmmc_cmd.o(i._ZN33_INTERNAL_11_sdmmc_cmd_c_1dd5230f17SDMMC_GetCmdResp1EP16M4_SDIOC_TypeDefPjj) for [local to sdmmc_cmd_c]::SDMMC_GetCmdResp1(M4_SDIOC_TypeDef*, unsigned*, unsigned)
    sdmmc_cmd.o(i.SDMMC_Acmd41_SdSendOpCond) refers to sdmmc_cmd.o(i._ZN33_INTERNAL_11_sdmmc_cmd_c_1dd5230f17SDMMC_WaitBusIdleEP16M4_SDIOC_TypeDef) for [local to sdmmc_cmd_c]::SDMMC_WaitBusIdle(M4_SDIOC_TypeDef*)
    sdmmc_cmd.o(i.SDMMC_Acmd41_SdSendOpCond) refers to hc32f46x_sdioc.o(i.SDIOC_SendCommand) for SDIOC_SendCommand
    sdmmc_cmd.o(i.SDMMC_Acmd41_SdSendOpCond) refers to sdmmc_cmd.o(i._ZN33_INTERNAL_11_sdmmc_cmd_c_1dd5230f17SDMMC_GetCmdResp3EP16M4_SDIOC_TypeDefPj) for [local to sdmmc_cmd_c]::SDMMC_GetCmdResp3(M4_SDIOC_TypeDef*, unsigned*)
    sdmmc_cmd.o(i.SDMMC_Acmd51_SendSCR) refers to sdmmc_cmd.o(i._ZN33_INTERNAL_11_sdmmc_cmd_c_1dd5230f17SDMMC_WaitBusIdleEP16M4_SDIOC_TypeDef) for [local to sdmmc_cmd_c]::SDMMC_WaitBusIdle(M4_SDIOC_TypeDef*)
    sdmmc_cmd.o(i.SDMMC_Acmd51_SendSCR) refers to hc32f46x_sdioc.o(i.SDIOC_SendCommand) for SDIOC_SendCommand
    sdmmc_cmd.o(i.SDMMC_Acmd51_SendSCR) refers to sdmmc_cmd.o(i._ZN33_INTERNAL_11_sdmmc_cmd_c_1dd5230f17SDMMC_GetCmdResp1EP16M4_SDIOC_TypeDefPjj) for [local to sdmmc_cmd_c]::SDMMC_GetCmdResp1(M4_SDIOC_TypeDef*, unsigned*, unsigned)
    sdmmc_cmd.o(i.SDMMC_Acmd6_SetBusWidth) refers to sdmmc_cmd.o(i._ZN33_INTERNAL_11_sdmmc_cmd_c_1dd5230f17SDMMC_WaitBusIdleEP16M4_SDIOC_TypeDef) for [local to sdmmc_cmd_c]::SDMMC_WaitBusIdle(M4_SDIOC_TypeDef*)
    sdmmc_cmd.o(i.SDMMC_Acmd6_SetBusWidth) refers to hc32f46x_sdioc.o(i.SDIOC_SendCommand) for SDIOC_SendCommand
    sdmmc_cmd.o(i.SDMMC_Acmd6_SetBusWidth) refers to sdmmc_cmd.o(i._ZN33_INTERNAL_11_sdmmc_cmd_c_1dd5230f17SDMMC_GetCmdResp1EP16M4_SDIOC_TypeDefPjj) for [local to sdmmc_cmd_c]::SDMMC_GetCmdResp1(M4_SDIOC_TypeDef*, unsigned*, unsigned)
    sdmmc_cmd.o(i.SDMMC_Cmd0_GoIdleState) refers to sdmmc_cmd.o(i._ZN33_INTERNAL_11_sdmmc_cmd_c_1dd5230f17SDMMC_WaitBusIdleEP16M4_SDIOC_TypeDef) for [local to sdmmc_cmd_c]::SDMMC_WaitBusIdle(M4_SDIOC_TypeDef*)
    sdmmc_cmd.o(i.SDMMC_Cmd0_GoIdleState) refers to hc32f46x_sdioc.o(i.SDIOC_SendCommand) for SDIOC_SendCommand
    sdmmc_cmd.o(i.SDMMC_Cmd0_GoIdleState) refers to sdmmc_cmd.o(i._ZN33_INTERNAL_11_sdmmc_cmd_c_1dd5230f18SDMMC_WaitResponseEP16M4_SDIOC_TypeDefj) for [local to sdmmc_cmd_c]::SDMMC_WaitResponse(M4_SDIOC_TypeDef*, unsigned)
    sdmmc_cmd.o(i.SDMMC_Cmd10_SendCID) refers to sdmmc_cmd.o(i._ZN33_INTERNAL_11_sdmmc_cmd_c_1dd5230f17SDMMC_WaitBusIdleEP16M4_SDIOC_TypeDef) for [local to sdmmc_cmd_c]::SDMMC_WaitBusIdle(M4_SDIOC_TypeDef*)
    sdmmc_cmd.o(i.SDMMC_Cmd10_SendCID) refers to hc32f46x_sdioc.o(i.SDIOC_SendCommand) for SDIOC_SendCommand
    sdmmc_cmd.o(i.SDMMC_Cmd10_SendCID) refers to sdmmc_cmd.o(i._ZN33_INTERNAL_11_sdmmc_cmd_c_1dd5230f17SDMMC_GetCmdResp2EP16M4_SDIOC_TypeDefPj) for [local to sdmmc_cmd_c]::SDMMC_GetCmdResp2(M4_SDIOC_TypeDef*, unsigned*)
    sdmmc_cmd.o(i.SDMMC_Cmd12_StopTransmission) refers to sdmmc_cmd.o(i._ZN33_INTERNAL_11_sdmmc_cmd_c_1dd5230f17SDMMC_WaitBusIdleEP16M4_SDIOC_TypeDef) for [local to sdmmc_cmd_c]::SDMMC_WaitBusIdle(M4_SDIOC_TypeDef*)
    sdmmc_cmd.o(i.SDMMC_Cmd12_StopTransmission) refers to hc32f46x_sdioc.o(i.SDIOC_SendCommand) for SDIOC_SendCommand
    sdmmc_cmd.o(i.SDMMC_Cmd12_StopTransmission) refers to sdmmc_cmd.o(i._ZN33_INTERNAL_11_sdmmc_cmd_c_1dd5230f17SDMMC_GetCmdResp1EP16M4_SDIOC_TypeDefPjj) for [local to sdmmc_cmd_c]::SDMMC_GetCmdResp1(M4_SDIOC_TypeDef*, unsigned*, unsigned)
    sdmmc_cmd.o(i.SDMMC_Cmd13_SendStatus) refers to sdmmc_cmd.o(i._ZN33_INTERNAL_11_sdmmc_cmd_c_1dd5230f17SDMMC_WaitBusIdleEP16M4_SDIOC_TypeDef) for [local to sdmmc_cmd_c]::SDMMC_WaitBusIdle(M4_SDIOC_TypeDef*)
    sdmmc_cmd.o(i.SDMMC_Cmd13_SendStatus) refers to hc32f46x_sdioc.o(i.SDIOC_SendCommand) for SDIOC_SendCommand
    sdmmc_cmd.o(i.SDMMC_Cmd13_SendStatus) refers to sdmmc_cmd.o(i._ZN33_INTERNAL_11_sdmmc_cmd_c_1dd5230f17SDMMC_GetCmdResp1EP16M4_SDIOC_TypeDefPjj) for [local to sdmmc_cmd_c]::SDMMC_GetCmdResp1(M4_SDIOC_TypeDef*, unsigned*, unsigned)
    sdmmc_cmd.o(i.SDMMC_Cmd16_SetBlockLength) refers to sdmmc_cmd.o(i._ZN33_INTERNAL_11_sdmmc_cmd_c_1dd5230f17SDMMC_WaitBusIdleEP16M4_SDIOC_TypeDef) for [local to sdmmc_cmd_c]::SDMMC_WaitBusIdle(M4_SDIOC_TypeDef*)
    sdmmc_cmd.o(i.SDMMC_Cmd16_SetBlockLength) refers to hc32f46x_sdioc.o(i.SDIOC_SendCommand) for SDIOC_SendCommand
    sdmmc_cmd.o(i.SDMMC_Cmd16_SetBlockLength) refers to sdmmc_cmd.o(i._ZN33_INTERNAL_11_sdmmc_cmd_c_1dd5230f17SDMMC_GetCmdResp1EP16M4_SDIOC_TypeDefPjj) for [local to sdmmc_cmd_c]::SDMMC_GetCmdResp1(M4_SDIOC_TypeDef*, unsigned*, unsigned)
    sdmmc_cmd.o(i.SDMMC_Cmd17_ReadSingleBlock) refers to sdmmc_cmd.o(i._ZN33_INTERNAL_11_sdmmc_cmd_c_1dd5230f17SDMMC_WaitBusIdleEP16M4_SDIOC_TypeDef) for [local to sdmmc_cmd_c]::SDMMC_WaitBusIdle(M4_SDIOC_TypeDef*)
    sdmmc_cmd.o(i.SDMMC_Cmd17_ReadSingleBlock) refers to hc32f46x_sdioc.o(i.SDIOC_SendCommand) for SDIOC_SendCommand
    sdmmc_cmd.o(i.SDMMC_Cmd17_ReadSingleBlock) refers to sdmmc_cmd.o(i._ZN33_INTERNAL_11_sdmmc_cmd_c_1dd5230f17SDMMC_GetCmdResp1EP16M4_SDIOC_TypeDefPjj) for [local to sdmmc_cmd_c]::SDMMC_GetCmdResp1(M4_SDIOC_TypeDef*, unsigned*, unsigned)
    sdmmc_cmd.o(i.SDMMC_Cmd18_ReadMultipleBlock) refers to sdmmc_cmd.o(i._ZN33_INTERNAL_11_sdmmc_cmd_c_1dd5230f17SDMMC_WaitBusIdleEP16M4_SDIOC_TypeDef) for [local to sdmmc_cmd_c]::SDMMC_WaitBusIdle(M4_SDIOC_TypeDef*)
    sdmmc_cmd.o(i.SDMMC_Cmd18_ReadMultipleBlock) refers to hc32f46x_sdioc.o(i.SDIOC_SendCommand) for SDIOC_SendCommand
    sdmmc_cmd.o(i.SDMMC_Cmd18_ReadMultipleBlock) refers to sdmmc_cmd.o(i._ZN33_INTERNAL_11_sdmmc_cmd_c_1dd5230f17SDMMC_GetCmdResp1EP16M4_SDIOC_TypeDefPjj) for [local to sdmmc_cmd_c]::SDMMC_GetCmdResp1(M4_SDIOC_TypeDef*, unsigned*, unsigned)
    sdmmc_cmd.o(i.SDMMC_Cmd1_SendOpCond) refers to sdmmc_cmd.o(i._ZN33_INTERNAL_11_sdmmc_cmd_c_1dd5230f17SDMMC_WaitBusIdleEP16M4_SDIOC_TypeDef) for [local to sdmmc_cmd_c]::SDMMC_WaitBusIdle(M4_SDIOC_TypeDef*)
    sdmmc_cmd.o(i.SDMMC_Cmd1_SendOpCond) refers to hc32f46x_sdioc.o(i.SDIOC_SendCommand) for SDIOC_SendCommand
    sdmmc_cmd.o(i.SDMMC_Cmd1_SendOpCond) refers to sdmmc_cmd.o(i._ZN33_INTERNAL_11_sdmmc_cmd_c_1dd5230f17SDMMC_GetCmdResp3EP16M4_SDIOC_TypeDefPj) for [local to sdmmc_cmd_c]::SDMMC_GetCmdResp3(M4_SDIOC_TypeDef*, unsigned*)
    sdmmc_cmd.o(i.SDMMC_Cmd24_WriteSingleBlock) refers to sdmmc_cmd.o(i._ZN33_INTERNAL_11_sdmmc_cmd_c_1dd5230f17SDMMC_WaitBusIdleEP16M4_SDIOC_TypeDef) for [local to sdmmc_cmd_c]::SDMMC_WaitBusIdle(M4_SDIOC_TypeDef*)
    sdmmc_cmd.o(i.SDMMC_Cmd24_WriteSingleBlock) refers to hc32f46x_sdioc.o(i.SDIOC_SendCommand) for SDIOC_SendCommand
    sdmmc_cmd.o(i.SDMMC_Cmd24_WriteSingleBlock) refers to sdmmc_cmd.o(i._ZN33_INTERNAL_11_sdmmc_cmd_c_1dd5230f17SDMMC_GetCmdResp1EP16M4_SDIOC_TypeDefPjj) for [local to sdmmc_cmd_c]::SDMMC_GetCmdResp1(M4_SDIOC_TypeDef*, unsigned*, unsigned)
    sdmmc_cmd.o(i.SDMMC_Cmd25_WriteMultipleBlock) refers to sdmmc_cmd.o(i._ZN33_INTERNAL_11_sdmmc_cmd_c_1dd5230f17SDMMC_WaitBusIdleEP16M4_SDIOC_TypeDef) for [local to sdmmc_cmd_c]::SDMMC_WaitBusIdle(M4_SDIOC_TypeDef*)
    sdmmc_cmd.o(i.SDMMC_Cmd25_WriteMultipleBlock) refers to hc32f46x_sdioc.o(i.SDIOC_SendCommand) for SDIOC_SendCommand
    sdmmc_cmd.o(i.SDMMC_Cmd25_WriteMultipleBlock) refers to sdmmc_cmd.o(i._ZN33_INTERNAL_11_sdmmc_cmd_c_1dd5230f17SDMMC_GetCmdResp1EP16M4_SDIOC_TypeDefPjj) for [local to sdmmc_cmd_c]::SDMMC_GetCmdResp1(M4_SDIOC_TypeDef*, unsigned*, unsigned)
    sdmmc_cmd.o(i.SDMMC_Cmd2_AllSendCID) refers to sdmmc_cmd.o(i._ZN33_INTERNAL_11_sdmmc_cmd_c_1dd5230f17SDMMC_WaitBusIdleEP16M4_SDIOC_TypeDef) for [local to sdmmc_cmd_c]::SDMMC_WaitBusIdle(M4_SDIOC_TypeDef*)
    sdmmc_cmd.o(i.SDMMC_Cmd2_AllSendCID) refers to hc32f46x_sdioc.o(i.SDIOC_SendCommand) for SDIOC_SendCommand
    sdmmc_cmd.o(i.SDMMC_Cmd2_AllSendCID) refers to sdmmc_cmd.o(i._ZN33_INTERNAL_11_sdmmc_cmd_c_1dd5230f17SDMMC_GetCmdResp2EP16M4_SDIOC_TypeDefPj) for [local to sdmmc_cmd_c]::SDMMC_GetCmdResp2(M4_SDIOC_TypeDef*, unsigned*)
    sdmmc_cmd.o(i.SDMMC_Cmd32_EraseWrBlkStart) refers to sdmmc_cmd.o(i._ZN33_INTERNAL_11_sdmmc_cmd_c_1dd5230f17SDMMC_WaitBusIdleEP16M4_SDIOC_TypeDef) for [local to sdmmc_cmd_c]::SDMMC_WaitBusIdle(M4_SDIOC_TypeDef*)
    sdmmc_cmd.o(i.SDMMC_Cmd32_EraseWrBlkStart) refers to hc32f46x_sdioc.o(i.SDIOC_SendCommand) for SDIOC_SendCommand
    sdmmc_cmd.o(i.SDMMC_Cmd32_EraseWrBlkStart) refers to sdmmc_cmd.o(i._ZN33_INTERNAL_11_sdmmc_cmd_c_1dd5230f17SDMMC_GetCmdResp1EP16M4_SDIOC_TypeDefPjj) for [local to sdmmc_cmd_c]::SDMMC_GetCmdResp1(M4_SDIOC_TypeDef*, unsigned*, unsigned)
    sdmmc_cmd.o(i.SDMMC_Cmd33_EraseWrBlkEnd) refers to sdmmc_cmd.o(i._ZN33_INTERNAL_11_sdmmc_cmd_c_1dd5230f17SDMMC_WaitBusIdleEP16M4_SDIOC_TypeDef) for [local to sdmmc_cmd_c]::SDMMC_WaitBusIdle(M4_SDIOC_TypeDef*)
    sdmmc_cmd.o(i.SDMMC_Cmd33_EraseWrBlkEnd) refers to hc32f46x_sdioc.o(i.SDIOC_SendCommand) for SDIOC_SendCommand
    sdmmc_cmd.o(i.SDMMC_Cmd33_EraseWrBlkEnd) refers to sdmmc_cmd.o(i._ZN33_INTERNAL_11_sdmmc_cmd_c_1dd5230f17SDMMC_GetCmdResp1EP16M4_SDIOC_TypeDefPjj) for [local to sdmmc_cmd_c]::SDMMC_GetCmdResp1(M4_SDIOC_TypeDef*, unsigned*, unsigned)
    sdmmc_cmd.o(i.SDMMC_Cmd35_SetEraseStartAddr) refers to sdmmc_cmd.o(i._ZN33_INTERNAL_11_sdmmc_cmd_c_1dd5230f17SDMMC_WaitBusIdleEP16M4_SDIOC_TypeDef) for [local to sdmmc_cmd_c]::SDMMC_WaitBusIdle(M4_SDIOC_TypeDef*)
    sdmmc_cmd.o(i.SDMMC_Cmd35_SetEraseStartAddr) refers to hc32f46x_sdioc.o(i.SDIOC_SendCommand) for SDIOC_SendCommand
    sdmmc_cmd.o(i.SDMMC_Cmd35_SetEraseStartAddr) refers to sdmmc_cmd.o(i._ZN33_INTERNAL_11_sdmmc_cmd_c_1dd5230f17SDMMC_GetCmdResp1EP16M4_SDIOC_TypeDefPjj) for [local to sdmmc_cmd_c]::SDMMC_GetCmdResp1(M4_SDIOC_TypeDef*, unsigned*, unsigned)
    sdmmc_cmd.o(i.SDMMC_Cmd36_SetEraseEndAddr) refers to sdmmc_cmd.o(i._ZN33_INTERNAL_11_sdmmc_cmd_c_1dd5230f17SDMMC_WaitBusIdleEP16M4_SDIOC_TypeDef) for [local to sdmmc_cmd_c]::SDMMC_WaitBusIdle(M4_SDIOC_TypeDef*)
    sdmmc_cmd.o(i.SDMMC_Cmd36_SetEraseEndAddr) refers to hc32f46x_sdioc.o(i.SDIOC_SendCommand) for SDIOC_SendCommand
    sdmmc_cmd.o(i.SDMMC_Cmd36_SetEraseEndAddr) refers to sdmmc_cmd.o(i._ZN33_INTERNAL_11_sdmmc_cmd_c_1dd5230f17SDMMC_GetCmdResp1EP16M4_SDIOC_TypeDefPjj) for [local to sdmmc_cmd_c]::SDMMC_GetCmdResp1(M4_SDIOC_TypeDef*, unsigned*, unsigned)
    sdmmc_cmd.o(i.SDMMC_Cmd38_Erase) refers to sdmmc_cmd.o(i._ZN33_INTERNAL_11_sdmmc_cmd_c_1dd5230f17SDMMC_WaitBusIdleEP16M4_SDIOC_TypeDef) for [local to sdmmc_cmd_c]::SDMMC_WaitBusIdle(M4_SDIOC_TypeDef*)
    sdmmc_cmd.o(i.SDMMC_Cmd38_Erase) refers to hc32f46x_sdioc.o(i.SDIOC_SetDataTimeout) for SDIOC_SetDataTimeout
    sdmmc_cmd.o(i.SDMMC_Cmd38_Erase) refers to hc32f46x_sdioc.o(i.SDIOC_SendCommand) for SDIOC_SendCommand
    sdmmc_cmd.o(i.SDMMC_Cmd38_Erase) refers to sdmmc_cmd.o(i._ZN33_INTERNAL_11_sdmmc_cmd_c_1dd5230f18SDMMC_GetCmdResp1bEP16M4_SDIOC_TypeDefPjj) for [local to sdmmc_cmd_c]::SDMMC_GetCmdResp1b(M4_SDIOC_TypeDef*, unsigned*, unsigned)
    sdmmc_cmd.o(i.SDMMC_Cmd3_SendRelativeAddr) refers to sdmmc_cmd.o(i._ZN33_INTERNAL_11_sdmmc_cmd_c_1dd5230f17SDMMC_WaitBusIdleEP16M4_SDIOC_TypeDef) for [local to sdmmc_cmd_c]::SDMMC_WaitBusIdle(M4_SDIOC_TypeDef*)
    sdmmc_cmd.o(i.SDMMC_Cmd3_SendRelativeAddr) refers to hc32f46x_sdioc.o(i.SDIOC_SendCommand) for SDIOC_SendCommand
    sdmmc_cmd.o(i.SDMMC_Cmd3_SendRelativeAddr) refers to sdmmc_cmd.o(i._ZN33_INTERNAL_11_sdmmc_cmd_c_1dd5230f17SDMMC_GetCmdResp6EP16M4_SDIOC_TypeDefPj) for [local to sdmmc_cmd_c]::SDMMC_GetCmdResp6(M4_SDIOC_TypeDef*, unsigned*)
    sdmmc_cmd.o(i.SDMMC_Cmd55_AppCmd) refers to sdmmc_cmd.o(i._ZN33_INTERNAL_11_sdmmc_cmd_c_1dd5230f17SDMMC_WaitBusIdleEP16M4_SDIOC_TypeDef) for [local to sdmmc_cmd_c]::SDMMC_WaitBusIdle(M4_SDIOC_TypeDef*)
    sdmmc_cmd.o(i.SDMMC_Cmd55_AppCmd) refers to hc32f46x_sdioc.o(i.SDIOC_SendCommand) for SDIOC_SendCommand
    sdmmc_cmd.o(i.SDMMC_Cmd55_AppCmd) refers to sdmmc_cmd.o(i._ZN33_INTERNAL_11_sdmmc_cmd_c_1dd5230f17SDMMC_GetCmdResp1EP16M4_SDIOC_TypeDefPjj) for [local to sdmmc_cmd_c]::SDMMC_GetCmdResp1(M4_SDIOC_TypeDef*, unsigned*, unsigned)
    sdmmc_cmd.o(i.SDMMC_Cmd6_SwitchFunc) refers to sdmmc_cmd.o(i._ZN33_INTERNAL_11_sdmmc_cmd_c_1dd5230f17SDMMC_WaitBusIdleEP16M4_SDIOC_TypeDef) for [local to sdmmc_cmd_c]::SDMMC_WaitBusIdle(M4_SDIOC_TypeDef*)
    sdmmc_cmd.o(i.SDMMC_Cmd6_SwitchFunc) refers to hc32f46x_sdioc.o(i.SDIOC_SendCommand) for SDIOC_SendCommand
    sdmmc_cmd.o(i.SDMMC_Cmd6_SwitchFunc) refers to sdmmc_cmd.o(i._ZN33_INTERNAL_11_sdmmc_cmd_c_1dd5230f17SDMMC_GetCmdResp1EP16M4_SDIOC_TypeDefPjj) for [local to sdmmc_cmd_c]::SDMMC_GetCmdResp1(M4_SDIOC_TypeDef*, unsigned*, unsigned)
    sdmmc_cmd.o(i.SDMMC_Cmd7_SelectDeselectCard) refers to sdmmc_cmd.o(i._ZN33_INTERNAL_11_sdmmc_cmd_c_1dd5230f17SDMMC_WaitBusIdleEP16M4_SDIOC_TypeDef) for [local to sdmmc_cmd_c]::SDMMC_WaitBusIdle(M4_SDIOC_TypeDef*)
    sdmmc_cmd.o(i.SDMMC_Cmd7_SelectDeselectCard) refers to hc32f46x_sdioc.o(i.SDIOC_SendCommand) for SDIOC_SendCommand
    sdmmc_cmd.o(i.SDMMC_Cmd7_SelectDeselectCard) refers to sdmmc_cmd.o(i._ZN33_INTERNAL_11_sdmmc_cmd_c_1dd5230f17SDMMC_GetCmdResp1EP16M4_SDIOC_TypeDefPjj) for [local to sdmmc_cmd_c]::SDMMC_GetCmdResp1(M4_SDIOC_TypeDef*, unsigned*, unsigned)
    sdmmc_cmd.o(i.SDMMC_Cmd8_SendIfCond) refers to sdmmc_cmd.o(i._ZN33_INTERNAL_11_sdmmc_cmd_c_1dd5230f17SDMMC_WaitBusIdleEP16M4_SDIOC_TypeDef) for [local to sdmmc_cmd_c]::SDMMC_WaitBusIdle(M4_SDIOC_TypeDef*)
    sdmmc_cmd.o(i.SDMMC_Cmd8_SendIfCond) refers to hc32f46x_sdioc.o(i.SDIOC_SendCommand) for SDIOC_SendCommand
    sdmmc_cmd.o(i.SDMMC_Cmd8_SendIfCond) refers to sdmmc_cmd.o(i._ZN33_INTERNAL_11_sdmmc_cmd_c_1dd5230f17SDMMC_GetCmdResp7EP16M4_SDIOC_TypeDefPj) for [local to sdmmc_cmd_c]::SDMMC_GetCmdResp7(M4_SDIOC_TypeDef*, unsigned*)
    sdmmc_cmd.o(i.SDMMC_Cmd9_SendCSD) refers to sdmmc_cmd.o(i._ZN33_INTERNAL_11_sdmmc_cmd_c_1dd5230f17SDMMC_WaitBusIdleEP16M4_SDIOC_TypeDef) for [local to sdmmc_cmd_c]::SDMMC_WaitBusIdle(M4_SDIOC_TypeDef*)
    sdmmc_cmd.o(i.SDMMC_Cmd9_SendCSD) refers to hc32f46x_sdioc.o(i.SDIOC_SendCommand) for SDIOC_SendCommand
    sdmmc_cmd.o(i.SDMMC_Cmd9_SendCSD) refers to sdmmc_cmd.o(i._ZN33_INTERNAL_11_sdmmc_cmd_c_1dd5230f17SDMMC_GetCmdResp2EP16M4_SDIOC_TypeDefPj) for [local to sdmmc_cmd_c]::SDMMC_GetCmdResp2(M4_SDIOC_TypeDef*, unsigned*)
    sdmmc_cmd.o(i._ZN33_INTERNAL_11_sdmmc_cmd_c_1dd5230f17SDMMC_GetCmdResp1EP16M4_SDIOC_TypeDefPjj) refers to sdmmc_cmd.o(i._ZN33_INTERNAL_11_sdmmc_cmd_c_1dd5230f18SDMMC_WaitResponseEP16M4_SDIOC_TypeDefj) for [local to sdmmc_cmd_c]::SDMMC_WaitResponse(M4_SDIOC_TypeDef*, unsigned)
    sdmmc_cmd.o(i._ZN33_INTERNAL_11_sdmmc_cmd_c_1dd5230f17SDMMC_GetCmdResp1EP16M4_SDIOC_TypeDefPjj) refers to hc32f46x_sdioc.o(i.SDIOC_GetResponse) for SDIOC_GetResponse
    sdmmc_cmd.o(i._ZN33_INTERNAL_11_sdmmc_cmd_c_1dd5230f17SDMMC_GetCmdResp2EP16M4_SDIOC_TypeDefPj) refers to sdmmc_cmd.o(i._ZN33_INTERNAL_11_sdmmc_cmd_c_1dd5230f18SDMMC_WaitResponseEP16M4_SDIOC_TypeDefj) for [local to sdmmc_cmd_c]::SDMMC_WaitResponse(M4_SDIOC_TypeDef*, unsigned)
    sdmmc_cmd.o(i._ZN33_INTERNAL_11_sdmmc_cmd_c_1dd5230f17SDMMC_GetCmdResp2EP16M4_SDIOC_TypeDefPj) refers to hc32f46x_sdioc.o(i.SDIOC_GetResponse) for SDIOC_GetResponse
    sdmmc_cmd.o(i._ZN33_INTERNAL_11_sdmmc_cmd_c_1dd5230f17SDMMC_GetCmdResp3EP16M4_SDIOC_TypeDefPj) refers to sdmmc_cmd.o(i._ZN33_INTERNAL_11_sdmmc_cmd_c_1dd5230f18SDMMC_WaitResponseEP16M4_SDIOC_TypeDefj) for [local to sdmmc_cmd_c]::SDMMC_WaitResponse(M4_SDIOC_TypeDef*, unsigned)
    sdmmc_cmd.o(i._ZN33_INTERNAL_11_sdmmc_cmd_c_1dd5230f17SDMMC_GetCmdResp3EP16M4_SDIOC_TypeDefPj) refers to hc32f46x_sdioc.o(i.SDIOC_GetResponse) for SDIOC_GetResponse
    sdmmc_cmd.o(i._ZN33_INTERNAL_11_sdmmc_cmd_c_1dd5230f17SDMMC_GetCmdResp6EP16M4_SDIOC_TypeDefPj) refers to sdmmc_cmd.o(i._ZN33_INTERNAL_11_sdmmc_cmd_c_1dd5230f18SDMMC_WaitResponseEP16M4_SDIOC_TypeDefj) for [local to sdmmc_cmd_c]::SDMMC_WaitResponse(M4_SDIOC_TypeDef*, unsigned)
    sdmmc_cmd.o(i._ZN33_INTERNAL_11_sdmmc_cmd_c_1dd5230f17SDMMC_GetCmdResp6EP16M4_SDIOC_TypeDefPj) refers to hc32f46x_sdioc.o(i.SDIOC_GetResponse) for SDIOC_GetResponse
    sdmmc_cmd.o(i._ZN33_INTERNAL_11_sdmmc_cmd_c_1dd5230f17SDMMC_GetCmdResp7EP16M4_SDIOC_TypeDefPj) refers to sdmmc_cmd.o(i._ZN33_INTERNAL_11_sdmmc_cmd_c_1dd5230f18SDMMC_WaitResponseEP16M4_SDIOC_TypeDefj) for [local to sdmmc_cmd_c]::SDMMC_WaitResponse(M4_SDIOC_TypeDef*, unsigned)
    sdmmc_cmd.o(i._ZN33_INTERNAL_11_sdmmc_cmd_c_1dd5230f17SDMMC_GetCmdResp7EP16M4_SDIOC_TypeDefPj) refers to hc32f46x_sdioc.o(i.SDIOC_GetResponse) for SDIOC_GetResponse
    sdmmc_cmd.o(i._ZN33_INTERNAL_11_sdmmc_cmd_c_1dd5230f17SDMMC_WaitBusIdleEP16M4_SDIOC_TypeDef) refers to hc32f46x_sdioc.o(i.SDIOC_GetStatus) for SDIOC_GetStatus
    sdmmc_cmd.o(i._ZN33_INTERNAL_11_sdmmc_cmd_c_1dd5230f18SDMMC_GetCmdResp1bEP16M4_SDIOC_TypeDefPjj) refers to sdmmc_cmd.o(i._ZN33_INTERNAL_11_sdmmc_cmd_c_1dd5230f18SDMMC_WaitResponseEP16M4_SDIOC_TypeDefj) for [local to sdmmc_cmd_c]::SDMMC_WaitResponse(M4_SDIOC_TypeDef*, unsigned)
    sdmmc_cmd.o(i._ZN33_INTERNAL_11_sdmmc_cmd_c_1dd5230f18SDMMC_GetCmdResp1bEP16M4_SDIOC_TypeDefPjj) refers to hc32f46x_sdioc.o(i.SDIOC_GetStatus) for SDIOC_GetStatus
    sdmmc_cmd.o(i._ZN33_INTERNAL_11_sdmmc_cmd_c_1dd5230f18SDMMC_GetCmdResp1bEP16M4_SDIOC_TypeDefPjj) refers to hc32f46x_sdioc.o(i.SDIOC_GetResponse) for SDIOC_GetResponse
    sdmmc_cmd.o(i._ZN33_INTERNAL_11_sdmmc_cmd_c_1dd5230f18SDMMC_WaitResponseEP16M4_SDIOC_TypeDefj) refers to hc32f46x_sdioc.o(i.SDIOC_GetNormalIrqFlag) for SDIOC_GetNormalIrqFlag
    sdmmc_cmd.o(i._ZN33_INTERNAL_11_sdmmc_cmd_c_1dd5230f18SDMMC_WaitResponseEP16M4_SDIOC_TypeDefj) refers to sdmmc_cmd.o(i._ZN33_INTERNAL_11_sdmmc_cmd_c_1dd5230f22SDMMC_GetCardDetectionEP16M4_SDIOC_TypeDef) for [local to sdmmc_cmd_c]::SDMMC_GetCardDetection(M4_SDIOC_TypeDef*)
    sdmmc_cmd.o(i._ZN33_INTERNAL_11_sdmmc_cmd_c_1dd5230f18SDMMC_WaitResponseEP16M4_SDIOC_TypeDefj) refers to hc32f46x_sdioc.o(i.SDIOC_ClearNormalIrqFlag) for SDIOC_ClearNormalIrqFlag
    sdmmc_cmd.o(i._ZN33_INTERNAL_11_sdmmc_cmd_c_1dd5230f18SDMMC_WaitResponseEP16M4_SDIOC_TypeDefj) refers to system_hc32f46x.o(.data) for SystemCoreClock
    sdmmc_cmd.o(i._ZN33_INTERNAL_11_sdmmc_cmd_c_1dd5230f22SDMMC_GetCardDetectionEP16M4_SDIOC_TypeDef) refers to hc32f46x_sdioc.o(i.SDIOC_GetStatus) for SDIOC_GetStatus
    sdmmc_cmd.o(i._ZN33_INTERNAL_11_sdmmc_cmd_c_1dd5230f22SDMMC_GetCardDetectionEP16M4_SDIOC_TypeDef) refers to system_hc32f46x.o(.data) for SystemCoreClock
    sdmmc_cmd.o(.ARM.exidx) refers to sdmmc_cmd.o(i._ZN33_INTERNAL_11_sdmmc_cmd_c_1dd5230f22SDMMC_GetCardDetectionEP16M4_SDIOC_TypeDef) for i._ZN33_INTERNAL_11_sdmmc_cmd_c_1dd5230f22SDMMC_GetCardDetectionEP16M4_SDIOC_TypeDef
    sdmmc_cmd.o(.ARM.exidx) refers to sdmmc_cmd.o(i._ZN33_INTERNAL_11_sdmmc_cmd_c_1dd5230f18SDMMC_WaitResponseEP16M4_SDIOC_TypeDefj) for i._ZN33_INTERNAL_11_sdmmc_cmd_c_1dd5230f18SDMMC_WaitResponseEP16M4_SDIOC_TypeDefj
    sdmmc_cmd.o(.ARM.exidx) refers to sdmmc_cmd.o(i._ZN33_INTERNAL_11_sdmmc_cmd_c_1dd5230f17SDMMC_WaitBusIdleEP16M4_SDIOC_TypeDef) for i._ZN33_INTERNAL_11_sdmmc_cmd_c_1dd5230f17SDMMC_WaitBusIdleEP16M4_SDIOC_TypeDef
    sdmmc_cmd.o(.ARM.exidx) refers to sdmmc_cmd.o(i.SDMMC_Cmd0_GoIdleState) for i.SDMMC_Cmd0_GoIdleState
    sdmmc_cmd.o(.ARM.exidx) refers to sdmmc_cmd.o(i._ZN33_INTERNAL_11_sdmmc_cmd_c_1dd5230f17SDMMC_GetCmdResp3EP16M4_SDIOC_TypeDefPj) for i._ZN33_INTERNAL_11_sdmmc_cmd_c_1dd5230f17SDMMC_GetCmdResp3EP16M4_SDIOC_TypeDefPj
    sdmmc_cmd.o(.ARM.exidx) refers to sdmmc_cmd.o(i.SDMMC_Cmd1_SendOpCond) for i.SDMMC_Cmd1_SendOpCond
    sdmmc_cmd.o(.ARM.exidx) refers to sdmmc_cmd.o(i._ZN33_INTERNAL_11_sdmmc_cmd_c_1dd5230f17SDMMC_GetCmdResp2EP16M4_SDIOC_TypeDefPj) for i._ZN33_INTERNAL_11_sdmmc_cmd_c_1dd5230f17SDMMC_GetCmdResp2EP16M4_SDIOC_TypeDefPj
    sdmmc_cmd.o(.ARM.exidx) refers to sdmmc_cmd.o(i.SDMMC_Cmd2_AllSendCID) for i.SDMMC_Cmd2_AllSendCID
    sdmmc_cmd.o(.ARM.exidx) refers to sdmmc_cmd.o(i._ZN33_INTERNAL_11_sdmmc_cmd_c_1dd5230f17SDMMC_GetCmdResp6EP16M4_SDIOC_TypeDefPj) for i._ZN33_INTERNAL_11_sdmmc_cmd_c_1dd5230f17SDMMC_GetCmdResp6EP16M4_SDIOC_TypeDefPj
    sdmmc_cmd.o(.ARM.exidx) refers to sdmmc_cmd.o(i.SDMMC_Cmd3_SendRelativeAddr) for i.SDMMC_Cmd3_SendRelativeAddr
    sdmmc_cmd.o(.ARM.exidx) refers to sdmmc_cmd.o(i._ZN33_INTERNAL_11_sdmmc_cmd_c_1dd5230f17SDMMC_GetCmdResp1EP16M4_SDIOC_TypeDefPjj) for i._ZN33_INTERNAL_11_sdmmc_cmd_c_1dd5230f17SDMMC_GetCmdResp1EP16M4_SDIOC_TypeDefPjj
    sdmmc_cmd.o(.ARM.exidx) refers to sdmmc_cmd.o(i.SDMMC_Cmd6_SwitchFunc) for i.SDMMC_Cmd6_SwitchFunc
    sdmmc_cmd.o(.ARM.exidx) refers to sdmmc_cmd.o(i.SDMMC_Cmd7_SelectDeselectCard) for i.SDMMC_Cmd7_SelectDeselectCard
    sdmmc_cmd.o(.ARM.exidx) refers to sdmmc_cmd.o(i._ZN33_INTERNAL_11_sdmmc_cmd_c_1dd5230f17SDMMC_GetCmdResp7EP16M4_SDIOC_TypeDefPj) for i._ZN33_INTERNAL_11_sdmmc_cmd_c_1dd5230f17SDMMC_GetCmdResp7EP16M4_SDIOC_TypeDefPj
    sdmmc_cmd.o(.ARM.exidx) refers to sdmmc_cmd.o(i.SDMMC_Cmd8_SendIfCond) for i.SDMMC_Cmd8_SendIfCond
    sdmmc_cmd.o(.ARM.exidx) refers to sdmmc_cmd.o(i.SDMMC_Cmd9_SendCSD) for i.SDMMC_Cmd9_SendCSD
    sdmmc_cmd.o(.ARM.exidx) refers to sdmmc_cmd.o(i.SDMMC_Cmd10_SendCID) for i.SDMMC_Cmd10_SendCID
    sdmmc_cmd.o(.ARM.exidx) refers to sdmmc_cmd.o(i.SDMMC_Cmd12_StopTransmission) for i.SDMMC_Cmd12_StopTransmission
    sdmmc_cmd.o(.ARM.exidx) refers to sdmmc_cmd.o(i.SDMMC_Cmd13_SendStatus) for i.SDMMC_Cmd13_SendStatus
    sdmmc_cmd.o(.ARM.exidx) refers to sdmmc_cmd.o(i.SDMMC_Cmd16_SetBlockLength) for i.SDMMC_Cmd16_SetBlockLength
    sdmmc_cmd.o(.ARM.exidx) refers to sdmmc_cmd.o(i.SDMMC_Cmd17_ReadSingleBlock) for i.SDMMC_Cmd17_ReadSingleBlock
    sdmmc_cmd.o(.ARM.exidx) refers to sdmmc_cmd.o(i.SDMMC_Cmd18_ReadMultipleBlock) for i.SDMMC_Cmd18_ReadMultipleBlock
    sdmmc_cmd.o(.ARM.exidx) refers to sdmmc_cmd.o(i.SDMMC_Cmd24_WriteSingleBlock) for i.SDMMC_Cmd24_WriteSingleBlock
    sdmmc_cmd.o(.ARM.exidx) refers to sdmmc_cmd.o(i.SDMMC_Cmd25_WriteMultipleBlock) for i.SDMMC_Cmd25_WriteMultipleBlock
    sdmmc_cmd.o(.ARM.exidx) refers to sdmmc_cmd.o(i.SDMMC_Cmd32_EraseWrBlkStart) for i.SDMMC_Cmd32_EraseWrBlkStart
    sdmmc_cmd.o(.ARM.exidx) refers to sdmmc_cmd.o(i.SDMMC_Cmd33_EraseWrBlkEnd) for i.SDMMC_Cmd33_EraseWrBlkEnd
    sdmmc_cmd.o(.ARM.exidx) refers to sdmmc_cmd.o(i.SDMMC_Cmd35_SetEraseStartAddr) for i.SDMMC_Cmd35_SetEraseStartAddr
    sdmmc_cmd.o(.ARM.exidx) refers to sdmmc_cmd.o(i.SDMMC_Cmd36_SetEraseEndAddr) for i.SDMMC_Cmd36_SetEraseEndAddr
    sdmmc_cmd.o(.ARM.exidx) refers to sdmmc_cmd.o(i._ZN33_INTERNAL_11_sdmmc_cmd_c_1dd5230f18SDMMC_GetCmdResp1bEP16M4_SDIOC_TypeDefPjj) for i._ZN33_INTERNAL_11_sdmmc_cmd_c_1dd5230f18SDMMC_GetCmdResp1bEP16M4_SDIOC_TypeDefPjj
    sdmmc_cmd.o(.ARM.exidx) refers to sdmmc_cmd.o(i.SDMMC_Cmd38_Erase) for i.SDMMC_Cmd38_Erase
    sdmmc_cmd.o(.ARM.exidx) refers to sdmmc_cmd.o(i.SDMMC_Cmd55_AppCmd) for i.SDMMC_Cmd55_AppCmd
    sdmmc_cmd.o(.ARM.exidx) refers to sdmmc_cmd.o(i.SDMMC_Acmd6_SetBusWidth) for i.SDMMC_Acmd6_SetBusWidth
    sdmmc_cmd.o(.ARM.exidx) refers to sdmmc_cmd.o(i.SDMMC_Acmd13_SdStatus) for i.SDMMC_Acmd13_SdStatus
    sdmmc_cmd.o(.ARM.exidx) refers to sdmmc_cmd.o(i.SDMMC_Acmd41_SdSendOpCond) for i.SDMMC_Acmd41_SdSendOpCond
    sdmmc_cmd.o(.ARM.exidx) refers to sdmmc_cmd.o(i.SDMMC_Acmd51_SendSCR) for i.SDMMC_Acmd51_SendSCR
    board_adc.o(.ARM.exidx) refers to board_adc.o(i.setup_adcs) for i.setup_adcs
    board_adc.o(.ARM.exidx) refers to board_adc.o(i.adc_main) for i.adc_main
    board_adc.o(.ARM.exidx) refers to board_adc.o(i.adc_read) for i.adc_read
    board_gpio.o(i.__sti___12_board_gpio_c_PIN_MAP) refers to hardwareserial.o(i._ZN14HardwareSerialC1EP16M4_USART_TypeDef) for HardwareSerial::HardwareSerial(M4_USART_TypeDef*)
    board_gpio.o(i.__sti___12_board_gpio_c_PIN_MAP) refers to board_gpio.o(.bss) for Serial1
    board_gpio.o(i.setup_gpio) refers to hc32f46x_gpio.o(i.PORT_DebugPortSetting) for PORT_DebugPortSetting
    board_gpio.o(.ARM.exidx) refers to board_gpio.o(i.setup_gpio) for i.setup_gpio
    board_gpio.o(.ARM.exidx) refers to board_gpio.o(i.__sti___12_board_gpio_c_PIN_MAP) for i.__sti___12_board_gpio_c_PIN_MAP
    board_gpio.o(.constdata) refers to board_gpio.o(.bss) for adc1
    board_gpio.o(.init_array) refers to board_gpio.o(i.__sti___12_board_gpio_c_PIN_MAP) for __sti___12_board_gpio_c_PIN_MAP
    board_gpio.o(.init_array) refers to cpp_init.o(.text) for __cpp_initialize__aeabi_
    board_sdio.o(i.SDIO_ReadBlock_DMA) refers to bsp_sdio.o(i._Z9sdio_readjPh) for sdio_read(unsigned, unsigned char*)
    board_sdio.o(i.SDIO_WriteBlockDMA) refers to bsp_sdio.o(i._Z10sdio_writejPKh) for sdio_write(unsigned, const unsigned char*)
    board_sdio.o(i.steup_sdio) refers to bsp_sdio.o(i._Z13hal_sdio_initv) for hal_sdio_init()
    board_sdio.o(.ARM.exidx) refers to board_sdio.o(i.sdio_main) for i.sdio_main
    board_sdio.o(.ARM.exidx) refers to board_sdio.o(i.steup_sdio) for i.steup_sdio
    board_sdio.o(.ARM.exidx) refers to board_sdio.o(i.SDIO_ReadBlock_DMA) for i.SDIO_ReadBlock_DMA
    board_sdio.o(.ARM.exidx) refers to board_sdio.o(i.SDIO_WriteBlockDMA) for i.SDIO_WriteBlockDMA
    board_tim0.o(i.SysTick_IrqHandler) refers to hc32f46x_utility.o(i.SysTick_IncTick) for SysTick_IncTick
    board_tim0.o(i.delay) refers to hc32f46x_utility.o(i.SysTick_Delay) for SysTick_Delay
    board_tim0.o(i.millis) refers to board_tim0.o(.data) for _millis
    board_tim0.o(i.setup_step_tim) refers to bsp_timer.o(i._Z21timer42_set_frequencyj) for timer42_set_frequency(unsigned)
    board_tim0.o(i.timer_enable_irq) refers to bsp_timer.o(i._Z16timer42_irq_ctrl19en_functional_state) for timer42_irq_ctrl(en_functional_state)
    board_tim0.o(i.timer_get_count) refers to bsp_timer.o(i._Z17timer42_get_countv) for timer42_get_count()
    board_tim0.o(i.timer_irq_enabled) refers to bsp_timer.o(i._Z15timer42_irq_getv) for timer42_irq_get()
    board_tim0.o(i.timer_set_compare) refers to bsp_timer.o(i._Z19timer42_set_comparet) for timer42_set_compare(unsigned short)
    board_tim0.o(.ARM.exidx) refers to board_tim0.o(i.millis) for i.millis
    board_tim0.o(.ARM.exidx) refers to board_tim0.o(i.SysTick_IrqHandler) for i.SysTick_IrqHandler
    board_tim0.o(.ARM.exidx) refers to board_tim0.o(i.setup_time2A) for i.setup_time2A
    board_tim0.o(.ARM.exidx) refers to board_tim0.o(i.setup_step_tim) for i.setup_step_tim
    board_tim0.o(.ARM.exidx) refers to board_tim0.o(i.setup_temp_tim) for i.setup_temp_tim
    board_tim0.o(.ARM.exidx) refers to board_tim0.o(i.timer_enable_irq) for i.timer_enable_irq
    board_tim0.o(.ARM.exidx) refers to board_tim0.o(i.timer_irq_enabled) for i.timer_irq_enabled
    board_tim0.o(.ARM.exidx) refers to board_tim0.o(i.timer_set_compare) for i.timer_set_compare
    board_tim0.o(.ARM.exidx) refers to board_tim0.o(i.timer_get_count) for i.timer_get_count
    board_tim0.o(.ARM.exidx) refers to board_tim0.o(i.delay) for i.delay
    board_tim0.o(.ARM.exidx) refers to board_tim0.o(i.delayMicroseconds) for i.delayMicroseconds
    startup.o(i.f_cpu_init) refers to startup.o(.data) for F_CPU
    startup.o(.ARM.exidx) refers to startup.o(i.f_cpu_init) for i.f_cpu_init
    hc32f46x_adc.o(i.ADC_GetAllData) refers to hc32f46x_adc.o(i._ZN36_INTERNAL_14_hc32f46x_adc_c_ADC_Init15ADC_ReadAllDataEPK14M4_ADC_TypeDefPth) for [local to hc32f46x_adc_c]::ADC_ReadAllData(const M4_ADC_TypeDef*, unsigned short*, unsigned char)
    hc32f46x_adc.o(i.ADC_PollingSa) refers to hc32f46x_adc.o(i._ZN36_INTERNAL_14_hc32f46x_adc_c_ADC_Init15ADC_ReadAllDataEPK14M4_ADC_TypeDefPth) for [local to hc32f46x_adc_c]::ADC_ReadAllData(const M4_ADC_TypeDef*, unsigned short*, unsigned char)
    hc32f46x_adc.o(i.ADC_PollingSa) refers to hc32f46x_adc.o(i.ADC_GetChData) for ADC_GetChData
    hc32f46x_adc.o(i.ADC_PollingSa) refers to system_hc32f46x.o(.data) for SystemCoreClock
    hc32f46x_adc.o(.ARM.exidx) refers to hc32f46x_adc.o(i.ADC_Init) for i.ADC_Init
    hc32f46x_adc.o(.ARM.exidx) refers to hc32f46x_adc.o(i.ADC_DeInit) for i.ADC_DeInit
    hc32f46x_adc.o(.ARM.exidx) refers to hc32f46x_adc.o(i.ADC_SetScanMode) for i.ADC_SetScanMode
    hc32f46x_adc.o(.ARM.exidx) refers to hc32f46x_adc.o(i.ADC_ConfigTriggerSrc) for i.ADC_ConfigTriggerSrc
    hc32f46x_adc.o(.ARM.exidx) refers to hc32f46x_adc.o(i.ADC_TriggerSrcCmd) for i.ADC_TriggerSrcCmd
    hc32f46x_adc.o(.ARM.exidx) refers to hc32f46x_adc.o(i.ADC_ComTriggerCmd) for i.ADC_ComTriggerCmd
    hc32f46x_adc.o(.ARM.exidx) refers to hc32f46x_adc.o(i.ADC_AddAdcChannel) for i.ADC_AddAdcChannel
    hc32f46x_adc.o(.ARM.exidx) refers to hc32f46x_adc.o(i.ADC_DelAdcChannel) for i.ADC_DelAdcChannel
    hc32f46x_adc.o(.ARM.exidx) refers to hc32f46x_adc.o(i.ADC_SeqITCmd) for i.ADC_SeqITCmd
    hc32f46x_adc.o(.ARM.exidx) refers to hc32f46x_adc.o(i.ADC_ConfigAvg) for i.ADC_ConfigAvg
    hc32f46x_adc.o(.ARM.exidx) refers to hc32f46x_adc.o(i.ADC_AddAvgChannel) for i.ADC_AddAvgChannel
    hc32f46x_adc.o(.ARM.exidx) refers to hc32f46x_adc.o(i.ADC_DelAvgChannel) for i.ADC_DelAvgChannel
    hc32f46x_adc.o(.ARM.exidx) refers to hc32f46x_adc.o(i.ADC_ConfigAwd) for i.ADC_ConfigAwd
    hc32f46x_adc.o(.ARM.exidx) refers to hc32f46x_adc.o(i.ADC_AwdCmd) for i.ADC_AwdCmd
    hc32f46x_adc.o(.ARM.exidx) refers to hc32f46x_adc.o(i.ADC_AwdITCmd) for i.ADC_AwdITCmd
    hc32f46x_adc.o(.ARM.exidx) refers to hc32f46x_adc.o(i.ADC_AddAwdChannel) for i.ADC_AddAwdChannel
    hc32f46x_adc.o(.ARM.exidx) refers to hc32f46x_adc.o(i.ADC_DelAwdChannel) for i.ADC_DelAwdChannel
    hc32f46x_adc.o(.ARM.exidx) refers to hc32f46x_adc.o(i.ADC_ConfigPga) for i.ADC_ConfigPga
    hc32f46x_adc.o(.ARM.exidx) refers to hc32f46x_adc.o(i.ADC_PgaCmd) for i.ADC_PgaCmd
    hc32f46x_adc.o(.ARM.exidx) refers to hc32f46x_adc.o(i.ADC_AddPgaChannel) for i.ADC_AddPgaChannel
    hc32f46x_adc.o(.ARM.exidx) refers to hc32f46x_adc.o(i.ADC_DelPgaChannel) for i.ADC_DelPgaChannel
    hc32f46x_adc.o(.ARM.exidx) refers to hc32f46x_adc.o(i.ADC_ConfigSync) for i.ADC_ConfigSync
    hc32f46x_adc.o(.ARM.exidx) refers to hc32f46x_adc.o(i.ADC_SyncCmd) for i.ADC_SyncCmd
    hc32f46x_adc.o(.ARM.exidx) refers to hc32f46x_adc.o(i.ADC_StartConvert) for i.ADC_StartConvert
    hc32f46x_adc.o(.ARM.exidx) refers to hc32f46x_adc.o(i.ADC_StopConvert) for i.ADC_StopConvert
    hc32f46x_adc.o(.ARM.exidx) refers to hc32f46x_adc.o(i.ADC_GetEocFlag) for i.ADC_GetEocFlag
    hc32f46x_adc.o(.ARM.exidx) refers to hc32f46x_adc.o(i.ADC_ClrEocFlag) for i.ADC_ClrEocFlag
    hc32f46x_adc.o(.ARM.exidx) refers to hc32f46x_adc.o(i.ADC_GetChData) for i.ADC_GetChData
    hc32f46x_adc.o(.ARM.exidx) refers to hc32f46x_adc.o(i._ZN36_INTERNAL_14_hc32f46x_adc_c_ADC_Init15ADC_ReadAllDataEPK14M4_ADC_TypeDefPth) for i._ZN36_INTERNAL_14_hc32f46x_adc_c_ADC_Init15ADC_ReadAllDataEPK14M4_ADC_TypeDefPth
    hc32f46x_adc.o(.ARM.exidx) refers to hc32f46x_adc.o(i.ADC_PollingSa) for i.ADC_PollingSa
    hc32f46x_adc.o(.ARM.exidx) refers to hc32f46x_adc.o(i.ADC_GetAllData) for i.ADC_GetAllData
    hc32f46x_adc.o(.ARM.exidx) refers to hc32f46x_adc.o(i.ADC_GetValue) for i.ADC_GetValue
    hc32f46x_adc.o(.ARM.exidx) refers to hc32f46x_adc.o(i.ADC_GetAwdFlag) for i.ADC_GetAwdFlag
    hc32f46x_adc.o(.ARM.exidx) refers to hc32f46x_adc.o(i.ADC_ClrAwdFlag) for i.ADC_ClrAwdFlag
    hc32f46x_adc.o(.ARM.exidx) refers to hc32f46x_adc.o(i.ADC_ClrAwdChFlag) for i.ADC_ClrAwdChFlag
    hc32f46x_adc.o(.ARM.exidx) refers to hc32f46x_adc.o(i.ADC_ChannelRemap) for i.ADC_ChannelRemap
    hc32f46x_adc.o(.ARM.exidx) refers to hc32f46x_adc.o(i.ADC_GetChannelPinNum) for i.ADC_GetChannelPinNum
    hc32f46x_clk.o(i.CLK_GetClockFreq) refers to system_hc32f46x.o(.data) for HRC_VALUE
    hc32f46x_clk.o(i.CLK_GetPllClockFreq) refers to system_hc32f46x.o(.data) for HRC_VALUE
    hc32f46x_clk.o(i.CLK_HrcCmd) refers to hc32f46x_clk.o(i.CLK_GetFlagStatus) for CLK_GetFlagStatus
    hc32f46x_clk.o(i.CLK_MpllCmd) refers to hc32f46x_clk.o(i.CLK_GetFlagStatus) for CLK_GetFlagStatus
    hc32f46x_clk.o(i.CLK_SetSysClkSource) refers to system_hc32f46x.o(i.SystemCoreClockUpdate) for SystemCoreClockUpdate
    hc32f46x_clk.o(i.CLK_UpllCmd) refers to hc32f46x_clk.o(i.CLK_GetFlagStatus) for CLK_GetFlagStatus
    hc32f46x_clk.o(i.CLK_XtalCmd) refers to hc32f46x_clk.o(i.CLK_GetFlagStatus) for CLK_GetFlagStatus
    hc32f46x_clk.o(.ARM.exidx) refers to hc32f46x_clk.o(i.CLK_XtalConfig) for i.CLK_XtalConfig
    hc32f46x_clk.o(.ARM.exidx) refers to hc32f46x_clk.o(i.CLK_XtalStbConfig) for i.CLK_XtalStbConfig
    hc32f46x_clk.o(.ARM.exidx) refers to hc32f46x_clk.o(i.CLK_XtalStpConfig) for i.CLK_XtalStpConfig
    hc32f46x_clk.o(.ARM.exidx) refers to hc32f46x_clk.o(i.CLK_GetFlagStatus) for i.CLK_GetFlagStatus
    hc32f46x_clk.o(.ARM.exidx) refers to hc32f46x_clk.o(i.CLK_XtalCmd) for i.CLK_XtalCmd
    hc32f46x_clk.o(.ARM.exidx) refers to hc32f46x_clk.o(i.CLK_Xtal32Config) for i.CLK_Xtal32Config
    hc32f46x_clk.o(.ARM.exidx) refers to hc32f46x_clk.o(i.CLK_Xtal32Cmd) for i.CLK_Xtal32Cmd
    hc32f46x_clk.o(.ARM.exidx) refers to hc32f46x_clk.o(i.CLK_HrcTrim) for i.CLK_HrcTrim
    hc32f46x_clk.o(.ARM.exidx) refers to hc32f46x_clk.o(i.CLK_HrcCmd) for i.CLK_HrcCmd
    hc32f46x_clk.o(.ARM.exidx) refers to hc32f46x_clk.o(i.CLK_MrcTrim) for i.CLK_MrcTrim
    hc32f46x_clk.o(.ARM.exidx) refers to hc32f46x_clk.o(i.CLK_MrcCmd) for i.CLK_MrcCmd
    hc32f46x_clk.o(.ARM.exidx) refers to hc32f46x_clk.o(i.CLK_LrcTrim) for i.CLK_LrcTrim
    hc32f46x_clk.o(.ARM.exidx) refers to hc32f46x_clk.o(i.CLK_LrcCmd) for i.CLK_LrcCmd
    hc32f46x_clk.o(.ARM.exidx) refers to hc32f46x_clk.o(i.CLK_SetPllSource) for i.CLK_SetPllSource
    hc32f46x_clk.o(.ARM.exidx) refers to hc32f46x_clk.o(i.CLK_MpllConfig) for i.CLK_MpllConfig
    hc32f46x_clk.o(.ARM.exidx) refers to hc32f46x_clk.o(i.CLK_MpllCmd) for i.CLK_MpllCmd
    hc32f46x_clk.o(.ARM.exidx) refers to hc32f46x_clk.o(i.CLK_UpllConfig) for i.CLK_UpllConfig
    hc32f46x_clk.o(.ARM.exidx) refers to hc32f46x_clk.o(i.CLK_UpllCmd) for i.CLK_UpllCmd
    hc32f46x_clk.o(.ARM.exidx) refers to hc32f46x_clk.o(i.CLK_SetSysClkSource) for i.CLK_SetSysClkSource
    hc32f46x_clk.o(.ARM.exidx) refers to hc32f46x_clk.o(i.CLK_GetSysClkSource) for i.CLK_GetSysClkSource
    hc32f46x_clk.o(.ARM.exidx) refers to hc32f46x_clk.o(i.CLK_SysClkConfig) for i.CLK_SysClkConfig
    hc32f46x_clk.o(.ARM.exidx) refers to hc32f46x_clk.o(i.CLK_GetClockFreq) for i.CLK_GetClockFreq
    hc32f46x_clk.o(.ARM.exidx) refers to hc32f46x_clk.o(i.CLK_GetPllClockFreq) for i.CLK_GetPllClockFreq
    hc32f46x_clk.o(.ARM.exidx) refers to hc32f46x_clk.o(i.CLK_SetUsbClkSource) for i.CLK_SetUsbClkSource
    hc32f46x_clk.o(.ARM.exidx) refers to hc32f46x_clk.o(i.CLK_SetPeriClkSource) for i.CLK_SetPeriClkSource
    hc32f46x_clk.o(.ARM.exidx) refers to hc32f46x_clk.o(i.CLK_SetI2sClkSource) for i.CLK_SetI2sClkSource
    hc32f46x_clk.o(.ARM.exidx) refers to hc32f46x_clk.o(i.CLK_GetI2sClkSource) for i.CLK_GetI2sClkSource
    hc32f46x_clk.o(.ARM.exidx) refers to hc32f46x_clk.o(i.CLK_TpiuClkConfig) for i.CLK_TpiuClkConfig
    hc32f46x_clk.o(.ARM.exidx) refers to hc32f46x_clk.o(i.CLK_TpiuClkCmd) for i.CLK_TpiuClkCmd
    hc32f46x_clk.o(.ARM.exidx) refers to hc32f46x_clk.o(i.CLK_OutputClkConfig) for i.CLK_OutputClkConfig
    hc32f46x_clk.o(.ARM.exidx) refers to hc32f46x_clk.o(i.CLK_OutputClkCmd) for i.CLK_OutputClkCmd
    hc32f46x_clk.o(.ARM.exidx) refers to hc32f46x_clk.o(i.CLK_FcmConfig) for i.CLK_FcmConfig
    hc32f46x_clk.o(.ARM.exidx) refers to hc32f46x_clk.o(i.CLK_FcmCmd) for i.CLK_FcmCmd
    hc32f46x_clk.o(.ARM.exidx) refers to hc32f46x_clk.o(i.CLK_GetFcmCounter) for i.CLK_GetFcmCounter
    hc32f46x_clk.o(.ARM.exidx) refers to hc32f46x_clk.o(i.CLK_GetFcmFlag) for i.CLK_GetFcmFlag
    hc32f46x_clk.o(.ARM.exidx) refers to hc32f46x_clk.o(i.CLK_ClearFcmFlag) for i.CLK_ClearFcmFlag
    hc32f46x_clk.o(.ARM.exidx) refers to hc32f46x_clk.o(i.CLK_ClearXtalStdFlag) for i.CLK_ClearXtalStdFlag
    hc32f46x_dmac.o(i.DMA_ChannelCmd) refers to hc32f46x_dmac.o(.data) for DmaChEnState
    hc32f46x_dmac.o(i.DMA_DeInit) refers to hc32f46x_dmac.o(i.DMA_SetTriggerSrc) for DMA_SetTriggerSrc
    hc32f46x_dmac.o(i.DMA_DeInit) refers to hc32f46x_dmac.o(i.DMA_ChannelCmd) for DMA_ChannelCmd
    hc32f46x_dmac.o(i.DMA_InitChannel) refers to hc32f46x_dmac.o(i.DMA_Cmd) for DMA_Cmd
    hc32f46x_dmac.o(i.DMA_InitChannel) refers to hc32f46x_dmac.o(i.DMA_ChannelCfg) for DMA_ChannelCfg
    hc32f46x_dmac.o(.ARM.exidx) refers to hc32f46x_dmac.o(i.DMA_Cmd) for i.DMA_Cmd
    hc32f46x_dmac.o(.ARM.exidx) refers to hc32f46x_dmac.o(i.DMA_EnableIrq) for i.DMA_EnableIrq
    hc32f46x_dmac.o(.ARM.exidx) refers to hc32f46x_dmac.o(i.DMA_DisableIrq) for i.DMA_DisableIrq
    hc32f46x_dmac.o(.ARM.exidx) refers to hc32f46x_dmac.o(i.DMA_GetIrqFlag) for i.DMA_GetIrqFlag
    hc32f46x_dmac.o(.ARM.exidx) refers to hc32f46x_dmac.o(i.DMA_ClearIrqFlag) for i.DMA_ClearIrqFlag
    hc32f46x_dmac.o(.ARM.exidx) refers to hc32f46x_dmac.o(i.DMA_ChannelCmd) for i.DMA_ChannelCmd
    hc32f46x_dmac.o(.ARM.exidx) refers to hc32f46x_dmac.o(i.DMA_InitReConfig) for i.DMA_InitReConfig
    hc32f46x_dmac.o(.ARM.exidx) refers to hc32f46x_dmac.o(i.DMA_ReCfgCmd) for i.DMA_ReCfgCmd
    hc32f46x_dmac.o(.ARM.exidx) refers to hc32f46x_dmac.o(i._Z12DMA_ReCfgLlpP14M4_DMA_TypeDefh19en_functional_state) for i._Z12DMA_ReCfgLlpP14M4_DMA_TypeDefh19en_functional_state
    hc32f46x_dmac.o(.ARM.exidx) refers to hc32f46x_dmac.o(i.DMA_GetChFlag) for i.DMA_GetChFlag
    hc32f46x_dmac.o(.ARM.exidx) refers to hc32f46x_dmac.o(i.DMA_SetSrcAddress) for i.DMA_SetSrcAddress
    hc32f46x_dmac.o(.ARM.exidx) refers to hc32f46x_dmac.o(i.DMA_SetDesAddress) for i.DMA_SetDesAddress
    hc32f46x_dmac.o(.ARM.exidx) refers to hc32f46x_dmac.o(i.DMA_SetBlockSize) for i.DMA_SetBlockSize
    hc32f46x_dmac.o(.ARM.exidx) refers to hc32f46x_dmac.o(i.DMA_SetTransferCnt) for i.DMA_SetTransferCnt
    hc32f46x_dmac.o(.ARM.exidx) refers to hc32f46x_dmac.o(i.DMA_SetSrcRptSize) for i.DMA_SetSrcRptSize
    hc32f46x_dmac.o(.ARM.exidx) refers to hc32f46x_dmac.o(i.DMA_SetDesRptSize) for i.DMA_SetDesRptSize
    hc32f46x_dmac.o(.ARM.exidx) refers to hc32f46x_dmac.o(i.DMA_SetSrcRptbSize) for i.DMA_SetSrcRptbSize
    hc32f46x_dmac.o(.ARM.exidx) refers to hc32f46x_dmac.o(i._Z18DMA_SetDesRptBSizeP14M4_DMA_TypeDefht) for i._Z18DMA_SetDesRptBSizeP14M4_DMA_TypeDefht
    hc32f46x_dmac.o(.ARM.exidx) refers to hc32f46x_dmac.o(i.DMA_SetSrcNseqCfg) for i.DMA_SetSrcNseqCfg
    hc32f46x_dmac.o(.ARM.exidx) refers to hc32f46x_dmac.o(i.DMA_SetSrcNseqBCfg) for i.DMA_SetSrcNseqBCfg
    hc32f46x_dmac.o(.ARM.exidx) refers to hc32f46x_dmac.o(i.DMA_SetDesNseqCfg) for i.DMA_SetDesNseqCfg
    hc32f46x_dmac.o(.ARM.exidx) refers to hc32f46x_dmac.o(i.DMA_SetDesNseqBCfg) for i.DMA_SetDesNseqBCfg
    hc32f46x_dmac.o(.ARM.exidx) refers to hc32f46x_dmac.o(i.DMA_SetLLP) for i.DMA_SetLLP
    hc32f46x_dmac.o(.ARM.exidx) refers to hc32f46x_dmac.o(i.DMA_SetTriggerSrc) for i.DMA_SetTriggerSrc
    hc32f46x_dmac.o(.ARM.exidx) refers to hc32f46x_dmac.o(i.DMA_ComTriggerCmd) for i.DMA_ComTriggerCmd
    hc32f46x_dmac.o(.ARM.exidx) refers to hc32f46x_dmac.o(i.DMA_ReConfigComTriggerCmd) for i.DMA_ReConfigComTriggerCmd
    hc32f46x_dmac.o(.ARM.exidx) refers to hc32f46x_dmac.o(i.DMA_SetReConfigTriggerSrc) for i.DMA_SetReConfigTriggerSrc
    hc32f46x_dmac.o(.ARM.exidx) refers to hc32f46x_dmac.o(i.DMA_ChannelCfg) for i.DMA_ChannelCfg
    hc32f46x_dmac.o(.ARM.exidx) refers to hc32f46x_dmac.o(i.DMA_InitChannel) for i.DMA_InitChannel
    hc32f46x_dmac.o(.ARM.exidx) refers to hc32f46x_dmac.o(i.DMA_DeInit) for i.DMA_DeInit
    hc32f46x_efm.o(i.EFM_MassErase) refers to hc32f46x_efm.o(i.EFM_ClearFlag) for EFM_ClearFlag
    hc32f46x_efm.o(i.EFM_MassErase) refers to hc32f46x_efm.o(i.EFM_ErasePgmCmd) for EFM_ErasePgmCmd
    hc32f46x_efm.o(i.EFM_OtpLock) refers to hc32f46x_efm.o(i.EFM_ErasePgmCmd) for EFM_ErasePgmCmd
    hc32f46x_efm.o(i.EFM_OtpLock) refers to hc32f46x_efm.o(i.EFM_ClearFlag) for EFM_ClearFlag
    hc32f46x_efm.o(i.EFM_SectorErase) refers to hc32f46x_efm.o(i.EFM_ClearFlag) for EFM_ClearFlag
    hc32f46x_efm.o(i.EFM_SectorErase) refers to hc32f46x_efm.o(i.EFM_ErasePgmCmd) for EFM_ErasePgmCmd
    hc32f46x_efm.o(i.EFM_SequenceProgram) refers to hc32f46x_efm.o(i.EFM_ClearFlag) for EFM_ClearFlag
    hc32f46x_efm.o(i.EFM_SequenceProgram) refers to hc32f46x_efm.o(i.EFM_ErasePgmCmd) for EFM_ErasePgmCmd
    hc32f46x_efm.o(i.EFM_SequenceProgram) refers to hc32f46x_efm.o(i._ZN36_INTERNAL_14_hc32f46x_efm_c_8d1e840710EFM_MemcpyEPvS0_j) for [local to hc32f46x_efm_c]::EFM_Memcpy(void*, void*, unsigned)
    hc32f46x_efm.o(i.EFM_SingleProgram) refers to hc32f46x_efm.o(i.EFM_ClearFlag) for EFM_ClearFlag
    hc32f46x_efm.o(i.EFM_SingleProgram) refers to hc32f46x_efm.o(i.EFM_ErasePgmCmd) for EFM_ErasePgmCmd
    hc32f46x_efm.o(i.EFM_SingleProgramRB) refers to hc32f46x_efm.o(i.EFM_ClearFlag) for EFM_ClearFlag
    hc32f46x_efm.o(i.EFM_SingleProgramRB) refers to hc32f46x_efm.o(i.EFM_ErasePgmCmd) for EFM_ErasePgmCmd
    hc32f46x_efm.o(.ARM.exidx) refers to hc32f46x_efm.o(i.EFM_Unlock) for i.EFM_Unlock
    hc32f46x_efm.o(.ARM.exidx) refers to hc32f46x_efm.o(i.EFM_Lock) for i.EFM_Lock
    hc32f46x_efm.o(.ARM.exidx) refers to hc32f46x_efm.o(i.EFM_FlashCmd) for i.EFM_FlashCmd
    hc32f46x_efm.o(.ARM.exidx) refers to hc32f46x_efm.o(i.EFM_SetLatency) for i.EFM_SetLatency
    hc32f46x_efm.o(.ARM.exidx) refers to hc32f46x_efm.o(i.EFM_InstructionCacheCmd) for i.EFM_InstructionCacheCmd
    hc32f46x_efm.o(.ARM.exidx) refers to hc32f46x_efm.o(i.EFM_DataCacheRstCmd) for i.EFM_DataCacheRstCmd
    hc32f46x_efm.o(.ARM.exidx) refers to hc32f46x_efm.o(i.EFM_SetReadMode) for i.EFM_SetReadMode
    hc32f46x_efm.o(.ARM.exidx) refers to hc32f46x_efm.o(i.EFM_ErasePgmCmd) for i.EFM_ErasePgmCmd
    hc32f46x_efm.o(.ARM.exidx) refers to hc32f46x_efm.o(i.EFM_SetErasePgmMode) for i.EFM_SetErasePgmMode
    hc32f46x_efm.o(.ARM.exidx) refers to hc32f46x_efm.o(i.EFM_InterruptCmd) for i.EFM_InterruptCmd
    hc32f46x_efm.o(.ARM.exidx) refers to hc32f46x_efm.o(i.EFM_GetFlagStatus) for i.EFM_GetFlagStatus
    hc32f46x_efm.o(.ARM.exidx) refers to hc32f46x_efm.o(i.EFM_ClearFlag) for i.EFM_ClearFlag
    hc32f46x_efm.o(.ARM.exidx) refers to hc32f46x_efm.o(i.EFM_GetStatus) for i.EFM_GetStatus
    hc32f46x_efm.o(.ARM.exidx) refers to hc32f46x_efm.o(i.EFM_SetWinProtectAddr) for i.EFM_SetWinProtectAddr
    hc32f46x_efm.o(.ARM.exidx) refers to hc32f46x_efm.o(i.EFM_SetBusState) for i.EFM_SetBusState
    hc32f46x_efm.o(.ARM.exidx) refers to hc32f46x_efm.o(i.EFM_SingleProgram) for i.EFM_SingleProgram
    hc32f46x_efm.o(.ARM.exidx) refers to hc32f46x_efm.o(i.EFM_SingleProgramRB) for i.EFM_SingleProgramRB
    hc32f46x_efm.o(.ARM.exidx) refers to hc32f46x_efm.o(i._ZN36_INTERNAL_14_hc32f46x_efm_c_8d1e840710EFM_MemcpyEPvS0_j) for i._ZN36_INTERNAL_14_hc32f46x_efm_c_8d1e840710EFM_MemcpyEPvS0_j
    hc32f46x_efm.o(.ARM.exidx) refers to hc32f46x_efm.o(i.EFM_SequenceProgram) for i.EFM_SequenceProgram
    hc32f46x_efm.o(.ARM.exidx) refers to hc32f46x_efm.o(i.EFM_SectorErase) for i.EFM_SectorErase
    hc32f46x_efm.o(.ARM.exidx) refers to hc32f46x_efm.o(i.EFM_MassErase) for i.EFM_MassErase
    hc32f46x_efm.o(.ARM.exidx) refers to hc32f46x_efm.o(i.EFM_OtpLock) for i.EFM_OtpLock
    hc32f46x_efm.o(.ARM.exidx) refers to hc32f46x_efm.o(i.EFM_ReadUID) for i.EFM_ReadUID
    hc32f46x_exint_nmi_swi.o(i.NMI_DeInit) refers to hc32f46x_exint_nmi_swi.o(.data) for pfnNmiCallback
    hc32f46x_exint_nmi_swi.o(i.NMI_Init) refers to hc32f46x_exint_nmi_swi.o(.data) for pfnNmiCallback
    hc32f46x_exint_nmi_swi.o(i._Z14NMI_IrqHandlerv) refers to hc32f46x_exint_nmi_swi.o(.data) for pfnNmiCallback
    hc32f46x_exint_nmi_swi.o(.ARM.exidx) refers to hc32f46x_exint_nmi_swi.o(i.EXINT_Init) for i.EXINT_Init
    hc32f46x_exint_nmi_swi.o(.ARM.exidx) refers to hc32f46x_exint_nmi_swi.o(i.EXINT_IrqFlgGet) for i.EXINT_IrqFlgGet
    hc32f46x_exint_nmi_swi.o(.ARM.exidx) refers to hc32f46x_exint_nmi_swi.o(i.EXINT_IrqFlgClr) for i.EXINT_IrqFlgClr
    hc32f46x_exint_nmi_swi.o(.ARM.exidx) refers to hc32f46x_exint_nmi_swi.o(i.NMI_Init) for i.NMI_Init
    hc32f46x_exint_nmi_swi.o(.ARM.exidx) refers to hc32f46x_exint_nmi_swi.o(i.NMI_DeInit) for i.NMI_DeInit
    hc32f46x_exint_nmi_swi.o(.ARM.exidx) refers to hc32f46x_exint_nmi_swi.o(i.NMI_IrqFlgGet) for i.NMI_IrqFlgGet
    hc32f46x_exint_nmi_swi.o(.ARM.exidx) refers to hc32f46x_exint_nmi_swi.o(i.NMI_IrqFlgClr) for i.NMI_IrqFlgClr
    hc32f46x_exint_nmi_swi.o(.ARM.exidx) refers to hc32f46x_exint_nmi_swi.o(i._Z14NMI_IrqHandlerv) for i._Z14NMI_IrqHandlerv
    hc32f46x_exint_nmi_swi.o(.ARM.exidx) refers to hc32f46x_exint_nmi_swi.o(i.SWI_Enable) for i.SWI_Enable
    hc32f46x_exint_nmi_swi.o(.ARM.exidx) refers to hc32f46x_exint_nmi_swi.o(i.SWI_Disable) for i.SWI_Disable
    hc32f46x_gpio.o(i.PORT_DeInit) refers to hc32f46x_gpio.o(i.PORT_Unlock) for PORT_Unlock
    hc32f46x_gpio.o(i.PORT_DeInit) refers to hc32f46x_gpio.o(i.PORT_Lock) for PORT_Lock
    hc32f46x_gpio.o(i.PORT_DebugPortSetting) refers to hc32f46x_gpio.o(i.PORT_Unlock) for PORT_Unlock
    hc32f46x_gpio.o(i.PORT_DebugPortSetting) refers to hc32f46x_gpio.o(i.PORT_Lock) for PORT_Lock
    hc32f46x_gpio.o(i.PORT_Init) refers to hc32f46x_gpio.o(i.PORT_Unlock) for PORT_Unlock
    hc32f46x_gpio.o(i.PORT_Init) refers to hc32f46x_gpio.o(i.PORT_Lock) for PORT_Lock
    hc32f46x_gpio.o(i.PORT_PubSetting) refers to hc32f46x_gpio.o(i.PORT_Unlock) for PORT_Unlock
    hc32f46x_gpio.o(i.PORT_PubSetting) refers to hc32f46x_gpio.o(i.PORT_Lock) for PORT_Lock
    hc32f46x_gpio.o(i.PORT_SetFunc) refers to hc32f46x_gpio.o(i.PORT_Unlock) for PORT_Unlock
    hc32f46x_gpio.o(i.PORT_SetFunc) refers to hc32f46x_gpio.o(i.PORT_Lock) for PORT_Lock
    hc32f46x_gpio.o(i.PORT_SetSubFunc) refers to hc32f46x_gpio.o(i.PORT_Unlock) for PORT_Unlock
    hc32f46x_gpio.o(i.PORT_SetSubFunc) refers to hc32f46x_gpio.o(i.PORT_Lock) for PORT_Lock
    hc32f46x_gpio.o(i._Z13PORT_AlwaysOn7en_port19en_functional_state) refers to hc32f46x_gpio.o(i.PORT_Unlock) for PORT_Unlock
    hc32f46x_gpio.o(i._Z13PORT_AlwaysOn7en_port19en_functional_state) refers to hc32f46x_gpio.o(i.PORT_Lock) for PORT_Lock
    hc32f46x_gpio.o(.ARM.exidx) refers to hc32f46x_gpio.o(i.PORT_Lock) for i.PORT_Lock
    hc32f46x_gpio.o(.ARM.exidx) refers to hc32f46x_gpio.o(i.PORT_Unlock) for i.PORT_Unlock
    hc32f46x_gpio.o(.ARM.exidx) refers to hc32f46x_gpio.o(i.PORT_Init) for i.PORT_Init
    hc32f46x_gpio.o(.ARM.exidx) refers to hc32f46x_gpio.o(i.PORT_DeInit) for i.PORT_DeInit
    hc32f46x_gpio.o(.ARM.exidx) refers to hc32f46x_gpio.o(i.PORT_DebugPortSetting) for i.PORT_DebugPortSetting
    hc32f46x_gpio.o(.ARM.exidx) refers to hc32f46x_gpio.o(i.PORT_PubSetting) for i.PORT_PubSetting
    hc32f46x_gpio.o(.ARM.exidx) refers to hc32f46x_gpio.o(i.PORT_GetData) for i.PORT_GetData
    hc32f46x_gpio.o(.ARM.exidx) refers to hc32f46x_gpio.o(i.PORT_GetBit) for i.PORT_GetBit
    hc32f46x_gpio.o(.ARM.exidx) refers to hc32f46x_gpio.o(i.PORT_SetPortData) for i.PORT_SetPortData
    hc32f46x_gpio.o(.ARM.exidx) refers to hc32f46x_gpio.o(i.PORT_ResetPortData) for i.PORT_ResetPortData
    hc32f46x_gpio.o(.ARM.exidx) refers to hc32f46x_gpio.o(i.PORT_OE) for i.PORT_OE
    hc32f46x_gpio.o(.ARM.exidx) refers to hc32f46x_gpio.o(i.PORT_SetBits) for i.PORT_SetBits
    hc32f46x_gpio.o(.ARM.exidx) refers to hc32f46x_gpio.o(i.PORT_ResetBits) for i.PORT_ResetBits
    hc32f46x_gpio.o(.ARM.exidx) refers to hc32f46x_gpio.o(i.PORT_Toggle) for i.PORT_Toggle
    hc32f46x_gpio.o(.ARM.exidx) refers to hc32f46x_gpio.o(i._Z13PORT_AlwaysOn7en_port19en_functional_state) for i._Z13PORT_AlwaysOn7en_port19en_functional_state
    hc32f46x_gpio.o(.ARM.exidx) refers to hc32f46x_gpio.o(i.PORT_SetFunc) for i.PORT_SetFunc
    hc32f46x_gpio.o(.ARM.exidx) refers to hc32f46x_gpio.o(i.PORT_SetSubFunc) for i.PORT_SetSubFunc
    hc32f46x_i2c.o(i.I2C_BaudrateConfig) refers to hc32f46x_i2c.o(i._ZN36_INTERNAL_14_hc32f46x_i2c_c_fff7e30710GetFreqRegEf) for [local to hc32f46x_i2c_c]::GetFreqReg(float)
    hc32f46x_i2c.o(i.I2C_BaudrateConfig) refers to hc32f46x_i2c.o(.data) for u8FreqDiv
    hc32f46x_i2c.o(i.I2C_Init) refers to hc32f46x_i2c.o(i.I2C_BaudrateConfig) for I2C_BaudrateConfig
    hc32f46x_i2c.o(i.I2C_MasterDataReceiveAndStop) refers to hc32f46x_i2c.o(i.I2C_WaitStatus) for I2C_WaitStatus
    hc32f46x_i2c.o(i.I2C_MasterDataReceiveAndStop) refers to hc32f46x_i2c.o(i.I2C_AckConfig) for I2C_AckConfig
    hc32f46x_i2c.o(i.I2C_MasterDataReceiveAndStop) refers to hc32f46x_i2c.o(i.I2C_ClearStatus) for I2C_ClearStatus
    hc32f46x_i2c.o(i.I2C_MasterDataReceiveAndStop) refers to hc32f46x_i2c.o(i.I2C_GenerateStop) for I2C_GenerateStop
    hc32f46x_i2c.o(i.I2C_MasterDataReceiveAndStop) refers to hc32f46x_i2c.o(i.I2C_ReadData) for I2C_ReadData
    hc32f46x_i2c.o(i.I2C_ReceiveData) refers to hc32f46x_i2c.o(i.I2C_WaitStatus) for I2C_WaitStatus
    hc32f46x_i2c.o(i.I2C_ReceiveData) refers to hc32f46x_i2c.o(i.I2C_AckConfig) for I2C_AckConfig
    hc32f46x_i2c.o(i.I2C_ReceiveData) refers to hc32f46x_i2c.o(i.I2C_ReadData) for I2C_ReadData
    hc32f46x_i2c.o(i.I2C_Restart) refers to hc32f46x_i2c.o(i.I2C_ClearStatus) for I2C_ClearStatus
    hc32f46x_i2c.o(i.I2C_Restart) refers to hc32f46x_i2c.o(i.I2C_GenerateReStart) for I2C_GenerateReStart
    hc32f46x_i2c.o(i.I2C_Restart) refers to hc32f46x_i2c.o(i.I2C_WaitStatus) for I2C_WaitStatus
    hc32f46x_i2c.o(i.I2C_Start) refers to hc32f46x_i2c.o(i.I2C_WaitStatus) for I2C_WaitStatus
    hc32f46x_i2c.o(i.I2C_Start) refers to hc32f46x_i2c.o(i.I2C_GenerateStart) for I2C_GenerateStart
    hc32f46x_i2c.o(i.I2C_Stop) refers to hc32f46x_i2c.o(i.I2C_ClearStatus) for I2C_ClearStatus
    hc32f46x_i2c.o(i.I2C_Stop) refers to hc32f46x_i2c.o(i.I2C_GetStatus) for I2C_GetStatus
    hc32f46x_i2c.o(i.I2C_Stop) refers to hc32f46x_i2c.o(i.I2C_GenerateStop) for I2C_GenerateStop
    hc32f46x_i2c.o(i.I2C_Stop) refers to hc32f46x_i2c.o(i.I2C_WaitStatus) for I2C_WaitStatus
    hc32f46x_i2c.o(i.I2C_Trans10BitAddr) refers to hc32f46x_i2c.o(i.I2C_WaitStatus) for I2C_WaitStatus
    hc32f46x_i2c.o(i.I2C_Trans10BitAddr) refers to hc32f46x_i2c.o(i.I2C_WriteData) for I2C_WriteData
    hc32f46x_i2c.o(i.I2C_Trans10BitAddr) refers to hc32f46x_i2c.o(i.I2C_GetStatus) for I2C_GetStatus
    hc32f46x_i2c.o(i.I2C_Trans10BitAddr) refers to hc32f46x_i2c.o(i.I2C_ClearStatus) for I2C_ClearStatus
    hc32f46x_i2c.o(i.I2C_Trans10BitAddr) refers to hc32f46x_i2c.o(i.I2C_GenerateReStart) for I2C_GenerateReStart
    hc32f46x_i2c.o(i.I2C_TransAddr) refers to hc32f46x_i2c.o(i.I2C_WaitStatus) for I2C_WaitStatus
    hc32f46x_i2c.o(i.I2C_TransAddr) refers to hc32f46x_i2c.o(i.I2C_WriteData) for I2C_WriteData
    hc32f46x_i2c.o(i.I2C_TransAddr) refers to hc32f46x_i2c.o(i.I2C_GetStatus) for I2C_GetStatus
    hc32f46x_i2c.o(i.I2C_TransData) refers to hc32f46x_i2c.o(i.I2C_WaitStatus) for I2C_WaitStatus
    hc32f46x_i2c.o(i.I2C_TransData) refers to hc32f46x_i2c.o(i.I2C_WriteData) for I2C_WriteData
    hc32f46x_i2c.o(i.I2C_TransData) refers to hc32f46x_i2c.o(i.I2C_GetStatus) for I2C_GetStatus
    hc32f46x_i2c.o(i.I2C_TransData) refers to hc32f46x_i2c.o(i.I2C_ClearStatus) for I2C_ClearStatus
    hc32f46x_i2c.o(i._ZN36_INTERNAL_14_hc32f46x_i2c_c_fff7e30710GetFreqRegEf) refers to hc32f46x_i2c.o(.data) for u8FreqDiv
    hc32f46x_i2c.o(.ARM.exidx) refers to hc32f46x_i2c.o(i._ZN36_INTERNAL_14_hc32f46x_i2c_c_fff7e30710GetFreqRegEf) for i._ZN36_INTERNAL_14_hc32f46x_i2c_c_fff7e30710GetFreqRegEf
    hc32f46x_i2c.o(.ARM.exidx) refers to hc32f46x_i2c.o(i.I2C_WaitStatus) for i.I2C_WaitStatus
    hc32f46x_i2c.o(.ARM.exidx) refers to hc32f46x_i2c.o(i.I2C_GenerateStart) for i.I2C_GenerateStart
    hc32f46x_i2c.o(.ARM.exidx) refers to hc32f46x_i2c.o(i.I2C_GenerateReStart) for i.I2C_GenerateReStart
    hc32f46x_i2c.o(.ARM.exidx) refers to hc32f46x_i2c.o(i.I2C_GenerateStop) for i.I2C_GenerateStop
    hc32f46x_i2c.o(.ARM.exidx) refers to hc32f46x_i2c.o(i.I2C_BaudrateConfig) for i.I2C_BaudrateConfig
    hc32f46x_i2c.o(.ARM.exidx) refers to hc32f46x_i2c.o(i.I2C_DeInit) for i.I2C_DeInit
    hc32f46x_i2c.o(.ARM.exidx) refers to hc32f46x_i2c.o(i.I2C_Init) for i.I2C_Init
    hc32f46x_i2c.o(.ARM.exidx) refers to hc32f46x_i2c.o(i.I2C_SlaveAdr0Config) for i.I2C_SlaveAdr0Config
    hc32f46x_i2c.o(.ARM.exidx) refers to hc32f46x_i2c.o(i.I2C_SlaveAdr1Config) for i.I2C_SlaveAdr1Config
    hc32f46x_i2c.o(.ARM.exidx) refers to hc32f46x_i2c.o(i.I2C_Cmd) for i.I2C_Cmd
    hc32f46x_i2c.o(.ARM.exidx) refers to hc32f46x_i2c.o(i.I2C_FastAckCmd) for i.I2C_FastAckCmd
    hc32f46x_i2c.o(.ARM.exidx) refers to hc32f46x_i2c.o(i.I2C_BusWaitCmd) for i.I2C_BusWaitCmd
    hc32f46x_i2c.o(.ARM.exidx) refers to hc32f46x_i2c.o(i.I2C_SmbusConfig) for i.I2C_SmbusConfig
    hc32f46x_i2c.o(.ARM.exidx) refers to hc32f46x_i2c.o(i.I2C_SmBusCmd) for i.I2C_SmBusCmd
    hc32f46x_i2c.o(.ARM.exidx) refers to hc32f46x_i2c.o(i.I2C_DigitalFilterConfig) for i.I2C_DigitalFilterConfig
    hc32f46x_i2c.o(.ARM.exidx) refers to hc32f46x_i2c.o(i.I2C_DigitalFilterCmd) for i.I2C_DigitalFilterCmd
    hc32f46x_i2c.o(.ARM.exidx) refers to hc32f46x_i2c.o(i.I2C_AnalogFilterCmd) for i.I2C_AnalogFilterCmd
    hc32f46x_i2c.o(.ARM.exidx) refers to hc32f46x_i2c.o(i.I2C_GeneralCallCmd) for i.I2C_GeneralCallCmd
    hc32f46x_i2c.o(.ARM.exidx) refers to hc32f46x_i2c.o(i.I2C_GetStatus) for i.I2C_GetStatus
    hc32f46x_i2c.o(.ARM.exidx) refers to hc32f46x_i2c.o(i.I2C_ClearStatus) for i.I2C_ClearStatus
    hc32f46x_i2c.o(.ARM.exidx) refers to hc32f46x_i2c.o(i.I2C_SoftwareResetCmd) for i.I2C_SoftwareResetCmd
    hc32f46x_i2c.o(.ARM.exidx) refers to hc32f46x_i2c.o(i.I2C_IntCmd) for i.I2C_IntCmd
    hc32f46x_i2c.o(.ARM.exidx) refers to hc32f46x_i2c.o(i.I2C_WriteData) for i.I2C_WriteData
    hc32f46x_i2c.o(.ARM.exidx) refers to hc32f46x_i2c.o(i.I2C_ReadData) for i.I2C_ReadData
    hc32f46x_i2c.o(.ARM.exidx) refers to hc32f46x_i2c.o(i.I2C_AckConfig) for i.I2C_AckConfig
    hc32f46x_i2c.o(.ARM.exidx) refers to hc32f46x_i2c.o(i.I2C_ClkTimeOutConfig) for i.I2C_ClkTimeOutConfig
    hc32f46x_i2c.o(.ARM.exidx) refers to hc32f46x_i2c.o(i.I2C_Start) for i.I2C_Start
    hc32f46x_i2c.o(.ARM.exidx) refers to hc32f46x_i2c.o(i.I2C_Restart) for i.I2C_Restart
    hc32f46x_i2c.o(.ARM.exidx) refers to hc32f46x_i2c.o(i.I2C_TransAddr) for i.I2C_TransAddr
    hc32f46x_i2c.o(.ARM.exidx) refers to hc32f46x_i2c.o(i.I2C_Trans10BitAddr) for i.I2C_Trans10BitAddr
    hc32f46x_i2c.o(.ARM.exidx) refers to hc32f46x_i2c.o(i.I2C_TransData) for i.I2C_TransData
    hc32f46x_i2c.o(.ARM.exidx) refers to hc32f46x_i2c.o(i.I2C_ReceiveData) for i.I2C_ReceiveData
    hc32f46x_i2c.o(.ARM.exidx) refers to hc32f46x_i2c.o(i.I2C_MasterDataReceiveAndStop) for i.I2C_MasterDataReceiveAndStop
    hc32f46x_i2c.o(.ARM.exidx) refers to hc32f46x_i2c.o(i.I2C_Stop) for i.I2C_Stop
    hc32f46x_interrupts.o(i.IRQ000_Handler) refers to hc32f46x_interrupts.o(.bss) for IrqHandler
    hc32f46x_interrupts.o(i.IRQ001_Handler) refers to hc32f46x_interrupts.o(.bss) for IrqHandler
    hc32f46x_interrupts.o(i.IRQ002_Handler) refers to hc32f46x_interrupts.o(.bss) for IrqHandler
    hc32f46x_interrupts.o(i.IRQ003_Handler) refers to hc32f46x_interrupts.o(.bss) for IrqHandler
    hc32f46x_interrupts.o(i.IRQ004_Handler) refers to hc32f46x_interrupts.o(.bss) for IrqHandler
    hc32f46x_interrupts.o(i.IRQ005_Handler) refers to hc32f46x_interrupts.o(.bss) for IrqHandler
    hc32f46x_interrupts.o(i.IRQ006_Handler) refers to hc32f46x_interrupts.o(.bss) for IrqHandler
    hc32f46x_interrupts.o(i.IRQ007_Handler) refers to hc32f46x_interrupts.o(.bss) for IrqHandler
    hc32f46x_interrupts.o(i.IRQ008_Handler) refers to hc32f46x_interrupts.o(.bss) for IrqHandler
    hc32f46x_interrupts.o(i.IRQ009_Handler) refers to hc32f46x_interrupts.o(.bss) for IrqHandler
    hc32f46x_interrupts.o(i.IRQ010_Handler) refers to hc32f46x_interrupts.o(.bss) for IrqHandler
    hc32f46x_interrupts.o(i.IRQ011_Handler) refers to hc32f46x_interrupts.o(.bss) for IrqHandler
    hc32f46x_interrupts.o(i.IRQ012_Handler) refers to hc32f46x_interrupts.o(.bss) for IrqHandler
    hc32f46x_interrupts.o(i.IRQ013_Handler) refers to hc32f46x_interrupts.o(.bss) for IrqHandler
    hc32f46x_interrupts.o(i.IRQ014_Handler) refers to hc32f46x_interrupts.o(.bss) for IrqHandler
    hc32f46x_interrupts.o(i.IRQ015_Handler) refers to hc32f46x_interrupts.o(.bss) for IrqHandler
    hc32f46x_interrupts.o(i.IRQ016_Handler) refers to hc32f46x_interrupts.o(.bss) for IrqHandler
    hc32f46x_interrupts.o(i.IRQ017_Handler) refers to hc32f46x_interrupts.o(.bss) for IrqHandler
    hc32f46x_interrupts.o(i.IRQ018_Handler) refers to hc32f46x_interrupts.o(.bss) for IrqHandler
    hc32f46x_interrupts.o(i.IRQ019_Handler) refers to hc32f46x_interrupts.o(.bss) for IrqHandler
    hc32f46x_interrupts.o(i.IRQ020_Handler) refers to hc32f46x_interrupts.o(.bss) for IrqHandler
    hc32f46x_interrupts.o(i.IRQ021_Handler) refers to hc32f46x_interrupts.o(.bss) for IrqHandler
    hc32f46x_interrupts.o(i.IRQ022_Handler) refers to hc32f46x_interrupts.o(.bss) for IrqHandler
    hc32f46x_interrupts.o(i.IRQ023_Handler) refers to hc32f46x_interrupts.o(.bss) for IrqHandler
    hc32f46x_interrupts.o(i.IRQ024_Handler) refers to hc32f46x_interrupts.o(.bss) for IrqHandler
    hc32f46x_interrupts.o(i.IRQ025_Handler) refers to hc32f46x_interrupts.o(.bss) for IrqHandler
    hc32f46x_interrupts.o(i.IRQ026_Handler) refers to hc32f46x_interrupts.o(.bss) for IrqHandler
    hc32f46x_interrupts.o(i.IRQ027_Handler) refers to hc32f46x_interrupts.o(.bss) for IrqHandler
    hc32f46x_interrupts.o(i.IRQ028_Handler) refers to hc32f46x_interrupts.o(.bss) for IrqHandler
    hc32f46x_interrupts.o(i.IRQ029_Handler) refers to hc32f46x_interrupts.o(.bss) for IrqHandler
    hc32f46x_interrupts.o(i.IRQ030_Handler) refers to hc32f46x_interrupts.o(.bss) for IrqHandler
    hc32f46x_interrupts.o(i.IRQ031_Handler) refers to hc32f46x_interrupts.o(.bss) for IrqHandler
    hc32f46x_interrupts.o(i.IRQ032_Handler) refers to hc32f46x_interrupts.o(.bss) for IrqHandler
    hc32f46x_interrupts.o(i.IRQ033_Handler) refers to hc32f46x_interrupts.o(.bss) for IrqHandler
    hc32f46x_interrupts.o(i.IRQ034_Handler) refers to hc32f46x_interrupts.o(.bss) for IrqHandler
    hc32f46x_interrupts.o(i.IRQ035_Handler) refers to hc32f46x_interrupts.o(.bss) for IrqHandler
    hc32f46x_interrupts.o(i.IRQ036_Handler) refers to hc32f46x_interrupts.o(.bss) for IrqHandler
    hc32f46x_interrupts.o(i.IRQ037_Handler) refers to hc32f46x_interrupts.o(.bss) for IrqHandler
    hc32f46x_interrupts.o(i.IRQ038_Handler) refers to hc32f46x_interrupts.o(.bss) for IrqHandler
    hc32f46x_interrupts.o(i.IRQ039_Handler) refers to hc32f46x_interrupts.o(.bss) for IrqHandler
    hc32f46x_interrupts.o(i.IRQ040_Handler) refers to hc32f46x_interrupts.o(.bss) for IrqHandler
    hc32f46x_interrupts.o(i.IRQ041_Handler) refers to hc32f46x_interrupts.o(.bss) for IrqHandler
    hc32f46x_interrupts.o(i.IRQ042_Handler) refers to hc32f46x_interrupts.o(.bss) for IrqHandler
    hc32f46x_interrupts.o(i.IRQ043_Handler) refers to hc32f46x_interrupts.o(.bss) for IrqHandler
    hc32f46x_interrupts.o(i.IRQ044_Handler) refers to hc32f46x_interrupts.o(.bss) for IrqHandler
    hc32f46x_interrupts.o(i.IRQ045_Handler) refers to hc32f46x_interrupts.o(.bss) for IrqHandler
    hc32f46x_interrupts.o(i.IRQ046_Handler) refers to hc32f46x_interrupts.o(.bss) for IrqHandler
    hc32f46x_interrupts.o(i.IRQ047_Handler) refers to hc32f46x_interrupts.o(.bss) for IrqHandler
    hc32f46x_interrupts.o(i.IRQ048_Handler) refers to hc32f46x_interrupts.o(.bss) for IrqHandler
    hc32f46x_interrupts.o(i.IRQ049_Handler) refers to hc32f46x_interrupts.o(.bss) for IrqHandler
    hc32f46x_interrupts.o(i.IRQ050_Handler) refers to hc32f46x_interrupts.o(.bss) for IrqHandler
    hc32f46x_interrupts.o(i.IRQ051_Handler) refers to hc32f46x_interrupts.o(.bss) for IrqHandler
    hc32f46x_interrupts.o(i.IRQ052_Handler) refers to hc32f46x_interrupts.o(.bss) for IrqHandler
    hc32f46x_interrupts.o(i.IRQ053_Handler) refers to hc32f46x_interrupts.o(.bss) for IrqHandler
    hc32f46x_interrupts.o(i.IRQ054_Handler) refers to hc32f46x_interrupts.o(.bss) for IrqHandler
    hc32f46x_interrupts.o(i.IRQ055_Handler) refers to hc32f46x_interrupts.o(.bss) for IrqHandler
    hc32f46x_interrupts.o(i.IRQ056_Handler) refers to hc32f46x_interrupts.o(.bss) for IrqHandler
    hc32f46x_interrupts.o(i.IRQ057_Handler) refers to hc32f46x_interrupts.o(.bss) for IrqHandler
    hc32f46x_interrupts.o(i.IRQ058_Handler) refers to hc32f46x_interrupts.o(.bss) for IrqHandler
    hc32f46x_interrupts.o(i.IRQ059_Handler) refers to hc32f46x_interrupts.o(.bss) for IrqHandler
    hc32f46x_interrupts.o(i.IRQ060_Handler) refers to hc32f46x_interrupts.o(.bss) for IrqHandler
    hc32f46x_interrupts.o(i.IRQ061_Handler) refers to hc32f46x_interrupts.o(.bss) for IrqHandler
    hc32f46x_interrupts.o(i.IRQ062_Handler) refers to hc32f46x_interrupts.o(.bss) for IrqHandler
    hc32f46x_interrupts.o(i.IRQ063_Handler) refers to hc32f46x_interrupts.o(.bss) for IrqHandler
    hc32f46x_interrupts.o(i.IRQ064_Handler) refers to hc32f46x_interrupts.o(.bss) for IrqHandler
    hc32f46x_interrupts.o(i.IRQ065_Handler) refers to hc32f46x_interrupts.o(.bss) for IrqHandler
    hc32f46x_interrupts.o(i.IRQ066_Handler) refers to hc32f46x_interrupts.o(.bss) for IrqHandler
    hc32f46x_interrupts.o(i.IRQ067_Handler) refers to hc32f46x_interrupts.o(.bss) for IrqHandler
    hc32f46x_interrupts.o(i.IRQ068_Handler) refers to hc32f46x_interrupts.o(.bss) for IrqHandler
    hc32f46x_interrupts.o(i.IRQ069_Handler) refers to hc32f46x_interrupts.o(.bss) for IrqHandler
    hc32f46x_interrupts.o(i.IRQ070_Handler) refers to hc32f46x_interrupts.o(.bss) for IrqHandler
    hc32f46x_interrupts.o(i.IRQ071_Handler) refers to hc32f46x_interrupts.o(.bss) for IrqHandler
    hc32f46x_interrupts.o(i.IRQ072_Handler) refers to hc32f46x_interrupts.o(.bss) for IrqHandler
    hc32f46x_interrupts.o(i.IRQ073_Handler) refers to hc32f46x_interrupts.o(.bss) for IrqHandler
    hc32f46x_interrupts.o(i.IRQ074_Handler) refers to hc32f46x_interrupts.o(.bss) for IrqHandler
    hc32f46x_interrupts.o(i.IRQ075_Handler) refers to hc32f46x_interrupts.o(.bss) for IrqHandler
    hc32f46x_interrupts.o(i.IRQ076_Handler) refers to hc32f46x_interrupts.o(.bss) for IrqHandler
    hc32f46x_interrupts.o(i.IRQ077_Handler) refers to hc32f46x_interrupts.o(.bss) for IrqHandler
    hc32f46x_interrupts.o(i.IRQ078_Handler) refers to hc32f46x_interrupts.o(.bss) for IrqHandler
    hc32f46x_interrupts.o(i.IRQ079_Handler) refers to hc32f46x_interrupts.o(.bss) for IrqHandler
    hc32f46x_interrupts.o(i.IRQ080_Handler) refers to hc32f46x_interrupts.o(.bss) for IrqHandler
    hc32f46x_interrupts.o(i.IRQ081_Handler) refers to hc32f46x_interrupts.o(.bss) for IrqHandler
    hc32f46x_interrupts.o(i.IRQ082_Handler) refers to hc32f46x_interrupts.o(.bss) for IrqHandler
    hc32f46x_interrupts.o(i.IRQ083_Handler) refers to hc32f46x_interrupts.o(.bss) for IrqHandler
    hc32f46x_interrupts.o(i.IRQ084_Handler) refers to hc32f46x_interrupts.o(.bss) for IrqHandler
    hc32f46x_interrupts.o(i.IRQ085_Handler) refers to hc32f46x_interrupts.o(.bss) for IrqHandler
    hc32f46x_interrupts.o(i.IRQ086_Handler) refers to hc32f46x_interrupts.o(.bss) for IrqHandler
    hc32f46x_interrupts.o(i.IRQ087_Handler) refers to hc32f46x_interrupts.o(.bss) for IrqHandler
    hc32f46x_interrupts.o(i.IRQ088_Handler) refers to hc32f46x_interrupts.o(.bss) for IrqHandler
    hc32f46x_interrupts.o(i.IRQ089_Handler) refers to hc32f46x_interrupts.o(.bss) for IrqHandler
    hc32f46x_interrupts.o(i.IRQ090_Handler) refers to hc32f46x_interrupts.o(.bss) for IrqHandler
    hc32f46x_interrupts.o(i.IRQ091_Handler) refers to hc32f46x_interrupts.o(.bss) for IrqHandler
    hc32f46x_interrupts.o(i.IRQ092_Handler) refers to hc32f46x_interrupts.o(.bss) for IrqHandler
    hc32f46x_interrupts.o(i.IRQ093_Handler) refers to hc32f46x_interrupts.o(.bss) for IrqHandler
    hc32f46x_interrupts.o(i.IRQ094_Handler) refers to hc32f46x_interrupts.o(.bss) for IrqHandler
    hc32f46x_interrupts.o(i.IRQ095_Handler) refers to hc32f46x_interrupts.o(.bss) for IrqHandler
    hc32f46x_interrupts.o(i.IRQ096_Handler) refers to hc32f46x_interrupts.o(.bss) for IrqHandler
    hc32f46x_interrupts.o(i.IRQ097_Handler) refers to hc32f46x_interrupts.o(.bss) for IrqHandler
    hc32f46x_interrupts.o(i.IRQ098_Handler) refers to hc32f46x_interrupts.o(.bss) for IrqHandler
    hc32f46x_interrupts.o(i.IRQ099_Handler) refers to hc32f46x_interrupts.o(.bss) for IrqHandler
    hc32f46x_interrupts.o(i.SysTick_Handler) refers (Weak) to board_tim0.o(i.SysTick_IrqHandler) for SysTick_IrqHandler
    hc32f46x_interrupts.o(i._Z14IRQ100_Handlerv) refers to hc32f46x_interrupts.o(.bss) for IrqHandler
    hc32f46x_interrupts.o(i._Z14IRQ101_Handlerv) refers to hc32f46x_interrupts.o(.bss) for IrqHandler
    hc32f46x_interrupts.o(i._Z14IRQ102_Handlerv) refers to hc32f46x_interrupts.o(.bss) for IrqHandler
    hc32f46x_interrupts.o(i._Z14IRQ103_Handlerv) refers to hc32f46x_interrupts.o(.bss) for IrqHandler
    hc32f46x_interrupts.o(i._Z14IRQ104_Handlerv) refers to hc32f46x_interrupts.o(.bss) for IrqHandler
    hc32f46x_interrupts.o(i._Z14IRQ105_Handlerv) refers to hc32f46x_interrupts.o(.bss) for IrqHandler
    hc32f46x_interrupts.o(i._Z14IRQ106_Handlerv) refers to hc32f46x_interrupts.o(.bss) for IrqHandler
    hc32f46x_interrupts.o(i._Z14IRQ107_Handlerv) refers to hc32f46x_interrupts.o(.bss) for IrqHandler
    hc32f46x_interrupts.o(i._Z14IRQ108_Handlerv) refers to hc32f46x_interrupts.o(.bss) for IrqHandler
    hc32f46x_interrupts.o(i._Z14IRQ109_Handlerv) refers to hc32f46x_interrupts.o(.bss) for IrqHandler
    hc32f46x_interrupts.o(i._Z14IRQ110_Handlerv) refers to hc32f46x_interrupts.o(.bss) for IrqHandler
    hc32f46x_interrupts.o(i._Z14IRQ111_Handlerv) refers to hc32f46x_interrupts.o(.bss) for IrqHandler
    hc32f46x_interrupts.o(i._Z14IRQ112_Handlerv) refers to hc32f46x_interrupts.o(.bss) for IrqHandler
    hc32f46x_interrupts.o(i._Z14IRQ113_Handlerv) refers to hc32f46x_interrupts.o(.bss) for IrqHandler
    hc32f46x_interrupts.o(i._Z14IRQ114_Handlerv) refers to hc32f46x_interrupts.o(.bss) for IrqHandler
    hc32f46x_interrupts.o(i._Z14IRQ115_Handlerv) refers to hc32f46x_interrupts.o(.bss) for IrqHandler
    hc32f46x_interrupts.o(i._Z14IRQ116_Handlerv) refers to hc32f46x_interrupts.o(.bss) for IrqHandler
    hc32f46x_interrupts.o(i._Z14IRQ117_Handlerv) refers to hc32f46x_interrupts.o(.bss) for IrqHandler
    hc32f46x_interrupts.o(i._Z14IRQ118_Handlerv) refers to hc32f46x_interrupts.o(.bss) for IrqHandler
    hc32f46x_interrupts.o(i._Z14IRQ119_Handlerv) refers to hc32f46x_interrupts.o(.bss) for IrqHandler
    hc32f46x_interrupts.o(i._Z14IRQ120_Handlerv) refers to hc32f46x_interrupts.o(.bss) for IrqHandler
    hc32f46x_interrupts.o(i._Z14IRQ121_Handlerv) refers to hc32f46x_interrupts.o(.bss) for IrqHandler
    hc32f46x_interrupts.o(i._Z14IRQ122_Handlerv) refers to hc32f46x_interrupts.o(.bss) for IrqHandler
    hc32f46x_interrupts.o(i._Z14IRQ123_Handlerv) refers to hc32f46x_interrupts.o(.bss) for IrqHandler
    hc32f46x_interrupts.o(i._Z14IRQ124_Handlerv) refers to hc32f46x_interrupts.o(.bss) for IrqHandler
    hc32f46x_interrupts.o(i._Z14IRQ125_Handlerv) refers to hc32f46x_interrupts.o(.bss) for IrqHandler
    hc32f46x_interrupts.o(i._Z14IRQ126_Handlerv) refers to hc32f46x_interrupts.o(.bss) for IrqHandler
    hc32f46x_interrupts.o(i._Z14IRQ127_Handlerv) refers to hc32f46x_interrupts.o(.bss) for IrqHandler
    hc32f46x_interrupts.o(i.enIrqRegistration) refers to hc32f46x_interrupts.o(.bss) for IrqHandler
    hc32f46x_interrupts.o(i.enIrqResign) refers to hc32f46x_interrupts.o(.bss) for IrqHandler
    hc32f46x_interrupts.o(.ARM.exidx) refers to hc32f46x_interrupts.o(i.enIrqRegistration) for i.enIrqRegistration
    hc32f46x_interrupts.o(.ARM.exidx) refers to hc32f46x_interrupts.o(i.enIrqResign) for i.enIrqResign
    hc32f46x_interrupts.o(.ARM.exidx) refers to hc32f46x_interrupts.o(i.enShareIrqEnable) for i.enShareIrqEnable
    hc32f46x_interrupts.o(.ARM.exidx) refers to hc32f46x_interrupts.o(i.enShareIrqDisable) for i.enShareIrqDisable
    hc32f46x_interrupts.o(.ARM.exidx) refers to hc32f46x_interrupts.o(i.enIntWakeupEnable) for i.enIntWakeupEnable
    hc32f46x_interrupts.o(.ARM.exidx) refers to hc32f46x_interrupts.o(i.enIntWakeupDisable) for i.enIntWakeupDisable
    hc32f46x_interrupts.o(.ARM.exidx) refers to hc32f46x_interrupts.o(i.enEventEnable) for i.enEventEnable
    hc32f46x_interrupts.o(.ARM.exidx) refers to hc32f46x_interrupts.o(i.enEventDisable) for i.enEventDisable
    hc32f46x_interrupts.o(.ARM.exidx) refers to hc32f46x_interrupts.o(i.enIntEnable) for i.enIntEnable
    hc32f46x_interrupts.o(.ARM.exidx) refers to hc32f46x_interrupts.o(i.enIntDisable) for i.enIntDisable
    hc32f46x_interrupts.o(.ARM.exidx) refers to hc32f46x_interrupts.o(i._Z11NMI_Handlerv) for i._Z11NMI_Handlerv
    hc32f46x_interrupts.o(.ARM.exidx) refers to hc32f46x_interrupts.o(i._Z17HardFault_Handlerv) for i._Z17HardFault_Handlerv
    hc32f46x_interrupts.o(.ARM.exidx) refers to hc32f46x_interrupts.o(i._Z17MemManage_Handlerv) for i._Z17MemManage_Handlerv
    hc32f46x_interrupts.o(.ARM.exidx) refers to hc32f46x_interrupts.o(i._Z16BusFault_Handlerv) for i._Z16BusFault_Handlerv
    hc32f46x_interrupts.o(.ARM.exidx) refers to hc32f46x_interrupts.o(i._Z18UsageFault_Handlerv) for i._Z18UsageFault_Handlerv
    hc32f46x_interrupts.o(.ARM.exidx) refers to hc32f46x_interrupts.o(i._Z11SVC_Handlerv) for i._Z11SVC_Handlerv
    hc32f46x_interrupts.o(.ARM.exidx) refers to hc32f46x_interrupts.o(i._Z16DebugMon_Handlerv) for i._Z16DebugMon_Handlerv
    hc32f46x_interrupts.o(.ARM.exidx) refers to hc32f46x_interrupts.o(i._Z14PendSV_Handlerv) for i._Z14PendSV_Handlerv
    hc32f46x_interrupts.o(.ARM.exidx) refers to hc32f46x_interrupts.o(i.SysTick_Handler) for i.SysTick_Handler
    hc32f46x_interrupts.o(.ARM.exidx) refers to hc32f46x_interrupts.o(i.IRQ000_Handler) for i.IRQ000_Handler
    hc32f46x_interrupts.o(.ARM.exidx) refers to hc32f46x_interrupts.o(i.IRQ001_Handler) for i.IRQ001_Handler
    hc32f46x_interrupts.o(.ARM.exidx) refers to hc32f46x_interrupts.o(i.IRQ002_Handler) for i.IRQ002_Handler
    hc32f46x_interrupts.o(.ARM.exidx) refers to hc32f46x_interrupts.o(i.IRQ003_Handler) for i.IRQ003_Handler
    hc32f46x_interrupts.o(.ARM.exidx) refers to hc32f46x_interrupts.o(i.IRQ004_Handler) for i.IRQ004_Handler
    hc32f46x_interrupts.o(.ARM.exidx) refers to hc32f46x_interrupts.o(i.IRQ005_Handler) for i.IRQ005_Handler
    hc32f46x_interrupts.o(.ARM.exidx) refers to hc32f46x_interrupts.o(i.IRQ006_Handler) for i.IRQ006_Handler
    hc32f46x_interrupts.o(.ARM.exidx) refers to hc32f46x_interrupts.o(i.IRQ007_Handler) for i.IRQ007_Handler
    hc32f46x_interrupts.o(.ARM.exidx) refers to hc32f46x_interrupts.o(i.IRQ008_Handler) for i.IRQ008_Handler
    hc32f46x_interrupts.o(.ARM.exidx) refers to hc32f46x_interrupts.o(i.IRQ009_Handler) for i.IRQ009_Handler
    hc32f46x_interrupts.o(.ARM.exidx) refers to hc32f46x_interrupts.o(i.IRQ010_Handler) for i.IRQ010_Handler
    hc32f46x_interrupts.o(.ARM.exidx) refers to hc32f46x_interrupts.o(i.IRQ011_Handler) for i.IRQ011_Handler
    hc32f46x_interrupts.o(.ARM.exidx) refers to hc32f46x_interrupts.o(i.IRQ012_Handler) for i.IRQ012_Handler
    hc32f46x_interrupts.o(.ARM.exidx) refers to hc32f46x_interrupts.o(i.IRQ013_Handler) for i.IRQ013_Handler
    hc32f46x_interrupts.o(.ARM.exidx) refers to hc32f46x_interrupts.o(i.IRQ014_Handler) for i.IRQ014_Handler
    hc32f46x_interrupts.o(.ARM.exidx) refers to hc32f46x_interrupts.o(i.IRQ015_Handler) for i.IRQ015_Handler
    hc32f46x_interrupts.o(.ARM.exidx) refers to hc32f46x_interrupts.o(i.IRQ016_Handler) for i.IRQ016_Handler
    hc32f46x_interrupts.o(.ARM.exidx) refers to hc32f46x_interrupts.o(i.IRQ017_Handler) for i.IRQ017_Handler
    hc32f46x_interrupts.o(.ARM.exidx) refers to hc32f46x_interrupts.o(i.IRQ018_Handler) for i.IRQ018_Handler
    hc32f46x_interrupts.o(.ARM.exidx) refers to hc32f46x_interrupts.o(i.IRQ019_Handler) for i.IRQ019_Handler
    hc32f46x_interrupts.o(.ARM.exidx) refers to hc32f46x_interrupts.o(i.IRQ020_Handler) for i.IRQ020_Handler
    hc32f46x_interrupts.o(.ARM.exidx) refers to hc32f46x_interrupts.o(i.IRQ021_Handler) for i.IRQ021_Handler
    hc32f46x_interrupts.o(.ARM.exidx) refers to hc32f46x_interrupts.o(i.IRQ022_Handler) for i.IRQ022_Handler
    hc32f46x_interrupts.o(.ARM.exidx) refers to hc32f46x_interrupts.o(i.IRQ023_Handler) for i.IRQ023_Handler
    hc32f46x_interrupts.o(.ARM.exidx) refers to hc32f46x_interrupts.o(i.IRQ024_Handler) for i.IRQ024_Handler
    hc32f46x_interrupts.o(.ARM.exidx) refers to hc32f46x_interrupts.o(i.IRQ025_Handler) for i.IRQ025_Handler
    hc32f46x_interrupts.o(.ARM.exidx) refers to hc32f46x_interrupts.o(i.IRQ026_Handler) for i.IRQ026_Handler
    hc32f46x_interrupts.o(.ARM.exidx) refers to hc32f46x_interrupts.o(i.IRQ027_Handler) for i.IRQ027_Handler
    hc32f46x_interrupts.o(.ARM.exidx) refers to hc32f46x_interrupts.o(i.IRQ028_Handler) for i.IRQ028_Handler
    hc32f46x_interrupts.o(.ARM.exidx) refers to hc32f46x_interrupts.o(i.IRQ029_Handler) for i.IRQ029_Handler
    hc32f46x_interrupts.o(.ARM.exidx) refers to hc32f46x_interrupts.o(i.IRQ030_Handler) for i.IRQ030_Handler
    hc32f46x_interrupts.o(.ARM.exidx) refers to hc32f46x_interrupts.o(i.IRQ031_Handler) for i.IRQ031_Handler
    hc32f46x_interrupts.o(.ARM.exidx) refers to hc32f46x_interrupts.o(i.IRQ032_Handler) for i.IRQ032_Handler
    hc32f46x_interrupts.o(.ARM.exidx) refers to hc32f46x_interrupts.o(i.IRQ033_Handler) for i.IRQ033_Handler
    hc32f46x_interrupts.o(.ARM.exidx) refers to hc32f46x_interrupts.o(i.IRQ034_Handler) for i.IRQ034_Handler
    hc32f46x_interrupts.o(.ARM.exidx) refers to hc32f46x_interrupts.o(i.IRQ035_Handler) for i.IRQ035_Handler
    hc32f46x_interrupts.o(.ARM.exidx) refers to hc32f46x_interrupts.o(i.IRQ036_Handler) for i.IRQ036_Handler
    hc32f46x_interrupts.o(.ARM.exidx) refers to hc32f46x_interrupts.o(i.IRQ037_Handler) for i.IRQ037_Handler
    hc32f46x_interrupts.o(.ARM.exidx) refers to hc32f46x_interrupts.o(i.IRQ038_Handler) for i.IRQ038_Handler
    hc32f46x_interrupts.o(.ARM.exidx) refers to hc32f46x_interrupts.o(i.IRQ039_Handler) for i.IRQ039_Handler
    hc32f46x_interrupts.o(.ARM.exidx) refers to hc32f46x_interrupts.o(i.IRQ040_Handler) for i.IRQ040_Handler
    hc32f46x_interrupts.o(.ARM.exidx) refers to hc32f46x_interrupts.o(i.IRQ041_Handler) for i.IRQ041_Handler
    hc32f46x_interrupts.o(.ARM.exidx) refers to hc32f46x_interrupts.o(i.IRQ042_Handler) for i.IRQ042_Handler
    hc32f46x_interrupts.o(.ARM.exidx) refers to hc32f46x_interrupts.o(i.IRQ043_Handler) for i.IRQ043_Handler
    hc32f46x_interrupts.o(.ARM.exidx) refers to hc32f46x_interrupts.o(i.IRQ044_Handler) for i.IRQ044_Handler
    hc32f46x_interrupts.o(.ARM.exidx) refers to hc32f46x_interrupts.o(i.IRQ045_Handler) for i.IRQ045_Handler
    hc32f46x_interrupts.o(.ARM.exidx) refers to hc32f46x_interrupts.o(i.IRQ046_Handler) for i.IRQ046_Handler
    hc32f46x_interrupts.o(.ARM.exidx) refers to hc32f46x_interrupts.o(i.IRQ047_Handler) for i.IRQ047_Handler
    hc32f46x_interrupts.o(.ARM.exidx) refers to hc32f46x_interrupts.o(i.IRQ048_Handler) for i.IRQ048_Handler
    hc32f46x_interrupts.o(.ARM.exidx) refers to hc32f46x_interrupts.o(i.IRQ049_Handler) for i.IRQ049_Handler
    hc32f46x_interrupts.o(.ARM.exidx) refers to hc32f46x_interrupts.o(i.IRQ050_Handler) for i.IRQ050_Handler
    hc32f46x_interrupts.o(.ARM.exidx) refers to hc32f46x_interrupts.o(i.IRQ051_Handler) for i.IRQ051_Handler
    hc32f46x_interrupts.o(.ARM.exidx) refers to hc32f46x_interrupts.o(i.IRQ052_Handler) for i.IRQ052_Handler
    hc32f46x_interrupts.o(.ARM.exidx) refers to hc32f46x_interrupts.o(i.IRQ053_Handler) for i.IRQ053_Handler
    hc32f46x_interrupts.o(.ARM.exidx) refers to hc32f46x_interrupts.o(i.IRQ054_Handler) for i.IRQ054_Handler
    hc32f46x_interrupts.o(.ARM.exidx) refers to hc32f46x_interrupts.o(i.IRQ055_Handler) for i.IRQ055_Handler
    hc32f46x_interrupts.o(.ARM.exidx) refers to hc32f46x_interrupts.o(i.IRQ056_Handler) for i.IRQ056_Handler
    hc32f46x_interrupts.o(.ARM.exidx) refers to hc32f46x_interrupts.o(i.IRQ057_Handler) for i.IRQ057_Handler
    hc32f46x_interrupts.o(.ARM.exidx) refers to hc32f46x_interrupts.o(i.IRQ058_Handler) for i.IRQ058_Handler
    hc32f46x_interrupts.o(.ARM.exidx) refers to hc32f46x_interrupts.o(i.IRQ059_Handler) for i.IRQ059_Handler
    hc32f46x_interrupts.o(.ARM.exidx) refers to hc32f46x_interrupts.o(i.IRQ060_Handler) for i.IRQ060_Handler
    hc32f46x_interrupts.o(.ARM.exidx) refers to hc32f46x_interrupts.o(i.IRQ061_Handler) for i.IRQ061_Handler
    hc32f46x_interrupts.o(.ARM.exidx) refers to hc32f46x_interrupts.o(i.IRQ062_Handler) for i.IRQ062_Handler
    hc32f46x_interrupts.o(.ARM.exidx) refers to hc32f46x_interrupts.o(i.IRQ063_Handler) for i.IRQ063_Handler
    hc32f46x_interrupts.o(.ARM.exidx) refers to hc32f46x_interrupts.o(i.IRQ064_Handler) for i.IRQ064_Handler
    hc32f46x_interrupts.o(.ARM.exidx) refers to hc32f46x_interrupts.o(i.IRQ065_Handler) for i.IRQ065_Handler
    hc32f46x_interrupts.o(.ARM.exidx) refers to hc32f46x_interrupts.o(i.IRQ066_Handler) for i.IRQ066_Handler
    hc32f46x_interrupts.o(.ARM.exidx) refers to hc32f46x_interrupts.o(i.IRQ067_Handler) for i.IRQ067_Handler
    hc32f46x_interrupts.o(.ARM.exidx) refers to hc32f46x_interrupts.o(i.IRQ068_Handler) for i.IRQ068_Handler
    hc32f46x_interrupts.o(.ARM.exidx) refers to hc32f46x_interrupts.o(i.IRQ069_Handler) for i.IRQ069_Handler
    hc32f46x_interrupts.o(.ARM.exidx) refers to hc32f46x_interrupts.o(i.IRQ070_Handler) for i.IRQ070_Handler
    hc32f46x_interrupts.o(.ARM.exidx) refers to hc32f46x_interrupts.o(i.IRQ071_Handler) for i.IRQ071_Handler
    hc32f46x_interrupts.o(.ARM.exidx) refers to hc32f46x_interrupts.o(i.IRQ072_Handler) for i.IRQ072_Handler
    hc32f46x_interrupts.o(.ARM.exidx) refers to hc32f46x_interrupts.o(i.IRQ073_Handler) for i.IRQ073_Handler
    hc32f46x_interrupts.o(.ARM.exidx) refers to hc32f46x_interrupts.o(i.IRQ074_Handler) for i.IRQ074_Handler
    hc32f46x_interrupts.o(.ARM.exidx) refers to hc32f46x_interrupts.o(i.IRQ075_Handler) for i.IRQ075_Handler
    hc32f46x_interrupts.o(.ARM.exidx) refers to hc32f46x_interrupts.o(i.IRQ076_Handler) for i.IRQ076_Handler
    hc32f46x_interrupts.o(.ARM.exidx) refers to hc32f46x_interrupts.o(i.IRQ077_Handler) for i.IRQ077_Handler
    hc32f46x_interrupts.o(.ARM.exidx) refers to hc32f46x_interrupts.o(i.IRQ078_Handler) for i.IRQ078_Handler
    hc32f46x_interrupts.o(.ARM.exidx) refers to hc32f46x_interrupts.o(i.IRQ079_Handler) for i.IRQ079_Handler
    hc32f46x_interrupts.o(.ARM.exidx) refers to hc32f46x_interrupts.o(i.IRQ080_Handler) for i.IRQ080_Handler
    hc32f46x_interrupts.o(.ARM.exidx) refers to hc32f46x_interrupts.o(i.IRQ081_Handler) for i.IRQ081_Handler
    hc32f46x_interrupts.o(.ARM.exidx) refers to hc32f46x_interrupts.o(i.IRQ082_Handler) for i.IRQ082_Handler
    hc32f46x_interrupts.o(.ARM.exidx) refers to hc32f46x_interrupts.o(i.IRQ083_Handler) for i.IRQ083_Handler
    hc32f46x_interrupts.o(.ARM.exidx) refers to hc32f46x_interrupts.o(i.IRQ084_Handler) for i.IRQ084_Handler
    hc32f46x_interrupts.o(.ARM.exidx) refers to hc32f46x_interrupts.o(i.IRQ085_Handler) for i.IRQ085_Handler
    hc32f46x_interrupts.o(.ARM.exidx) refers to hc32f46x_interrupts.o(i.IRQ086_Handler) for i.IRQ086_Handler
    hc32f46x_interrupts.o(.ARM.exidx) refers to hc32f46x_interrupts.o(i.IRQ087_Handler) for i.IRQ087_Handler
    hc32f46x_interrupts.o(.ARM.exidx) refers to hc32f46x_interrupts.o(i.IRQ088_Handler) for i.IRQ088_Handler
    hc32f46x_interrupts.o(.ARM.exidx) refers to hc32f46x_interrupts.o(i.IRQ089_Handler) for i.IRQ089_Handler
    hc32f46x_interrupts.o(.ARM.exidx) refers to hc32f46x_interrupts.o(i.IRQ090_Handler) for i.IRQ090_Handler
    hc32f46x_interrupts.o(.ARM.exidx) refers to hc32f46x_interrupts.o(i.IRQ091_Handler) for i.IRQ091_Handler
    hc32f46x_interrupts.o(.ARM.exidx) refers to hc32f46x_interrupts.o(i.IRQ092_Handler) for i.IRQ092_Handler
    hc32f46x_interrupts.o(.ARM.exidx) refers to hc32f46x_interrupts.o(i.IRQ093_Handler) for i.IRQ093_Handler
    hc32f46x_interrupts.o(.ARM.exidx) refers to hc32f46x_interrupts.o(i.IRQ094_Handler) for i.IRQ094_Handler
    hc32f46x_interrupts.o(.ARM.exidx) refers to hc32f46x_interrupts.o(i.IRQ095_Handler) for i.IRQ095_Handler
    hc32f46x_interrupts.o(.ARM.exidx) refers to hc32f46x_interrupts.o(i.IRQ096_Handler) for i.IRQ096_Handler
    hc32f46x_interrupts.o(.ARM.exidx) refers to hc32f46x_interrupts.o(i.IRQ097_Handler) for i.IRQ097_Handler
    hc32f46x_interrupts.o(.ARM.exidx) refers to hc32f46x_interrupts.o(i.IRQ098_Handler) for i.IRQ098_Handler
    hc32f46x_interrupts.o(.ARM.exidx) refers to hc32f46x_interrupts.o(i.IRQ099_Handler) for i.IRQ099_Handler
    hc32f46x_interrupts.o(.ARM.exidx) refers to hc32f46x_interrupts.o(i._Z14IRQ100_Handlerv) for i._Z14IRQ100_Handlerv
    hc32f46x_interrupts.o(.ARM.exidx) refers to hc32f46x_interrupts.o(i._Z14IRQ101_Handlerv) for i._Z14IRQ101_Handlerv
    hc32f46x_interrupts.o(.ARM.exidx) refers to hc32f46x_interrupts.o(i._Z14IRQ102_Handlerv) for i._Z14IRQ102_Handlerv
    hc32f46x_interrupts.o(.ARM.exidx) refers to hc32f46x_interrupts.o(i._Z14IRQ103_Handlerv) for i._Z14IRQ103_Handlerv
    hc32f46x_interrupts.o(.ARM.exidx) refers to hc32f46x_interrupts.o(i._Z14IRQ104_Handlerv) for i._Z14IRQ104_Handlerv
    hc32f46x_interrupts.o(.ARM.exidx) refers to hc32f46x_interrupts.o(i._Z14IRQ105_Handlerv) for i._Z14IRQ105_Handlerv
    hc32f46x_interrupts.o(.ARM.exidx) refers to hc32f46x_interrupts.o(i._Z14IRQ106_Handlerv) for i._Z14IRQ106_Handlerv
    hc32f46x_interrupts.o(.ARM.exidx) refers to hc32f46x_interrupts.o(i._Z14IRQ107_Handlerv) for i._Z14IRQ107_Handlerv
    hc32f46x_interrupts.o(.ARM.exidx) refers to hc32f46x_interrupts.o(i._Z14IRQ108_Handlerv) for i._Z14IRQ108_Handlerv
    hc32f46x_interrupts.o(.ARM.exidx) refers to hc32f46x_interrupts.o(i._Z14IRQ109_Handlerv) for i._Z14IRQ109_Handlerv
    hc32f46x_interrupts.o(.ARM.exidx) refers to hc32f46x_interrupts.o(i._Z14IRQ110_Handlerv) for i._Z14IRQ110_Handlerv
    hc32f46x_interrupts.o(.ARM.exidx) refers to hc32f46x_interrupts.o(i._Z14IRQ111_Handlerv) for i._Z14IRQ111_Handlerv
    hc32f46x_interrupts.o(.ARM.exidx) refers to hc32f46x_interrupts.o(i._Z14IRQ112_Handlerv) for i._Z14IRQ112_Handlerv
    hc32f46x_interrupts.o(.ARM.exidx) refers to hc32f46x_interrupts.o(i._Z14IRQ113_Handlerv) for i._Z14IRQ113_Handlerv
    hc32f46x_interrupts.o(.ARM.exidx) refers to hc32f46x_interrupts.o(i._Z14IRQ114_Handlerv) for i._Z14IRQ114_Handlerv
    hc32f46x_interrupts.o(.ARM.exidx) refers to hc32f46x_interrupts.o(i._Z14IRQ115_Handlerv) for i._Z14IRQ115_Handlerv
    hc32f46x_interrupts.o(.ARM.exidx) refers to hc32f46x_interrupts.o(i._Z14IRQ116_Handlerv) for i._Z14IRQ116_Handlerv
    hc32f46x_interrupts.o(.ARM.exidx) refers to hc32f46x_interrupts.o(i._Z14IRQ117_Handlerv) for i._Z14IRQ117_Handlerv
    hc32f46x_interrupts.o(.ARM.exidx) refers to hc32f46x_interrupts.o(i._Z14IRQ118_Handlerv) for i._Z14IRQ118_Handlerv
    hc32f46x_interrupts.o(.ARM.exidx) refers to hc32f46x_interrupts.o(i._Z14IRQ119_Handlerv) for i._Z14IRQ119_Handlerv
    hc32f46x_interrupts.o(.ARM.exidx) refers to hc32f46x_interrupts.o(i._Z14IRQ120_Handlerv) for i._Z14IRQ120_Handlerv
    hc32f46x_interrupts.o(.ARM.exidx) refers to hc32f46x_interrupts.o(i._Z14IRQ121_Handlerv) for i._Z14IRQ121_Handlerv
    hc32f46x_interrupts.o(.ARM.exidx) refers to hc32f46x_interrupts.o(i._Z14IRQ122_Handlerv) for i._Z14IRQ122_Handlerv
    hc32f46x_interrupts.o(.ARM.exidx) refers to hc32f46x_interrupts.o(i._Z14IRQ123_Handlerv) for i._Z14IRQ123_Handlerv
    hc32f46x_interrupts.o(.ARM.exidx) refers to hc32f46x_interrupts.o(i._Z14IRQ124_Handlerv) for i._Z14IRQ124_Handlerv
    hc32f46x_interrupts.o(.ARM.exidx) refers to hc32f46x_interrupts.o(i._Z14IRQ125_Handlerv) for i._Z14IRQ125_Handlerv
    hc32f46x_interrupts.o(.ARM.exidx) refers to hc32f46x_interrupts.o(i._Z14IRQ126_Handlerv) for i._Z14IRQ126_Handlerv
    hc32f46x_interrupts.o(.ARM.exidx) refers to hc32f46x_interrupts.o(i._Z14IRQ127_Handlerv) for i._Z14IRQ127_Handlerv
    hc32f46x_interrupts.o(.ARM.exidx) refers to hc32f46x_interrupts.o(i._Z14IRQ128_Handlerv) for i._Z14IRQ128_Handlerv
    hc32f46x_interrupts.o(.ARM.exidx) refers to hc32f46x_interrupts.o(i._Z14IRQ129_Handlerv) for i._Z14IRQ129_Handlerv
    hc32f46x_interrupts.o(.ARM.exidx) refers to hc32f46x_interrupts.o(i._Z14IRQ130_Handlerv) for i._Z14IRQ130_Handlerv
    hc32f46x_interrupts.o(.ARM.exidx) refers to hc32f46x_interrupts.o(i._Z14IRQ131_Handlerv) for i._Z14IRQ131_Handlerv
    hc32f46x_interrupts.o(.ARM.exidx) refers to hc32f46x_interrupts.o(i._Z14IRQ132_Handlerv) for i._Z14IRQ132_Handlerv
    hc32f46x_interrupts.o(.ARM.exidx) refers to hc32f46x_interrupts.o(i._Z14IRQ136_Handlerv) for i._Z14IRQ136_Handlerv
    hc32f46x_interrupts.o(.ARM.exidx) refers to hc32f46x_interrupts.o(i._Z14IRQ137_Handlerv) for i._Z14IRQ137_Handlerv
    hc32f46x_interrupts.o(.ARM.exidx) refers to hc32f46x_interrupts.o(i._Z14IRQ138_Handlerv) for i._Z14IRQ138_Handlerv
    hc32f46x_interrupts.o(.ARM.exidx) refers to hc32f46x_interrupts.o(i._Z14IRQ139_Handlerv) for i._Z14IRQ139_Handlerv
    hc32f46x_interrupts.o(.ARM.exidx) refers to hc32f46x_interrupts.o(i._Z14IRQ140_Handlerv) for i._Z14IRQ140_Handlerv
    hc32f46x_interrupts.o(.ARM.exidx) refers to hc32f46x_interrupts.o(i._Z14IRQ141_Handlerv) for i._Z14IRQ141_Handlerv
    hc32f46x_interrupts.o(.ARM.exidx) refers to hc32f46x_interrupts.o(i._Z14IRQ142_Handlerv) for i._Z14IRQ142_Handlerv
    hc32f46x_interrupts.o(.ARM.exidx) refers to hc32f46x_interrupts.o(i._Z14IRQ143_Handlerv) for i._Z14IRQ143_Handlerv
    hc32f46x_ots.o(i.OTS_CheckSample) refers to hc32f46x_ots.o(i._ZN36_INTERNAL_14_hc32f46x_ots_c_OTS_Init12OTS_ReadDataEPfS0_S0_) for [local to hc32f46x_ots_c]::OTS_ReadData(float*, float*, float*)
    hc32f46x_ots.o(i.OTS_CheckSample) refers to hc32f46x_ots.o(i._ZN36_INTERNAL_14_hc32f46x_ots_c_OTS_Init15OTS_ComputeTempEfff) for [local to hc32f46x_ots_c]::OTS_ComputeTemp(float, float, float)
    hc32f46x_ots.o(i.OTS_CheckSample) refers to system_hc32f46x.o(.data) for SystemCoreClock
    hc32f46x_ots.o(i.OTS_GetTempIT) refers to hc32f46x_ots.o(i._ZN36_INTERNAL_14_hc32f46x_ots_c_OTS_Init12OTS_ReadDataEPfS0_S0_) for [local to hc32f46x_ots_c]::OTS_ReadData(float*, float*, float*)
    hc32f46x_ots.o(i.OTS_GetTempIT) refers to hc32f46x_ots.o(i._ZN36_INTERNAL_14_hc32f46x_ots_c_OTS_Init15OTS_ComputeTempEfff) for [local to hc32f46x_ots_c]::OTS_ComputeTemp(float, float, float)
    hc32f46x_ots.o(i.OTS_Init) refers to hc32f46x_ots.o(i._ZN36_INTERNAL_14_hc32f46x_ots_c_OTS_Init12OTS_TrimmingEv) for [local to hc32f46x_ots_c]::OTS_Trimming()
    hc32f46x_ots.o(i.OTS_Init) refers to hc32f46x_ots.o(.data) for m_u8OtsClkSel
    hc32f46x_ots.o(i.OTS_ScalingExperiment) refers to hc32f46x_ots.o(i._ZN36_INTERNAL_14_hc32f46x_ots_c_OTS_Init12OTS_ComputeAEfff) for [local to hc32f46x_ots_c]::OTS_ComputeA(float, float, float)
    hc32f46x_ots.o(i.OTS_ScalingExperiment) refers to hc32f46x_ots.o(.data) for m_u8OtsClkSel
    hc32f46x_ots.o(i.OTS_SetKM) refers to hc32f46x_ots.o(.data) for m_f32OtsSlopeK
    hc32f46x_ots.o(i.OTS_StartGetTemp) refers to hc32f46x_ots.o(i.OTS_CheckSample) for OTS_CheckSample
    hc32f46x_ots.o(i._ZN36_INTERNAL_14_hc32f46x_ots_c_OTS_Init12OTS_ReadDataEPfS0_S0_) refers to hc32f46x_ots.o(.data) for m_u8OtsClkSel
    hc32f46x_ots.o(i._ZN36_INTERNAL_14_hc32f46x_ots_c_OTS_Init15OTS_ComputeTempEfff) refers to hc32f46x_ots.o(.data) for m_f32OtsSlopeK
    hc32f46x_ots.o(.ARM.exidx) refers to hc32f46x_ots.o(i._ZN36_INTERNAL_14_hc32f46x_ots_c_OTS_Init12OTS_TrimmingEv) for i._ZN36_INTERNAL_14_hc32f46x_ots_c_OTS_Init12OTS_TrimmingEv
    hc32f46x_ots.o(.ARM.exidx) refers to hc32f46x_ots.o(i.OTS_Init) for i.OTS_Init
    hc32f46x_ots.o(.ARM.exidx) refers to hc32f46x_ots.o(i.OTS_DeInit) for i.OTS_DeInit
    hc32f46x_ots.o(.ARM.exidx) refers to hc32f46x_ots.o(i._ZN36_INTERNAL_14_hc32f46x_ots_c_OTS_Init15OTS_ComputeTempEfff) for i._ZN36_INTERNAL_14_hc32f46x_ots_c_OTS_Init15OTS_ComputeTempEfff
    hc32f46x_ots.o(.ARM.exidx) refers to hc32f46x_ots.o(i._ZN36_INTERNAL_14_hc32f46x_ots_c_OTS_Init12OTS_ReadDataEPfS0_S0_) for i._ZN36_INTERNAL_14_hc32f46x_ots_c_OTS_Init12OTS_ReadDataEPfS0_S0_
    hc32f46x_ots.o(.ARM.exidx) refers to hc32f46x_ots.o(i.OTS_CheckSample) for i.OTS_CheckSample
    hc32f46x_ots.o(.ARM.exidx) refers to hc32f46x_ots.o(i.OTS_StartGetTemp) for i.OTS_StartGetTemp
    hc32f46x_ots.o(.ARM.exidx) refers to hc32f46x_ots.o(i.OTS_ITCmd) for i.OTS_ITCmd
    hc32f46x_ots.o(.ARM.exidx) refers to hc32f46x_ots.o(i.OTS_StartIT) for i.OTS_StartIT
    hc32f46x_ots.o(.ARM.exidx) refers to hc32f46x_ots.o(i.OTS_GetTempIT) for i.OTS_GetTempIT
    hc32f46x_ots.o(.ARM.exidx) refers to hc32f46x_ots.o(i.OTS_SetTriggerSrc) for i.OTS_SetTriggerSrc
    hc32f46x_ots.o(.ARM.exidx) refers to hc32f46x_ots.o(i.OTS_ComTriggerCmd) for i.OTS_ComTriggerCmd
    hc32f46x_ots.o(.ARM.exidx) refers to hc32f46x_ots.o(i._ZN36_INTERNAL_14_hc32f46x_ots_c_OTS_Init12OTS_ComputeAEfff) for i._ZN36_INTERNAL_14_hc32f46x_ots_c_OTS_Init12OTS_ComputeAEfff
    hc32f46x_ots.o(.ARM.exidx) refers to hc32f46x_ots.o(i.OTS_ScalingExperiment) for i.OTS_ScalingExperiment
    hc32f46x_ots.o(.ARM.exidx) refers to hc32f46x_ots.o(i.OTS_SetKM) for i.OTS_SetKM
    hc32f46x_pwc.o(i.PWC_EnterStopMd) refers to hc32f46x_pwc.o(i._ZN36_INTERNAL_14_hc32f46x_pwc_c_cd9c2b2c16PWC_enNvicBackupEv) for [local to hc32f46x_pwc_c]::PWC_enNvicBackup()
    hc32f46x_pwc.o(i.PWC_EnterStopMd) refers to hc32f46x_pwc.o(i._ZN36_INTERNAL_14_hc32f46x_pwc_c_cd9c2b2c13PWC_ClkBackupEv) for [local to hc32f46x_pwc_c]::PWC_ClkBackup()
    hc32f46x_pwc.o(i.PWC_EnterStopMd) refers to hc32f46x_pwc.o(i._ZN36_INTERNAL_14_hc32f46x_pwc_c_cd9c2b2c14PWC_ClkRecoverEv) for [local to hc32f46x_pwc_c]::PWC_ClkRecover()
    hc32f46x_pwc.o(i.PWC_EnterStopMd) refers to hc32f46x_pwc.o(i._ZN36_INTERNAL_14_hc32f46x_pwc_c_cd9c2b2c17PWC_enNvicRecoverEv) for [local to hc32f46x_pwc_c]::PWC_enNvicRecover()
    hc32f46x_pwc.o(i.PWC_HP2HS) refers to hc32f46x_utility.o(i.Ddl_Delay1ms) for Ddl_Delay1ms
    hc32f46x_pwc.o(i.PWC_HP2LS) refers to hc32f46x_utility.o(i.Ddl_Delay1ms) for Ddl_Delay1ms
    hc32f46x_pwc.o(i.PWC_HS2HP) refers to hc32f46x_utility.o(i.Ddl_Delay1ms) for Ddl_Delay1ms
    hc32f46x_pwc.o(i.PWC_HS2LS) refers to hc32f46x_utility.o(i.Ddl_Delay1ms) for Ddl_Delay1ms
    hc32f46x_pwc.o(i.PWC_IrqClkBackup) refers to hc32f46x_pwc.o(i._ZN36_INTERNAL_14_hc32f46x_pwc_c_cd9c2b2c17PWC_enClockBackupEv) for [local to hc32f46x_pwc_c]::PWC_enClockBackup()
    hc32f46x_pwc.o(i.PWC_IrqClkBackup) refers to hc32f46x_pwc.o(.data) for u8StopFlag
    hc32f46x_pwc.o(i.PWC_IrqClkRecover) refers to hc32f46x_pwc.o(i._ZN36_INTERNAL_14_hc32f46x_pwc_c_cd9c2b2c18PWC_enClockRecoverEv) for [local to hc32f46x_pwc_c]::PWC_enClockRecover()
    hc32f46x_pwc.o(i.PWC_IrqClkRecover) refers to hc32f46x_pwc.o(.data) for u8WkupIntCnt
    hc32f46x_pwc.o(i.PWC_LS2HP) refers to hc32f46x_utility.o(i.Ddl_Delay1ms) for Ddl_Delay1ms
    hc32f46x_pwc.o(i.PWC_LS2HS) refers to hc32f46x_utility.o(i.Ddl_Delay1ms) for Ddl_Delay1ms
    hc32f46x_pwc.o(i._ZN36_INTERNAL_14_hc32f46x_pwc_c_cd9c2b2c13PWC_ClkBackupEv) refers to hc32f46x_pwc.o(i._ZN36_INTERNAL_14_hc32f46x_pwc_c_cd9c2b2c17PWC_enClockBackupEv) for [local to hc32f46x_pwc_c]::PWC_enClockBackup()
    hc32f46x_pwc.o(i._ZN36_INTERNAL_14_hc32f46x_pwc_c_cd9c2b2c13PWC_ClkBackupEv) refers to hc32f46x_pwc.o(.data) for u8StopFlag
    hc32f46x_pwc.o(i._ZN36_INTERNAL_14_hc32f46x_pwc_c_cd9c2b2c13PWC_SetSysClkEh) refers to hc32f46x_utility.o(i.Ddl_Delay1us) for Ddl_Delay1us
    hc32f46x_pwc.o(i._ZN36_INTERNAL_14_hc32f46x_pwc_c_cd9c2b2c13PWC_SetSysClkEh) refers to system_hc32f46x.o(i.SystemCoreClockUpdate) for SystemCoreClockUpdate
    hc32f46x_pwc.o(i._ZN36_INTERNAL_14_hc32f46x_pwc_c_cd9c2b2c14PWC_ClkRecoverEv) refers to hc32f46x_pwc.o(i._ZN36_INTERNAL_14_hc32f46x_pwc_c_cd9c2b2c18PWC_enClockRecoverEv) for [local to hc32f46x_pwc_c]::PWC_enClockRecover()
    hc32f46x_pwc.o(i._ZN36_INTERNAL_14_hc32f46x_pwc_c_cd9c2b2c14PWC_ClkRecoverEv) refers to hc32f46x_pwc.o(.data) for u8StopFlag
    hc32f46x_pwc.o(i._ZN36_INTERNAL_14_hc32f46x_pwc_c_cd9c2b2c16PWC_enNvicBackupEv) refers to hc32f46x_pwc.o(i._ZN36_INTERNAL_14_hc32f46x_pwc_c_cd9c2b2c17__NVIC_DisableIRQE4IRQn) for [local to hc32f46x_pwc_c]::__NVIC_DisableIRQ(IRQn)
    hc32f46x_pwc.o(i._ZN36_INTERNAL_14_hc32f46x_pwc_c_cd9c2b2c16PWC_enNvicBackupEv) refers to hc32f46x_pwc.o(.bss) for NVIC_ISER_BAK
    hc32f46x_pwc.o(i._ZN36_INTERNAL_14_hc32f46x_pwc_c_cd9c2b2c17PWC_enClockBackupEv) refers to hc32f46x_pwc.o(i._ZN36_INTERNAL_14_hc32f46x_pwc_c_cd9c2b2c13PWC_SetSysClkEh) for [local to hc32f46x_pwc_c]::PWC_SetSysClk(unsigned char)
    hc32f46x_pwc.o(i._ZN36_INTERNAL_14_hc32f46x_pwc_c_cd9c2b2c17PWC_enClockBackupEv) refers to hc32f46x_pwc.o(.data) for u8HrcState
    hc32f46x_pwc.o(i._ZN36_INTERNAL_14_hc32f46x_pwc_c_cd9c2b2c17PWC_enNvicRecoverEv) refers to hc32f46x_pwc.o(.bss) for NVIC_ISER_BAK
    hc32f46x_pwc.o(i._ZN36_INTERNAL_14_hc32f46x_pwc_c_cd9c2b2c18PWC_enClockRecoverEv) refers to hc32f46x_pwc.o(i._ZN36_INTERNAL_14_hc32f46x_pwc_c_cd9c2b2c13PWC_SetSysClkEh) for [local to hc32f46x_pwc_c]::PWC_SetSysClk(unsigned char)
    hc32f46x_pwc.o(i._ZN36_INTERNAL_14_hc32f46x_pwc_c_cd9c2b2c18PWC_enClockRecoverEv) refers to hc32f46x_pwc.o(.data) for u8SysClkSrc
    hc32f46x_pwc.o(.ARM.exidx) refers to hc32f46x_pwc.o(i._ZN36_INTERNAL_14_hc32f46x_pwc_c_cd9c2b2c17__NVIC_DisableIRQE4IRQn) for i._ZN36_INTERNAL_14_hc32f46x_pwc_c_cd9c2b2c17__NVIC_DisableIRQE4IRQn
    hc32f46x_pwc.o(.ARM.exidx) refers to hc32f46x_pwc.o(i.PWC_PowerModeCfg) for i.PWC_PowerModeCfg
    hc32f46x_pwc.o(.ARM.exidx) refers to hc32f46x_pwc.o(i.PWC_EnterPowerDownMd) for i.PWC_EnterPowerDownMd
    hc32f46x_pwc.o(.ARM.exidx) refers to hc32f46x_pwc.o(i.PWC_PdWakeup0Cmd) for i.PWC_PdWakeup0Cmd
    hc32f46x_pwc.o(.ARM.exidx) refers to hc32f46x_pwc.o(i.PWC_PdWakeup1Cmd) for i.PWC_PdWakeup1Cmd
    hc32f46x_pwc.o(.ARM.exidx) refers to hc32f46x_pwc.o(i.PWC_PdWakeup2Cmd) for i.PWC_PdWakeup2Cmd
    hc32f46x_pwc.o(.ARM.exidx) refers to hc32f46x_pwc.o(i.PWC_PdWakeupEvtEdgeCfg) for i.PWC_PdWakeupEvtEdgeCfg
    hc32f46x_pwc.o(.ARM.exidx) refers to hc32f46x_pwc.o(i.PWC_GetWakeup0Flag) for i.PWC_GetWakeup0Flag
    hc32f46x_pwc.o(.ARM.exidx) refers to hc32f46x_pwc.o(i.PWC_GetWakeup1Flag) for i.PWC_GetWakeup1Flag
    hc32f46x_pwc.o(.ARM.exidx) refers to hc32f46x_pwc.o(i.PWC_ClearWakeup0Flag) for i.PWC_ClearWakeup0Flag
    hc32f46x_pwc.o(.ARM.exidx) refers to hc32f46x_pwc.o(i.PWC_ClearWakeup1Flag) for i.PWC_ClearWakeup1Flag
    hc32f46x_pwc.o(.ARM.exidx) refers to hc32f46x_pwc.o(i.PWC_PwrMonitorCmd) for i.PWC_PwrMonitorCmd
    hc32f46x_pwc.o(.ARM.exidx) refers to hc32f46x_pwc.o(i.PWC_Fcg0PeriphClockCmd) for i.PWC_Fcg0PeriphClockCmd
    hc32f46x_pwc.o(.ARM.exidx) refers to hc32f46x_pwc.o(i.PWC_Fcg1PeriphClockCmd) for i.PWC_Fcg1PeriphClockCmd
    hc32f46x_pwc.o(.ARM.exidx) refers to hc32f46x_pwc.o(i.PWC_Fcg2PeriphClockCmd) for i.PWC_Fcg2PeriphClockCmd
    hc32f46x_pwc.o(.ARM.exidx) refers to hc32f46x_pwc.o(i.PWC_Fcg3PeriphClockCmd) for i.PWC_Fcg3PeriphClockCmd
    hc32f46x_pwc.o(.ARM.exidx) refers to hc32f46x_pwc.o(i.PWC_StopModeCfg) for i.PWC_StopModeCfg
    hc32f46x_pwc.o(.ARM.exidx) refers to hc32f46x_pwc.o(i.PWC_StopWkupCmd) for i.PWC_StopWkupCmd
    hc32f46x_pwc.o(.ARM.exidx) refers to hc32f46x_pwc.o(i.PWC_EnterSleepMd) for i.PWC_EnterSleepMd
    hc32f46x_pwc.o(.ARM.exidx) refers to hc32f46x_pwc.o(i.PWC_RamCfg) for i.PWC_RamCfg
    hc32f46x_pwc.o(.ARM.exidx) refers to hc32f46x_pwc.o(i.PWC_Xtal32CsCmd) for i.PWC_Xtal32CsCmd
    hc32f46x_pwc.o(.ARM.exidx) refers to hc32f46x_pwc.o(i.PWC_WktmControl) for i.PWC_WktmControl
    hc32f46x_pwc.o(.ARM.exidx) refers to hc32f46x_pwc.o(i.PWC_PvdCfg) for i.PWC_PvdCfg
    hc32f46x_pwc.o(.ARM.exidx) refers to hc32f46x_pwc.o(i.PWC_Pvd1Cmd) for i.PWC_Pvd1Cmd
    hc32f46x_pwc.o(.ARM.exidx) refers to hc32f46x_pwc.o(i.PWC_Pvd2Cmd) for i.PWC_Pvd2Cmd
    hc32f46x_pwc.o(.ARM.exidx) refers to hc32f46x_pwc.o(i.PWC_ExVccCmd) for i.PWC_ExVccCmd
    hc32f46x_pwc.o(.ARM.exidx) refers to hc32f46x_pwc.o(i.PWC_GetPvdStatus) for i.PWC_GetPvdStatus
    hc32f46x_pwc.o(.ARM.exidx) refers to hc32f46x_pwc.o(i.PWC_GetPvdFlag) for i.PWC_GetPvdFlag
    hc32f46x_pwc.o(.ARM.exidx) refers to hc32f46x_pwc.o(i.PWC_ClearPvdFlag) for i.PWC_ClearPvdFlag
    hc32f46x_pwc.o(.ARM.exidx) refers to hc32f46x_pwc.o(i.PWC_HrcPwrCmd) for i.PWC_HrcPwrCmd
    hc32f46x_pwc.o(.ARM.exidx) refers to hc32f46x_pwc.o(i.PWC_PllPwrCmd) for i.PWC_PllPwrCmd
    hc32f46x_pwc.o(.ARM.exidx) refers to hc32f46x_pwc.o(i._ZN36_INTERNAL_14_hc32f46x_pwc_c_cd9c2b2c16PWC_enNvicBackupEv) for i._ZN36_INTERNAL_14_hc32f46x_pwc_c_cd9c2b2c16PWC_enNvicBackupEv
    hc32f46x_pwc.o(.ARM.exidx) refers to hc32f46x_pwc.o(i._ZN36_INTERNAL_14_hc32f46x_pwc_c_cd9c2b2c17PWC_enNvicRecoverEv) for i._ZN36_INTERNAL_14_hc32f46x_pwc_c_cd9c2b2c17PWC_enNvicRecoverEv
    hc32f46x_pwc.o(.ARM.exidx) refers to hc32f46x_pwc.o(i._ZN36_INTERNAL_14_hc32f46x_pwc_c_cd9c2b2c13PWC_SetSysClkEh) for i._ZN36_INTERNAL_14_hc32f46x_pwc_c_cd9c2b2c13PWC_SetSysClkEh
    hc32f46x_pwc.o(.ARM.exidx) refers to hc32f46x_pwc.o(i._ZN36_INTERNAL_14_hc32f46x_pwc_c_cd9c2b2c17PWC_enClockBackupEv) for i._ZN36_INTERNAL_14_hc32f46x_pwc_c_cd9c2b2c17PWC_enClockBackupEv
    hc32f46x_pwc.o(.ARM.exidx) refers to hc32f46x_pwc.o(i._ZN36_INTERNAL_14_hc32f46x_pwc_c_cd9c2b2c18PWC_enClockRecoverEv) for i._ZN36_INTERNAL_14_hc32f46x_pwc_c_cd9c2b2c18PWC_enClockRecoverEv
    hc32f46x_pwc.o(.ARM.exidx) refers to hc32f46x_pwc.o(i._ZN36_INTERNAL_14_hc32f46x_pwc_c_cd9c2b2c13PWC_ClkBackupEv) for i._ZN36_INTERNAL_14_hc32f46x_pwc_c_cd9c2b2c13PWC_ClkBackupEv
    hc32f46x_pwc.o(.ARM.exidx) refers to hc32f46x_pwc.o(i._ZN36_INTERNAL_14_hc32f46x_pwc_c_cd9c2b2c14PWC_ClkRecoverEv) for i._ZN36_INTERNAL_14_hc32f46x_pwc_c_cd9c2b2c14PWC_ClkRecoverEv
    hc32f46x_pwc.o(.ARM.exidx) refers to hc32f46x_pwc.o(i.PWC_IrqClkBackup) for i.PWC_IrqClkBackup
    hc32f46x_pwc.o(.ARM.exidx) refers to hc32f46x_pwc.o(i.PWC_IrqClkRecover) for i.PWC_IrqClkRecover
    hc32f46x_pwc.o(.ARM.exidx) refers to hc32f46x_pwc.o(i.PWC_EnterStopMd) for i.PWC_EnterStopMd
    hc32f46x_pwc.o(.ARM.exidx) refers to hc32f46x_pwc.o(i.PWC_HS2LS) for i.PWC_HS2LS
    hc32f46x_pwc.o(.ARM.exidx) refers to hc32f46x_pwc.o(i.PWC_LS2HS) for i.PWC_LS2HS
    hc32f46x_pwc.o(.ARM.exidx) refers to hc32f46x_pwc.o(i.PWC_HS2HP) for i.PWC_HS2HP
    hc32f46x_pwc.o(.ARM.exidx) refers to hc32f46x_pwc.o(i.PWC_HP2HS) for i.PWC_HP2HS
    hc32f46x_pwc.o(.ARM.exidx) refers to hc32f46x_pwc.o(i.PWC_LS2HP) for i.PWC_LS2HP
    hc32f46x_pwc.o(.ARM.exidx) refers to hc32f46x_pwc.o(i.PWC_HP2LS) for i.PWC_HP2LS
    hc32f46x_rmu.o(.ARM.exidx) refers to hc32f46x_rmu.o(i.RMU_GetResetCause) for i.RMU_GetResetCause
    hc32f46x_rmu.o(.ARM.exidx) refers to hc32f46x_rmu.o(i.RMU_ClrResetFlag) for i.RMU_ClrResetFlag
    hc32f46x_sdioc.o(i.SDIOC_DeInit) refers to hc32f46x_sdioc.o(i._ZN38_INTERNAL_16_hc32f46x_sdioc_c_89428c0821SdiocGetInternDataPtrEPK16M4_SDIOC_TypeDef) for [local to hc32f46x_sdioc_c]::SdiocGetInternDataPtr(const M4_SDIOC_TypeDef*)
    hc32f46x_sdioc.o(i.SDIOC_DeInit) refers to system_hc32f46x.o(.data) for SystemCoreClock
    hc32f46x_sdioc.o(i.SDIOC_Init) refers to hc32f46x_sdioc.o(i._ZN38_INTERNAL_16_hc32f46x_sdioc_c_89428c0821SdiocGetInternDataPtrEPK16M4_SDIOC_TypeDef) for [local to hc32f46x_sdioc_c]::SdiocGetInternDataPtr(const M4_SDIOC_TypeDef*)
    hc32f46x_sdioc.o(i.SDIOC_Init) refers to hc32f46x_sdioc.o(i._ZN38_INTERNAL_16_hc32f46x_sdioc_c_89428c0814SdiocGetClkDivEjj) for [local to hc32f46x_sdioc_c]::SdiocGetClkDiv(unsigned, unsigned)
    hc32f46x_sdioc.o(i.SDIOC_Init) refers to system_hc32f46x.o(.data) for SystemCoreClock
    hc32f46x_sdioc.o(i.SDIOC_IrqHandler) refers to hc32f46x_sdioc.o(i._ZN38_INTERNAL_16_hc32f46x_sdioc_c_89428c0821SdiocGetInternDataPtrEPK16M4_SDIOC_TypeDef) for [local to hc32f46x_sdioc_c]::SdiocGetInternDataPtr(const M4_SDIOC_TypeDef*)
    hc32f46x_sdioc.o(i.SDIOC_SetClk) refers to hc32f46x_sdioc.o(i._ZN38_INTERNAL_16_hc32f46x_sdioc_c_89428c0814SdiocGetClkDivEjj) for [local to hc32f46x_sdioc_c]::SdiocGetClkDiv(unsigned, unsigned)
    hc32f46x_sdioc.o(i.SDIOC_SetClk) refers to system_hc32f46x.o(.data) for SystemCoreClock
    hc32f46x_sdioc.o(i.SDIOC_SoftwareReset) refers to system_hc32f46x.o(.data) for SystemCoreClock
    hc32f46x_sdioc.o(i._ZN38_INTERNAL_16_hc32f46x_sdioc_c_89428c0821SdiocGetInternDataPtrEPK16M4_SDIOC_TypeDef) refers to hc32f46x_sdioc.o(.bss) for [local to hc32f46x_sdioc_c]::SdiocGetInternDataPtr(const M4_SDIOC_TypeDef*)::m_astcSdiocInstanceDataLut
    hc32f46x_sdioc.o(.ARM.exidx) refers to hc32f46x_sdioc.o(i._ZN38_INTERNAL_16_hc32f46x_sdioc_c_89428c0814SdiocGetClkDivEjj) for i._ZN38_INTERNAL_16_hc32f46x_sdioc_c_89428c0814SdiocGetClkDivEjj
    hc32f46x_sdioc.o(.ARM.exidx) refers to hc32f46x_sdioc.o(i._ZN38_INTERNAL_16_hc32f46x_sdioc_c_89428c0821SdiocGetInternDataPtrEPK16M4_SDIOC_TypeDef) for i._ZN38_INTERNAL_16_hc32f46x_sdioc_c_89428c0821SdiocGetInternDataPtrEPK16M4_SDIOC_TypeDef
    hc32f46x_sdioc.o(.ARM.exidx) refers to hc32f46x_sdioc.o(i.SDIOC_IrqHandler) for i.SDIOC_IrqHandler
    hc32f46x_sdioc.o(.ARM.exidx) refers to hc32f46x_sdioc.o(i.SDIOC_Init) for i.SDIOC_Init
    hc32f46x_sdioc.o(.ARM.exidx) refers to hc32f46x_sdioc.o(i.SDIOC_DeInit) for i.SDIOC_DeInit
    hc32f46x_sdioc.o(.ARM.exidx) refers to hc32f46x_sdioc.o(i.SDIOC_SetMode) for i.SDIOC_SetMode
    hc32f46x_sdioc.o(.ARM.exidx) refers to hc32f46x_sdioc.o(i.SDIOC_SendCommand) for i.SDIOC_SendCommand
    hc32f46x_sdioc.o(.ARM.exidx) refers to hc32f46x_sdioc.o(i.SDIOC_GetResponse) for i.SDIOC_GetResponse
    hc32f46x_sdioc.o(.ARM.exidx) refers to hc32f46x_sdioc.o(i.SDIOC_ReadBuffer) for i.SDIOC_ReadBuffer
    hc32f46x_sdioc.o(.ARM.exidx) refers to hc32f46x_sdioc.o(i.SDIOC_WriteBuffer) for i.SDIOC_WriteBuffer
    hc32f46x_sdioc.o(.ARM.exidx) refers to hc32f46x_sdioc.o(i.SDIOC_ConfigData) for i.SDIOC_ConfigData
    hc32f46x_sdioc.o(.ARM.exidx) refers to hc32f46x_sdioc.o(i.SDIOC_SdclkCmd) for i.SDIOC_SdclkCmd
    hc32f46x_sdioc.o(.ARM.exidx) refers to hc32f46x_sdioc.o(i.SDIOC_SetClkDiv) for i.SDIOC_SetClkDiv
    hc32f46x_sdioc.o(.ARM.exidx) refers to hc32f46x_sdioc.o(i.SDIOC_GetClkDiv) for i.SDIOC_GetClkDiv
    hc32f46x_sdioc.o(.ARM.exidx) refers to hc32f46x_sdioc.o(i.SDIOC_SetClk) for i.SDIOC_SetClk
    hc32f46x_sdioc.o(.ARM.exidx) refers to hc32f46x_sdioc.o(i.SDIOC_SetBusWidth) for i.SDIOC_SetBusWidth
    hc32f46x_sdioc.o(.ARM.exidx) refers to hc32f46x_sdioc.o(i.SDIOC_GetBusWidth) for i.SDIOC_GetBusWidth
    hc32f46x_sdioc.o(.ARM.exidx) refers to hc32f46x_sdioc.o(i.SDIOC_SetSpeedMode) for i.SDIOC_SetSpeedMode
    hc32f46x_sdioc.o(.ARM.exidx) refers to hc32f46x_sdioc.o(i.SDIOC_GetSpeedMode) for i.SDIOC_GetSpeedMode
    hc32f46x_sdioc.o(.ARM.exidx) refers to hc32f46x_sdioc.o(i.SDIOC_SetDataTimeout) for i.SDIOC_SetDataTimeout
    hc32f46x_sdioc.o(.ARM.exidx) refers to hc32f46x_sdioc.o(i.SDIOC_GetDataTimeout) for i.SDIOC_GetDataTimeout
    hc32f46x_sdioc.o(.ARM.exidx) refers to hc32f46x_sdioc.o(i.SDIOC_SetCardDetectSignal) for i.SDIOC_SetCardDetectSignal
    hc32f46x_sdioc.o(.ARM.exidx) refers to hc32f46x_sdioc.o(i.SDIOC_GetCardDetectTestLevel) for i.SDIOC_GetCardDetectTestLevel
    hc32f46x_sdioc.o(.ARM.exidx) refers to hc32f46x_sdioc.o(i.SDIOC_BusPowerOn) for i.SDIOC_BusPowerOn
    hc32f46x_sdioc.o(.ARM.exidx) refers to hc32f46x_sdioc.o(i.SDIOC_BusPowerOff) for i.SDIOC_BusPowerOff
    hc32f46x_sdioc.o(.ARM.exidx) refers to hc32f46x_sdioc.o(i.SDIOC_StopAtBlockGapCmd) for i.SDIOC_StopAtBlockGapCmd
    hc32f46x_sdioc.o(.ARM.exidx) refers to hc32f46x_sdioc.o(i.SDIOC_RestartTransfer) for i.SDIOC_RestartTransfer
    hc32f46x_sdioc.o(.ARM.exidx) refers to hc32f46x_sdioc.o(i.SDIOC_ReadWaitCmd) for i.SDIOC_ReadWaitCmd
    hc32f46x_sdioc.o(.ARM.exidx) refers to hc32f46x_sdioc.o(i.SDIOC_InterruptAtBlockGapCmd) for i.SDIOC_InterruptAtBlockGapCmd
    hc32f46x_sdioc.o(.ARM.exidx) refers to hc32f46x_sdioc.o(i.SDIOC_SoftwareReset) for i.SDIOC_SoftwareReset
    hc32f46x_sdioc.o(.ARM.exidx) refers to hc32f46x_sdioc.o(i.SDIOC_GetStatus) for i.SDIOC_GetStatus
    hc32f46x_sdioc.o(.ARM.exidx) refers to hc32f46x_sdioc.o(i.SDIOC_NormalIrqSignalCmd) for i.SDIOC_NormalIrqSignalCmd
    hc32f46x_sdioc.o(.ARM.exidx) refers to hc32f46x_sdioc.o(i.SDIOC_NormalIrqStatusCmd) for i.SDIOC_NormalIrqStatusCmd
    hc32f46x_sdioc.o(.ARM.exidx) refers to hc32f46x_sdioc.o(i.SDIOC_GetNormalIrqFlag) for i.SDIOC_GetNormalIrqFlag
    hc32f46x_sdioc.o(.ARM.exidx) refers to hc32f46x_sdioc.o(i.SDIOC_ClearNormalIrqFlag) for i.SDIOC_ClearNormalIrqFlag
    hc32f46x_sdioc.o(.ARM.exidx) refers to hc32f46x_sdioc.o(i.SDIOC_ErrIrqSignalCmd) for i.SDIOC_ErrIrqSignalCmd
    hc32f46x_sdioc.o(.ARM.exidx) refers to hc32f46x_sdioc.o(i.SDIOC_ErrIrqStatusCmd) for i.SDIOC_ErrIrqStatusCmd
    hc32f46x_sdioc.o(.ARM.exidx) refers to hc32f46x_sdioc.o(i.SDIOC_GetErrIrqFlag) for i.SDIOC_GetErrIrqFlag
    hc32f46x_sdioc.o(.ARM.exidx) refers to hc32f46x_sdioc.o(i.SDIOC_ClearErrIrqFlag) for i.SDIOC_ClearErrIrqFlag
    hc32f46x_sdioc.o(.ARM.exidx) refers to hc32f46x_sdioc.o(i.SDIOC_ForceErrIrqFlag) for i.SDIOC_ForceErrIrqFlag
    hc32f46x_sdioc.o(.ARM.exidx) refers to hc32f46x_sdioc.o(i.SDIOC_GetAutoCmdErrStatus) for i.SDIOC_GetAutoCmdErrStatus
    hc32f46x_sdioc.o(.ARM.exidx) refers to hc32f46x_sdioc.o(i.SDIOC_ForceAutoCmdErr) for i.SDIOC_ForceAutoCmdErr
    hc32f46x_spi.o(.ARM.exidx) refers to hc32f46x_spi.o(i.SPI_DeInit) for i.SPI_DeInit
    hc32f46x_spi.o(.ARM.exidx) refers to hc32f46x_spi.o(i.SPI_Init) for i.SPI_Init
    hc32f46x_spi.o(.ARM.exidx) refers to hc32f46x_spi.o(i.SPI_GeneralLoopbackCmd) for i.SPI_GeneralLoopbackCmd
    hc32f46x_spi.o(.ARM.exidx) refers to hc32f46x_spi.o(i.SPI_ReverseLoopbackCmd) for i.SPI_ReverseLoopbackCmd
    hc32f46x_spi.o(.ARM.exidx) refers to hc32f46x_spi.o(i.SPI_Cmd) for i.SPI_Cmd
    hc32f46x_spi.o(.ARM.exidx) refers to hc32f46x_spi.o(i.SPI_SendData8) for i.SPI_SendData8
    hc32f46x_spi.o(.ARM.exidx) refers to hc32f46x_spi.o(i.SPI_SendData16) for i.SPI_SendData16
    hc32f46x_spi.o(.ARM.exidx) refers to hc32f46x_spi.o(i.SPI_SendData32) for i.SPI_SendData32
    hc32f46x_spi.o(.ARM.exidx) refers to hc32f46x_spi.o(i.SPI_ReceiveData8) for i.SPI_ReceiveData8
    hc32f46x_spi.o(.ARM.exidx) refers to hc32f46x_spi.o(i.SPI_ReceiveData16) for i.SPI_ReceiveData16
    hc32f46x_spi.o(.ARM.exidx) refers to hc32f46x_spi.o(i.SPI_ReceiveData32) for i.SPI_ReceiveData32
    hc32f46x_spi.o(.ARM.exidx) refers to hc32f46x_spi.o(i.SPI_SetSsPolarity) for i.SPI_SetSsPolarity
    hc32f46x_spi.o(.ARM.exidx) refers to hc32f46x_spi.o(i.SPI_SetSsValidChannel) for i.SPI_SetSsValidChannel
    hc32f46x_spi.o(.ARM.exidx) refers to hc32f46x_spi.o(i.SPI_SetReadDataRegObject) for i.SPI_SetReadDataRegObject
    hc32f46x_spi.o(.ARM.exidx) refers to hc32f46x_spi.o(i.SPI_SetFrameNumber) for i.SPI_SetFrameNumber
    hc32f46x_spi.o(.ARM.exidx) refers to hc32f46x_spi.o(i.SPI_SetDataLength) for i.SPI_SetDataLength
    hc32f46x_spi.o(.ARM.exidx) refers to hc32f46x_spi.o(i.SPI_SetFirstBitPosition) for i.SPI_SetFirstBitPosition
    hc32f46x_spi.o(.ARM.exidx) refers to hc32f46x_spi.o(i.SPI_SetClockDiv) for i.SPI_SetClockDiv
    hc32f46x_spi.o(.ARM.exidx) refers to hc32f46x_spi.o(i.SPI_IrqCmd) for i.SPI_IrqCmd
    hc32f46x_spi.o(.ARM.exidx) refers to hc32f46x_spi.o(i.SPI_GetFlag) for i.SPI_GetFlag
    hc32f46x_spi.o(.ARM.exidx) refers to hc32f46x_spi.o(i.SPI_ClearFlag) for i.SPI_ClearFlag
    hc32f46x_sram.o(i.SRAM_Init) refers to hc32f46x_sram.o(i.SRAM_WT_Enable) for SRAM_WT_Enable
    hc32f46x_sram.o(i.SRAM_Init) refers to hc32f46x_sram.o(i.SRAM_CK_Enable) for SRAM_CK_Enable
    hc32f46x_sram.o(i.SRAM_Init) refers to hc32f46x_sram.o(i.SRAM_WT_Disable) for SRAM_WT_Disable
    hc32f46x_sram.o(i.SRAM_Init) refers to hc32f46x_sram.o(i.SRAM_CK_Disable) for SRAM_CK_Disable
    hc32f46x_sram.o(.ARM.exidx) refers to hc32f46x_sram.o(i.SRAM_WT_Disable) for i.SRAM_WT_Disable
    hc32f46x_sram.o(.ARM.exidx) refers to hc32f46x_sram.o(i.SRAM_WT_Enable) for i.SRAM_WT_Enable
    hc32f46x_sram.o(.ARM.exidx) refers to hc32f46x_sram.o(i.SRAM_CK_Disable) for i.SRAM_CK_Disable
    hc32f46x_sram.o(.ARM.exidx) refers to hc32f46x_sram.o(i.SRAM_CK_Enable) for i.SRAM_CK_Enable
    hc32f46x_sram.o(.ARM.exidx) refers to hc32f46x_sram.o(i.SRAM_GetStatus) for i.SRAM_GetStatus
    hc32f46x_sram.o(.ARM.exidx) refers to hc32f46x_sram.o(i.SRAM_ClrStatus) for i.SRAM_ClrStatus
    hc32f46x_sram.o(.ARM.exidx) refers to hc32f46x_sram.o(i.SRAM_Init) for i.SRAM_Init
    hc32f46x_sram.o(.ARM.exidx) refers to hc32f46x_sram.o(i.SRAM_DeInit) for i.SRAM_DeInit
    hc32f46x_timer0.o(i.TIMER0_BaseInit) refers to hc32f46x_timer0.o(i._ZN39_INTERNAL_17_hc32f46x_timer0_c_4644dad510AsyncDelayEP15M4_TMR0_TypeDef15en_tim0_channel19en_functional_state) for [local to hc32f46x_timer0_c]::AsyncDelay(M4_TMR0_TypeDef*, en_tim0_channel, en_functional_state)
    hc32f46x_timer0.o(i.TIMER0_ClearFlag) refers to hc32f46x_timer0.o(i._ZN39_INTERNAL_17_hc32f46x_timer0_c_4644dad510AsyncDelayEP15M4_TMR0_TypeDef15en_tim0_channel19en_functional_state) for [local to hc32f46x_timer0_c]::AsyncDelay(M4_TMR0_TypeDef*, en_tim0_channel, en_functional_state)
    hc32f46x_timer0.o(i.TIMER0_Cmd) refers to hc32f46x_timer0.o(i._ZN39_INTERNAL_17_hc32f46x_timer0_c_4644dad510AsyncDelayEP15M4_TMR0_TypeDef15en_tim0_channel19en_functional_state) for [local to hc32f46x_timer0_c]::AsyncDelay(M4_TMR0_TypeDef*, en_tim0_channel, en_functional_state)
    hc32f46x_timer0.o(i.TIMER0_DeInit) refers to hc32f46x_timer0.o(i._ZN39_INTERNAL_17_hc32f46x_timer0_c_4644dad510AsyncDelayEP15M4_TMR0_TypeDef15en_tim0_channel19en_functional_state) for [local to hc32f46x_timer0_c]::AsyncDelay(M4_TMR0_TypeDef*, en_tim0_channel, en_functional_state)
    hc32f46x_timer0.o(i.TIMER0_HardTriggerInit) refers to hc32f46x_timer0.o(i._ZN39_INTERNAL_17_hc32f46x_timer0_c_4644dad510AsyncDelayEP15M4_TMR0_TypeDef15en_tim0_channel19en_functional_state) for [local to hc32f46x_timer0_c]::AsyncDelay(M4_TMR0_TypeDef*, en_tim0_channel, en_functional_state)
    hc32f46x_timer0.o(i.TIMER0_IntCmd) refers to hc32f46x_timer0.o(i._ZN39_INTERNAL_17_hc32f46x_timer0_c_4644dad510AsyncDelayEP15M4_TMR0_TypeDef15en_tim0_channel19en_functional_state) for [local to hc32f46x_timer0_c]::AsyncDelay(M4_TMR0_TypeDef*, en_tim0_channel, en_functional_state)
    hc32f46x_timer0.o(i.TIMER0_SetFunc) refers to hc32f46x_timer0.o(i._ZN39_INTERNAL_17_hc32f46x_timer0_c_4644dad510AsyncDelayEP15M4_TMR0_TypeDef15en_tim0_channel19en_functional_state) for [local to hc32f46x_timer0_c]::AsyncDelay(M4_TMR0_TypeDef*, en_tim0_channel, en_functional_state)
    hc32f46x_timer0.o(i.TIMER0_WriteCmpReg) refers to hc32f46x_timer0.o(i._ZN39_INTERNAL_17_hc32f46x_timer0_c_4644dad510AsyncDelayEP15M4_TMR0_TypeDef15en_tim0_channel19en_functional_state) for [local to hc32f46x_timer0_c]::AsyncDelay(M4_TMR0_TypeDef*, en_tim0_channel, en_functional_state)
    hc32f46x_timer0.o(i.TIMER0_WriteCntReg) refers to hc32f46x_timer0.o(i._ZN39_INTERNAL_17_hc32f46x_timer0_c_4644dad510AsyncDelayEP15M4_TMR0_TypeDef15en_tim0_channel19en_functional_state) for [local to hc32f46x_timer0_c]::AsyncDelay(M4_TMR0_TypeDef*, en_tim0_channel, en_functional_state)
    hc32f46x_timer0.o(i._ZN39_INTERNAL_17_hc32f46x_timer0_c_4644dad510AsyncDelayEP15M4_TMR0_TypeDef15en_tim0_channel19en_functional_state) refers to hc32f46x_timer0.o(i._ZN39_INTERNAL_17_hc32f46x_timer0_c_4644dad517TIMER0_GetClkModeEP15M4_TMR0_TypeDef15en_tim0_channel) for [local to hc32f46x_timer0_c]::TIMER0_GetClkMode(M4_TMR0_TypeDef*, en_tim0_channel)
    hc32f46x_timer0.o(i._ZN39_INTERNAL_17_hc32f46x_timer0_c_4644dad510AsyncDelayEP15M4_TMR0_TypeDef15en_tim0_channel19en_functional_state) refers to system_hc32f46x.o(.data) for SystemCoreClock
    hc32f46x_timer0.o(.ARM.exidx) refers to hc32f46x_timer0.o(i._ZN39_INTERNAL_17_hc32f46x_timer0_c_4644dad517TIMER0_GetClkModeEP15M4_TMR0_TypeDef15en_tim0_channel) for i._ZN39_INTERNAL_17_hc32f46x_timer0_c_4644dad517TIMER0_GetClkModeEP15M4_TMR0_TypeDef15en_tim0_channel
    hc32f46x_timer0.o(.ARM.exidx) refers to hc32f46x_timer0.o(i._ZN39_INTERNAL_17_hc32f46x_timer0_c_4644dad510AsyncDelayEP15M4_TMR0_TypeDef15en_tim0_channel19en_functional_state) for i._ZN39_INTERNAL_17_hc32f46x_timer0_c_4644dad510AsyncDelayEP15M4_TMR0_TypeDef15en_tim0_channel19en_functional_state
    hc32f46x_timer0.o(.ARM.exidx) refers to hc32f46x_timer0.o(i.TIMER0_GetFlag) for i.TIMER0_GetFlag
    hc32f46x_timer0.o(.ARM.exidx) refers to hc32f46x_timer0.o(i.TIMER0_ClearFlag) for i.TIMER0_ClearFlag
    hc32f46x_timer0.o(.ARM.exidx) refers to hc32f46x_timer0.o(i.TIMER0_Cmd) for i.TIMER0_Cmd
    hc32f46x_timer0.o(.ARM.exidx) refers to hc32f46x_timer0.o(i.TIMER0_SetFunc) for i.TIMER0_SetFunc
    hc32f46x_timer0.o(.ARM.exidx) refers to hc32f46x_timer0.o(i.TIMER0_IntCmd) for i.TIMER0_IntCmd
    hc32f46x_timer0.o(.ARM.exidx) refers to hc32f46x_timer0.o(i.TIMER0_GetCntReg) for i.TIMER0_GetCntReg
    hc32f46x_timer0.o(.ARM.exidx) refers to hc32f46x_timer0.o(i.TIMER0_WriteCntReg) for i.TIMER0_WriteCntReg
    hc32f46x_timer0.o(.ARM.exidx) refers to hc32f46x_timer0.o(i.TIMER0_GetCmpReg) for i.TIMER0_GetCmpReg
    hc32f46x_timer0.o(.ARM.exidx) refers to hc32f46x_timer0.o(i.TIMER0_WriteCmpReg) for i.TIMER0_WriteCmpReg
    hc32f46x_timer0.o(.ARM.exidx) refers to hc32f46x_timer0.o(i.TIMER0_BaseInit) for i.TIMER0_BaseInit
    hc32f46x_timer0.o(.ARM.exidx) refers to hc32f46x_timer0.o(i.TIMER0_DeInit) for i.TIMER0_DeInit
    hc32f46x_timer0.o(.ARM.exidx) refers to hc32f46x_timer0.o(i.TIMER0_SetTriggerSrc) for i.TIMER0_SetTriggerSrc
    hc32f46x_timer0.o(.ARM.exidx) refers to hc32f46x_timer0.o(i.TIMER0_ComTriggerCmd) for i.TIMER0_ComTriggerCmd
    hc32f46x_timer0.o(.ARM.exidx) refers to hc32f46x_timer0.o(i.TIMER0_HardTriggerInit) for i.TIMER0_HardTriggerInit
    hc32f46x_timer4_cnt.o(.ARM.exidx) refers to hc32f46x_timer4_cnt.o(i.TIMER4_CNT_Init) for i.TIMER4_CNT_Init
    hc32f46x_timer4_cnt.o(.ARM.exidx) refers to hc32f46x_timer4_cnt.o(i.TIMER4_CNT_Load) for i.TIMER4_CNT_Load
    hc32f46x_timer4_cnt.o(.ARM.exidx) refers to hc32f46x_timer4_cnt.o(i.TIMER4_CNT_DeInit) for i.TIMER4_CNT_DeInit
    hc32f46x_timer4_cnt.o(.ARM.exidx) refers to hc32f46x_timer4_cnt.o(i.TIMER4_CNT_SetClock) for i.TIMER4_CNT_SetClock
    hc32f46x_timer4_cnt.o(.ARM.exidx) refers to hc32f46x_timer4_cnt.o(i.TIMER4_CNT_GetClock) for i.TIMER4_CNT_GetClock
    hc32f46x_timer4_cnt.o(.ARM.exidx) refers to hc32f46x_timer4_cnt.o(i.TIMER4_CNT_SetClockDiv) for i.TIMER4_CNT_SetClockDiv
    hc32f46x_timer4_cnt.o(.ARM.exidx) refers to hc32f46x_timer4_cnt.o(i.TIMER4_CNT_GetClockDiv) for i.TIMER4_CNT_GetClockDiv
    hc32f46x_timer4_cnt.o(.ARM.exidx) refers to hc32f46x_timer4_cnt.o(i.TIMER4_CNT_SetMode) for i.TIMER4_CNT_SetMode
    hc32f46x_timer4_cnt.o(.ARM.exidx) refers to hc32f46x_timer4_cnt.o(i.TIMER4_CNT_GetMode) for i.TIMER4_CNT_GetMode
    hc32f46x_timer4_cnt.o(.ARM.exidx) refers to hc32f46x_timer4_cnt.o(i.TIMER4_CNT_Start) for i.TIMER4_CNT_Start
    hc32f46x_timer4_cnt.o(.ARM.exidx) refers to hc32f46x_timer4_cnt.o(i.TIMER4_CNT_Stop) for i.TIMER4_CNT_Stop
    hc32f46x_timer4_cnt.o(.ARM.exidx) refers to hc32f46x_timer4_cnt.o(i.TIMER4_CNT_IrqCmd) for i.TIMER4_CNT_IrqCmd
    hc32f46x_timer4_cnt.o(.ARM.exidx) refers to hc32f46x_timer4_cnt.o(i.TIMER4_CNT_GetIrqFlag) for i.TIMER4_CNT_GetIrqFlag
    hc32f46x_timer4_cnt.o(.ARM.exidx) refers to hc32f46x_timer4_cnt.o(i.TIMER4_CNT_ClearIrqFlag) for i.TIMER4_CNT_ClearIrqFlag
    hc32f46x_timer4_cnt.o(.ARM.exidx) refers to hc32f46x_timer4_cnt.o(i.TIMER4_CNT_SetCycleVal) for i.TIMER4_CNT_SetCycleVal
    hc32f46x_timer4_cnt.o(.ARM.exidx) refers to hc32f46x_timer4_cnt.o(i.TIMER4_CNT_GetCycleVal) for i.TIMER4_CNT_GetCycleVal
    hc32f46x_timer4_cnt.o(.ARM.exidx) refers to hc32f46x_timer4_cnt.o(i.TIMER4_CNT_ClearCountVal) for i.TIMER4_CNT_ClearCountVal
    hc32f46x_timer4_cnt.o(.ARM.exidx) refers to hc32f46x_timer4_cnt.o(i.TIMER4_CNT_SetCountVal) for i.TIMER4_CNT_SetCountVal
    hc32f46x_timer4_cnt.o(.ARM.exidx) refers to hc32f46x_timer4_cnt.o(i.TIMER4_CNT_GetCountVal) for i.TIMER4_CNT_GetCountVal
    hc32f46x_timer4_cnt.o(.ARM.exidx) refers to hc32f46x_timer4_cnt.o(i.TIMER4_CNT_SetIntMaskTimes) for i.TIMER4_CNT_SetIntMaskTimes
    hc32f46x_timer4_cnt.o(.ARM.exidx) refers to hc32f46x_timer4_cnt.o(i.TIMER4_CNT_GetIntMaskTimes) for i.TIMER4_CNT_GetIntMaskTimes
    hc32f46x_timer4_pwm.o(.ARM.exidx) refers to hc32f46x_timer4_pwm.o(i.TIMER4_PWM_Init) for i.TIMER4_PWM_Init
    hc32f46x_timer4_pwm.o(.ARM.exidx) refers to hc32f46x_timer4_pwm.o(i.TIMER4_PWM_DeInit) for i.TIMER4_PWM_DeInit
    hc32f46x_timer4_pwm.o(.ARM.exidx) refers to hc32f46x_timer4_pwm.o(i.TIMER4_PWM_StartTimer) for i.TIMER4_PWM_StartTimer
    hc32f46x_timer4_pwm.o(.ARM.exidx) refers to hc32f46x_timer4_pwm.o(i.TIMER4_PWM_StopTimer) for i.TIMER4_PWM_StopTimer
    hc32f46x_timer4_pwm.o(.ARM.exidx) refers to hc32f46x_timer4_pwm.o(i.TIMER4_PWM_GetIrqFlag) for i.TIMER4_PWM_GetIrqFlag
    hc32f46x_timer4_pwm.o(.ARM.exidx) refers to hc32f46x_timer4_pwm.o(i.TIMER4_PWM_ClearIrqFlag) for i.TIMER4_PWM_ClearIrqFlag
    hc32f46x_timer4_pwm.o(.ARM.exidx) refers to hc32f46x_timer4_pwm.o(i.TIMER4_PWM_WriteDeadRegionValue) for i.TIMER4_PWM_WriteDeadRegionValue
    hc32f46x_timer4_pwm.o(.ARM.exidx) refers to hc32f46x_timer4_pwm.o(i.TIMER4_PWM_ReadDeadRegionValue) for i.TIMER4_PWM_ReadDeadRegionValue
    hc32f46x_timer4_pwm.o(.ARM.exidx) refers to hc32f46x_timer4_pwm.o(i.TIMER4_PWM_SetFilterCountValue) for i.TIMER4_PWM_SetFilterCountValue
    hc32f46x_timera.o(.ARM.exidx) refers to hc32f46x_timera.o(i.TIMERA_DeInit) for i.TIMERA_DeInit
    hc32f46x_timera.o(.ARM.exidx) refers to hc32f46x_timera.o(i.TIMERA_BaseInit) for i.TIMERA_BaseInit
    hc32f46x_timera.o(.ARM.exidx) refers to hc32f46x_timera.o(i.TIMERA_SetCurrCount) for i.TIMERA_SetCurrCount
    hc32f46x_timera.o(.ARM.exidx) refers to hc32f46x_timera.o(i.TIMERA_GetCurrCount) for i.TIMERA_GetCurrCount
    hc32f46x_timera.o(.ARM.exidx) refers to hc32f46x_timera.o(i.TIMERA_SetPeriodValue) for i.TIMERA_SetPeriodValue
    hc32f46x_timera.o(.ARM.exidx) refers to hc32f46x_timera.o(i.TIMERA_GetPeriodValue) for i.TIMERA_GetPeriodValue
    hc32f46x_timera.o(.ARM.exidx) refers to hc32f46x_timera.o(i.TIMERA_SyncStartupCmd) for i.TIMERA_SyncStartupCmd
    hc32f46x_timera.o(.ARM.exidx) refers to hc32f46x_timera.o(i.TIMERA_Cmd) for i.TIMERA_Cmd
    hc32f46x_timera.o(.ARM.exidx) refers to hc32f46x_timera.o(i.TIMERA_CompareInit) for i.TIMERA_CompareInit
    hc32f46x_timera.o(.ARM.exidx) refers to hc32f46x_timera.o(i.TIMERA_SetCompareValue) for i.TIMERA_SetCompareValue
    hc32f46x_timera.o(.ARM.exidx) refers to hc32f46x_timera.o(i.TIMERA_GetCompareValue) for i.TIMERA_GetCompareValue
    hc32f46x_timera.o(.ARM.exidx) refers to hc32f46x_timera.o(i.TIMERA_SetCacheValue) for i.TIMERA_SetCacheValue
    hc32f46x_timera.o(.ARM.exidx) refers to hc32f46x_timera.o(i.TIMERA_CompareCacheCmd) for i.TIMERA_CompareCacheCmd
    hc32f46x_timera.o(.ARM.exidx) refers to hc32f46x_timera.o(i.TIMERA_SpecifyOutputSta) for i.TIMERA_SpecifyOutputSta
    hc32f46x_timera.o(.ARM.exidx) refers to hc32f46x_timera.o(i.TIMERA_CompareCmd) for i.TIMERA_CompareCmd
    hc32f46x_timera.o(.ARM.exidx) refers to hc32f46x_timera.o(i.TIMERA_CaptureInit) for i.TIMERA_CaptureInit
    hc32f46x_timera.o(.ARM.exidx) refers to hc32f46x_timera.o(i.TIMERA_CaptureFilterCmd) for i.TIMERA_CaptureFilterCmd
    hc32f46x_timera.o(.ARM.exidx) refers to hc32f46x_timera.o(i.TIMERA_GetCaptureValue) for i.TIMERA_GetCaptureValue
    hc32f46x_timera.o(.ARM.exidx) refers to hc32f46x_timera.o(i.TIMERA_OrthogonalCodingInit) for i.TIMERA_OrthogonalCodingInit
    hc32f46x_timera.o(.ARM.exidx) refers to hc32f46x_timera.o(i.TIMERA_SetOrthogonalCodingCount) for i.TIMERA_SetOrthogonalCodingCount
    hc32f46x_timera.o(.ARM.exidx) refers to hc32f46x_timera.o(i.TIMERA_GetOrthogonalCodingCount) for i.TIMERA_GetOrthogonalCodingCount
    hc32f46x_timera.o(.ARM.exidx) refers to hc32f46x_timera.o(i.TIMERA_OrthogonalCodingFilterCmd) for i.TIMERA_OrthogonalCodingFilterCmd
    hc32f46x_timera.o(.ARM.exidx) refers to hc32f46x_timera.o(i.TIMERA_HwTriggerInit) for i.TIMERA_HwTriggerInit
    hc32f46x_timera.o(.ARM.exidx) refers to hc32f46x_timera.o(i.TIMERA_HwStartupConfig) for i.TIMERA_HwStartupConfig
    hc32f46x_timera.o(.ARM.exidx) refers to hc32f46x_timera.o(i.TIMERA_HwStopConfig) for i.TIMERA_HwStopConfig
    hc32f46x_timera.o(.ARM.exidx) refers to hc32f46x_timera.o(i.TIMERA_HwClearConfig) for i.TIMERA_HwClearConfig
    hc32f46x_timera.o(.ARM.exidx) refers to hc32f46x_timera.o(i.TIMERA_IrqCmd) for i.TIMERA_IrqCmd
    hc32f46x_timera.o(.ARM.exidx) refers to hc32f46x_timera.o(i.TIMERA_EventCmd) for i.TIMERA_EventCmd
    hc32f46x_timera.o(.ARM.exidx) refers to hc32f46x_timera.o(i.TIMERA_GetFlag) for i.TIMERA_GetFlag
    hc32f46x_timera.o(.ARM.exidx) refers to hc32f46x_timera.o(i.TIMERA_ClearFlag) for i.TIMERA_ClearFlag
    hc32f46x_timera.o(.ARM.exidx) refers to hc32f46x_timera.o(i.TIMERA_SetCountTriggerSrc) for i.TIMERA_SetCountTriggerSrc
    hc32f46x_timera.o(.ARM.exidx) refers to hc32f46x_timera.o(i.TIMERA_SetCaptureTriggerSrc) for i.TIMERA_SetCaptureTriggerSrc
    hc32f46x_timera.o(.ARM.exidx) refers to hc32f46x_timera.o(i.TIMERA_CountComTriggerCmd) for i.TIMERA_CountComTriggerCmd
    hc32f46x_timera.o(.ARM.exidx) refers to hc32f46x_timera.o(i.TIMERA_CaptureComTriggerCmd) for i.TIMERA_CaptureComTriggerCmd
    hc32f46x_usart.o(i.USART_SetBaudrate) refers to hc32f46x_usart.o(i._ZN38_INTERNAL_16_hc32f46x_usart_c_0262f0bf13SetScBaudrateEP16M4_USART_TypeDefj) for [local to hc32f46x_usart_c]::SetScBaudrate(M4_USART_TypeDef*, unsigned)
    hc32f46x_usart.o(i.USART_SetBaudrate) refers to hc32f46x_usart.o(i._ZN38_INTERNAL_16_hc32f46x_usart_c_0262f0bf18SetClkSyncBaudrateEP16M4_USART_TypeDefj) for [local to hc32f46x_usart_c]::SetClkSyncBaudrate(M4_USART_TypeDef*, unsigned)
    hc32f46x_usart.o(i.USART_SetBaudrate) refers to hc32f46x_usart.o(i._ZN38_INTERNAL_16_hc32f46x_usart_c_0262f0bf15SetUartBaudrateEP16M4_USART_TypeDefj) for [local to hc32f46x_usart_c]::SetUartBaudrate(M4_USART_TypeDef*, unsigned)
    hc32f46x_usart.o(i._ZN38_INTERNAL_16_hc32f46x_usart_c_0262f0bf11UsartGetClkEPK16M4_USART_TypeDef) refers to system_hc32f46x.o(.data) for SystemCoreClock
    hc32f46x_usart.o(i._ZN38_INTERNAL_16_hc32f46x_usart_c_0262f0bf13SetScBaudrateEP16M4_USART_TypeDefj) refers to hc32f46x_usart.o(i._ZN38_INTERNAL_16_hc32f46x_usart_c_0262f0bf11UsartGetClkEPK16M4_USART_TypeDef) for [local to hc32f46x_usart_c]::UsartGetClk(const M4_USART_TypeDef*)
    hc32f46x_usart.o(i._ZN38_INTERNAL_16_hc32f46x_usart_c_0262f0bf13SetScBaudrateEP16M4_USART_TypeDefj) refers to uldiv.o(.text) for __aeabi_uldivmod
    hc32f46x_usart.o(i._ZN38_INTERNAL_16_hc32f46x_usart_c_0262f0bf13SetScBaudrateEP16M4_USART_TypeDefj) refers to hc32f46x_usart.o(.constdata) for .constdata
    hc32f46x_usart.o(i._ZN38_INTERNAL_16_hc32f46x_usart_c_0262f0bf15SetUartBaudrateEP16M4_USART_TypeDefj) refers to hc32f46x_usart.o(i._ZN38_INTERNAL_16_hc32f46x_usart_c_0262f0bf11UsartGetClkEPK16M4_USART_TypeDef) for [local to hc32f46x_usart_c]::UsartGetClk(const M4_USART_TypeDef*)
    hc32f46x_usart.o(i._ZN38_INTERNAL_16_hc32f46x_usart_c_0262f0bf15SetUartBaudrateEP16M4_USART_TypeDefj) refers to uldiv.o(.text) for __aeabi_uldivmod
    hc32f46x_usart.o(i._ZN38_INTERNAL_16_hc32f46x_usart_c_0262f0bf18SetClkSyncBaudrateEP16M4_USART_TypeDefj) refers to hc32f46x_usart.o(i._ZN38_INTERNAL_16_hc32f46x_usart_c_0262f0bf11UsartGetClkEPK16M4_USART_TypeDef) for [local to hc32f46x_usart_c]::UsartGetClk(const M4_USART_TypeDef*)
    hc32f46x_usart.o(i._ZN38_INTERNAL_16_hc32f46x_usart_c_0262f0bf18SetClkSyncBaudrateEP16M4_USART_TypeDefj) refers to uldiv.o(.text) for __aeabi_uldivmod
    hc32f46x_usart.o(.ARM.exidx) refers to hc32f46x_usart.o(i.USART_UART_Init) for i.USART_UART_Init
    hc32f46x_usart.o(.ARM.exidx) refers to hc32f46x_usart.o(i.USART_CLKSYNC_Init) for i.USART_CLKSYNC_Init
    hc32f46x_usart.o(.ARM.exidx) refers to hc32f46x_usart.o(i.USART_SC_Init) for i.USART_SC_Init
    hc32f46x_usart.o(.ARM.exidx) refers to hc32f46x_usart.o(i.USART_DeInit) for i.USART_DeInit
    hc32f46x_usart.o(.ARM.exidx) refers to hc32f46x_usart.o(i.USART_GetStatus) for i.USART_GetStatus
    hc32f46x_usart.o(.ARM.exidx) refers to hc32f46x_usart.o(i.USART_ClearStatus) for i.USART_ClearStatus
    hc32f46x_usart.o(.ARM.exidx) refers to hc32f46x_usart.o(i.USART_FuncCmd) for i.USART_FuncCmd
    hc32f46x_usart.o(.ARM.exidx) refers to hc32f46x_usart.o(i.USART_SetParity) for i.USART_SetParity
    hc32f46x_usart.o(.ARM.exidx) refers to hc32f46x_usart.o(i.USART_GetParity) for i.USART_GetParity
    hc32f46x_usart.o(.ARM.exidx) refers to hc32f46x_usart.o(i.USART_SetOverSampling) for i.USART_SetOverSampling
    hc32f46x_usart.o(.ARM.exidx) refers to hc32f46x_usart.o(i.USART_GetOverSampling) for i.USART_GetOverSampling
    hc32f46x_usart.o(.ARM.exidx) refers to hc32f46x_usart.o(i._Z26USART_SetTransferDirectionP16M4_USART_TypeDef17en_usart_data_dir) for i._Z26USART_SetTransferDirectionP16M4_USART_TypeDef17en_usart_data_dir
    hc32f46x_usart.o(.ARM.exidx) refers to hc32f46x_usart.o(i.USART_GetTransferDirection) for i.USART_GetTransferDirection
    hc32f46x_usart.o(.ARM.exidx) refers to hc32f46x_usart.o(i.USART_SetDataLength) for i.USART_SetDataLength
    hc32f46x_usart.o(.ARM.exidx) refers to hc32f46x_usart.o(i.USART_GetDataLength) for i.USART_GetDataLength
    hc32f46x_usart.o(.ARM.exidx) refers to hc32f46x_usart.o(i.USART_SetClkMode) for i.USART_SetClkMode
    hc32f46x_usart.o(.ARM.exidx) refers to hc32f46x_usart.o(i.USART_GetClkMode) for i.USART_GetClkMode
    hc32f46x_usart.o(.ARM.exidx) refers to hc32f46x_usart.o(i.USART_SetMode) for i.USART_SetMode
    hc32f46x_usart.o(.ARM.exidx) refers to hc32f46x_usart.o(i.USART_GetMode) for i.USART_GetMode
    hc32f46x_usart.o(.ARM.exidx) refers to hc32f46x_usart.o(i.USART_SetStopBitsLength) for i.USART_SetStopBitsLength
    hc32f46x_usart.o(.ARM.exidx) refers to hc32f46x_usart.o(i.USART_GetStopBitsLength) for i.USART_GetStopBitsLength
    hc32f46x_usart.o(.ARM.exidx) refers to hc32f46x_usart.o(i.USART_SetSbDetectMode) for i.USART_SetSbDetectMode
    hc32f46x_usart.o(.ARM.exidx) refers to hc32f46x_usart.o(i.USART_GetSbDetectMode) for i.USART_GetSbDetectMode
    hc32f46x_usart.o(.ARM.exidx) refers to hc32f46x_usart.o(i.USART_SetHwFlowCtrl) for i.USART_SetHwFlowCtrl
    hc32f46x_usart.o(.ARM.exidx) refers to hc32f46x_usart.o(i.USART_GetHwFlowCtrl) for i.USART_GetHwFlowCtrl
    hc32f46x_usart.o(.ARM.exidx) refers to hc32f46x_usart.o(i.USART_SetClockDiv) for i.USART_SetClockDiv
    hc32f46x_usart.o(.ARM.exidx) refers to hc32f46x_usart.o(i.USART_GetClockDiv) for i.USART_GetClockDiv
    hc32f46x_usart.o(.ARM.exidx) refers to hc32f46x_usart.o(i.USART_SetScEtuClk) for i.USART_SetScEtuClk
    hc32f46x_usart.o(.ARM.exidx) refers to hc32f46x_usart.o(i.USART_GetScEtuClk) for i.USART_GetScEtuClk
    hc32f46x_usart.o(.ARM.exidx) refers to hc32f46x_usart.o(i.USART_SendData) for i.USART_SendData
    hc32f46x_usart.o(.ARM.exidx) refers to hc32f46x_usart.o(i.USART_RecData) for i.USART_RecData
    hc32f46x_usart.o(.ARM.exidx) refers to hc32f46x_usart.o(i._ZN38_INTERNAL_16_hc32f46x_usart_c_0262f0bf11UsartGetClkEPK16M4_USART_TypeDef) for i._ZN38_INTERNAL_16_hc32f46x_usart_c_0262f0bf11UsartGetClkEPK16M4_USART_TypeDef
    hc32f46x_usart.o(.ARM.exidx) refers to hc32f46x_usart.o(i._ZN38_INTERNAL_16_hc32f46x_usart_c_0262f0bf15SetUartBaudrateEP16M4_USART_TypeDefj) for i._ZN38_INTERNAL_16_hc32f46x_usart_c_0262f0bf15SetUartBaudrateEP16M4_USART_TypeDefj
    hc32f46x_usart.o(.ARM.exidx) refers to hc32f46x_usart.o(i._ZN38_INTERNAL_16_hc32f46x_usart_c_0262f0bf18SetClkSyncBaudrateEP16M4_USART_TypeDefj) for i._ZN38_INTERNAL_16_hc32f46x_usart_c_0262f0bf18SetClkSyncBaudrateEP16M4_USART_TypeDefj
    hc32f46x_usart.o(.ARM.exidx) refers to hc32f46x_usart.o(i._ZN38_INTERNAL_16_hc32f46x_usart_c_0262f0bf13SetScBaudrateEP16M4_USART_TypeDefj) for i._ZN38_INTERNAL_16_hc32f46x_usart_c_0262f0bf13SetScBaudrateEP16M4_USART_TypeDefj
    hc32f46x_usart.o(.ARM.exidx) refers to hc32f46x_usart.o(i.USART_SetBaudrate) for i.USART_SetBaudrate
    hc32f46x_utility.o(i.Ddl_Delay1ms) refers to system_hc32f46x.o(.data) for SystemCoreClock
    hc32f46x_utility.o(i.Ddl_Delay1us) refers to system_hc32f46x.o(.data) for SystemCoreClock
    hc32f46x_utility.o(i.Ddl_UartInit) refers to hc32f46x_utility.o(i._ZN40_INTERNAL_18_hc32f46x_utility_c_dc87219515SetUartBaudrateEj) for [local to hc32f46x_utility_c]::SetUartBaudrate(unsigned)
    hc32f46x_utility.o(i.SysTick_Delay) refers to hc32f46x_utility.o(i.SysTick_GetTick) for SysTick_GetTick
    hc32f46x_utility.o(i.SysTick_Delay) refers to hc32f46x_utility.o(.data) for m_u32TickStep
    hc32f46x_utility.o(i.SysTick_GetTick) refers to hc32f46x_utility.o(.data) for m_u32TickCount
    hc32f46x_utility.o(i.SysTick_IncTick) refers to hc32f46x_utility.o(.data) for m_u32TickCount
    hc32f46x_utility.o(i.SysTick_Init) refers to hc32f46x_utility.o(.data) for m_u32TickStep
    hc32f46x_utility.o(i.SysTick_Init) refers to system_hc32f46x.o(.data) for SystemCoreClock
    hc32f46x_utility.o(i._ZN40_INTERNAL_18_hc32f46x_utility_c_dc87219515SetUartBaudrateEj) refers to uldiv.o(.text) for __aeabi_uldivmod
    hc32f46x_utility.o(i._ZN40_INTERNAL_18_hc32f46x_utility_c_dc87219515SetUartBaudrateEj) refers to system_hc32f46x.o(.data) for SystemCoreClock
    hc32f46x_utility.o(i.fputc) refers to hc32f46x_utility.o(i._Z11DebugOutputh) for DebugOutput(unsigned char)
    hc32f46x_utility.o(.ARM.exidx) refers to hc32f46x_utility.o(i._Z11DebugOutputh) for i._Z11DebugOutputh
    hc32f46x_utility.o(.ARM.exidx) refers to hc32f46x_utility.o(i.fputc) for i.fputc
    hc32f46x_utility.o(.ARM.exidx) refers to hc32f46x_utility.o(i._ZN40_INTERNAL_18_hc32f46x_utility_c_dc87219515SetUartBaudrateEj) for i._ZN40_INTERNAL_18_hc32f46x_utility_c_dc87219515SetUartBaudrateEj
    hc32f46x_utility.o(.ARM.exidx) refers to hc32f46x_utility.o(i.Ddl_UartInit) for i.Ddl_UartInit
    hc32f46x_utility.o(.ARM.exidx) refers to hc32f46x_utility.o(i.Ddl_Delay1ms) for i.Ddl_Delay1ms
    hc32f46x_utility.o(.ARM.exidx) refers to hc32f46x_utility.o(i.Ddl_Delay1us) for i.Ddl_Delay1us
    hc32f46x_utility.o(.ARM.exidx) refers to hc32f46x_utility.o(i.SysTick_Init) for i.SysTick_Init
    hc32f46x_utility.o(.ARM.exidx) refers to hc32f46x_utility.o(i.SysTick_GetTick) for i.SysTick_GetTick
    hc32f46x_utility.o(.ARM.exidx) refers to hc32f46x_utility.o(i.SysTick_Delay) for i.SysTick_Delay
    hc32f46x_utility.o(.ARM.exidx) refers to hc32f46x_utility.o(i.SysTick_IncTick) for i.SysTick_IncTick
    hc32f46x_utility.o(.ARM.exidx) refers to hc32f46x_utility.o(i.SysTick_Suspend) for i.SysTick_Suspend
    hc32f46x_utility.o(.ARM.exidx) refers to hc32f46x_utility.o(i.SysTick_Resume) for i.SysTick_Resume
    hc32f46x_wdt.o(.ARM.exidx) refers to hc32f46x_wdt.o(i.WDT_Init) for i.WDT_Init
    hc32f46x_wdt.o(.ARM.exidx) refers to hc32f46x_wdt.o(i.WDT_RefreshCounter) for i.WDT_RefreshCounter
    hc32f46x_wdt.o(.ARM.exidx) refers to hc32f46x_wdt.o(i.WDT_GetCountValue) for i.WDT_GetCountValue
    hc32f46x_wdt.o(.ARM.exidx) refers to hc32f46x_wdt.o(i.WDT_GetFlag) for i.WDT_GetFlag
    hc32f46x_wdt.o(.ARM.exidx) refers to hc32f46x_wdt.o(i.WDT_ClearFlag) for i.WDT_ClearFlag
    arduino.o(i.random) refers to rand.o(.text) for rand
    arduino.o(.ARM.exidx) refers to arduino.o(i.random) for i.random
    flash.o(i.FlashErasePage) refers to printfa.o(i.__0printf) for __2printf
    flash.o(i.FlashErasePage) refers to hc32f46x_efm.o(i.EFM_Unlock) for EFM_Unlock
    flash.o(i.FlashErasePage) refers to hc32f46x_efm.o(i.EFM_FlashCmd) for EFM_FlashCmd
    flash.o(i.FlashErasePage) refers to hc32f46x_efm.o(i.EFM_GetFlagStatus) for EFM_GetFlagStatus
    flash.o(i.FlashErasePage) refers to hc32f46x_efm.o(i.EFM_SectorErase) for EFM_SectorErase
    flash.o(i.FlashErasePage) refers to hc32f46x_efm.o(i.EFM_Lock) for EFM_Lock
    flash.o(i.FlashErasePage) refers to flash.o(.constdata) for FlashErasePage::__FUNCTION__
    flash.o(i.Flash_Updata) refers to hc32f46x_efm.o(i.EFM_Unlock) for EFM_Unlock
    flash.o(i.Flash_Updata) refers to hc32f46x_efm.o(i.EFM_FlashCmd) for EFM_FlashCmd
    flash.o(i.Flash_Updata) refers to hc32f46x_efm.o(i.EFM_GetFlagStatus) for EFM_GetFlagStatus
    flash.o(i.Flash_Updata) refers to hc32f46x_efm.o(i.EFM_SectorErase) for EFM_SectorErase
    flash.o(i.Flash_Updata) refers to printfa.o(i.__0printf) for __2printf
    flash.o(i.Flash_Updata) refers to hc32f46x_efm.o(i.EFM_SingleProgram) for EFM_SingleProgram
    flash.o(i.Flash_Updata) refers to hc32f46x_efm.o(i.EFM_Lock) for EFM_Lock
    flash.o(i.Flash_Updata) refers to flash.o(.constdata) for Flash_Updata::__FUNCTION__
    flash.o(i.eeprom_buffer_fill) refers to memmovea.o(.text) for __aeabi_memcpy4
    flash.o(i.eeprom_buffer_fill) refers to flash.o(.bss) for [local to flash_cpp]::Intflash::eeprom_buffer
    flash.o(i.eeprom_buffer_flush) refers to hc32f46x_efm.o(i.EFM_Unlock) for EFM_Unlock
    flash.o(i.eeprom_buffer_flush) refers to hc32f46x_efm.o(i.EFM_FlashCmd) for EFM_FlashCmd
    flash.o(i.eeprom_buffer_flush) refers to hc32f46x_efm.o(i.EFM_GetFlagStatus) for EFM_GetFlagStatus
    flash.o(i.eeprom_buffer_flush) refers to hc32f46x_efm.o(i.EFM_SectorErase) for EFM_SectorErase
    flash.o(i.eeprom_buffer_flush) refers to printfa.o(i.__0printf) for __2printf
    flash.o(i.eeprom_buffer_flush) refers to hc32f46x_efm.o(i.EFM_SingleProgram) for EFM_SingleProgram
    flash.o(i.eeprom_buffer_flush) refers to hc32f46x_efm.o(i.EFM_Lock) for EFM_Lock
    flash.o(i.eeprom_buffer_flush) refers to flash.o(.constdata) for eeprom_buffer_flush::__FUNCTION__
    flash.o(i.eeprom_buffer_flush) refers to flash.o(.bss) for [local to flash_cpp]::Intflash::eeprom_buffer
    flash.o(i.eeprom_buffered_read_byte) refers to flash.o(.bss) for [local to flash_cpp]::Intflash::eeprom_buffer
    flash.o(i.eeprom_buffered_write_byte) refers to flash.o(.bss) for [local to flash_cpp]::Intflash::eeprom_buffer
    flash.o(i.eeprom_read_byte) refers to flash.o(i.eeprom_buffer_fill) for eeprom_buffer_fill
    flash.o(i.eeprom_read_byte) refers to flash.o(i.eeprom_buffered_read_byte) for eeprom_buffered_read_byte
    flash.o(i.eeprom_write_byte) refers to flash.o(i.eeprom_buffered_write_byte) for eeprom_buffered_write_byte
    flash.o(i.eeprom_write_byte) refers to flash.o(i.eeprom_buffer_flush) for eeprom_buffer_flush
    flash.o(.ARM.exidx) refers to flash.o(i.FlashErasePage) for i.FlashErasePage
    flash.o(.ARM.exidx) refers to flash.o(i.Flash_Updata) for i.Flash_Updata
    flash.o(.ARM.exidx) refers to flash.o(i.eeprom_buffer_fill) for i.eeprom_buffer_fill
    flash.o(.ARM.exidx) refers to flash.o(i.eeprom_buffer_flush) for i.eeprom_buffer_flush
    flash.o(.ARM.exidx) refers to flash.o(i.eeprom_buffered_read_byte) for i.eeprom_buffered_read_byte
    flash.o(.ARM.exidx) refers to flash.o(i.eeprom_read_byte) for i.eeprom_read_byte
    flash.o(.ARM.exidx) refers to flash.o(i.eeprom_buffered_write_byte) for i.eeprom_buffered_write_byte
    flash.o(.ARM.exidx) refers to flash.o(i.eeprom_write_byte) for i.eeprom_write_byte
    io.o(i._Z13gpio_set_modeh13WiringPinMode) refers to hc32f46x_gpio.o(i.PORT_Init) for PORT_Init
    io.o(i._Z13gpio_set_modeh13WiringPinMode) refers to board_gpio.o(.constdata) for PIN_MAP
    io.o(i._Z7pinModeh13WiringPinMode) refers to io.o(i._Z13gpio_set_modeh13WiringPinMode) for gpio_set_mode(unsigned char, WiringPinMode)
    io.o(.ARM.exidx) refers to io.o(i._Z13gpio_set_modeh13WiringPinMode) for i._Z13gpio_set_modeh13WiringPinMode
    io.o(.ARM.exidx) refers to io.o(i._Z7pinModeh13WiringPinMode) for i._Z7pinModeh13WiringPinMode
    iwdg.o(i.iwdg_feed) refers to bsp_wdt.o(i._Z15bsp_wdt_refreshv) for bsp_wdt_refresh()
    iwdg.o(i.iwdg_init) refers to bsp_wdt.o(i._Z12bsp_wdt_initv) for bsp_wdt_init()
    iwdg.o(i.iwdg_init) refers to bsp_wdt.o(i._Z15bsp_wdt_refreshv) for bsp_wdt_refresh()
    iwdg.o(.ARM.exidx) refers to iwdg.o(i.iwdg_init) for i.iwdg_init
    iwdg.o(.ARM.exidx) refers to iwdg.o(i.iwdg_feed) for i.iwdg_feed
    tone.o(i._Z11AC_PlayTunehPKth) refers to tone.o(i._Z4tonehtj) for tone(unsigned char, unsigned short, unsigned)
    tone.o(i._Z11AC_PlayTunehPKth) refers to utility.o(i._Z10safe_delayj) for safe_delay(unsigned)
    tone.o(i._Z17Timer01B_CallBackv) refers to bsp_timer.o(i._Z21timer01B_set_overflowt) for timer01B_set_overflow(unsigned short)
    tone.o(i._Z17Timer01B_CallBackv) refers to bsp_pwm.o(i._Z13beep_pwm_stopv) for beep_pwm_stop()
    tone.o(i._Z17Timer01B_CallBackv) refers to bsp_timer.o(i._Z16timer01B_disablev) for timer01B_disable()
    tone.o(i._Z17Timer01B_CallBackv) refers to tone.o(.data) for duration_cnt
    tone.o(i._Z4tonehtj) refers to bsp_timer.o(i._Z21timer01B_set_overflowt) for timer01B_set_overflow(unsigned short)
    tone.o(i._Z4tonehtj) refers to bsp_pwm.o(i._Z22beep_pwm_set_frequencyjh) for beep_pwm_set_frequency(unsigned, unsigned char)
    tone.o(i._Z4tonehtj) refers to tone.o(.data) for duration_cnt
    tone.o(.ARM.exidx) refers to tone.o(i._Z4tonehtj) for i._Z4tonehtj
    tone.o(.ARM.exidx) refers to tone.o(i._Z11AC_PlayTunehPKth) for i._Z11AC_PlayTunehPKth
    tone.o(.ARM.exidx) refers to tone.o(i._Z6noTonehb) for i._Z6noTonehb
    tone.o(.ARM.exidx) refers to tone.o(i._Z17Timer01B_CallBackv) for i._Z17Timer01B_CallBackv
    softwareserial.o(i._Z17Timer02B_CallBackv) refers to softwareserial.o(i._ZN14SoftwareSerial15handleInterruptEv) for SoftwareSerial::handleInterrupt()
    softwareserial.o(i._ZN14SoftwareSerial13stopListeningEv) refers to softwareserial.o(i._ZN14SoftwareSerial7setRXTXEb) for SoftwareSerial::setRXTX(bool)
    softwareserial.o(i._ZN14SoftwareSerial13stopListeningEv) refers to softwareserial.o(i._ZN14SoftwareSerial8setSpeedEj) for SoftwareSerial::setSpeed(unsigned)
    softwareserial.o(i._ZN14SoftwareSerial13stopListeningEv) refers to softwareserial.o(.data) for SoftwareSerial::active_listener
    softwareserial.o(i._ZN14SoftwareSerial15handleInterruptEv) refers to softwareserial.o(i._ZN14SoftwareSerial4recvEv) for SoftwareSerial::recv()
    softwareserial.o(i._ZN14SoftwareSerial15handleInterruptEv) refers to softwareserial.o(i._ZN14SoftwareSerial4sendEv) for SoftwareSerial::send()
    softwareserial.o(i._ZN14SoftwareSerial15handleInterruptEv) refers to softwareserial.o(.data) for SoftwareSerial::active_in
    softwareserial.o(i._ZN14SoftwareSerial3endEv) refers to softwareserial.o(i._ZN14SoftwareSerial13stopListeningEv) for SoftwareSerial::stopListening()
    softwareserial.o(i._ZN14SoftwareSerial5beginEl) refers to softwareserial.o(i._ZN14SoftwareSerial5setTXEv) for SoftwareSerial::setTX()
    softwareserial.o(i._ZN14SoftwareSerial5beginEl) refers to softwareserial.o(i._ZN14SoftwareSerial5setRXEv) for SoftwareSerial::setRX()
    softwareserial.o(i._ZN14SoftwareSerial5beginEl) refers to softwareserial.o(i._ZN14SoftwareSerial6listenEv) for SoftwareSerial::listen()
    softwareserial.o(i._ZN14SoftwareSerial5writeEh) refers to softwareserial.o(i._ZN14SoftwareSerial8setSpeedEj) for SoftwareSerial::setSpeed(unsigned)
    softwareserial.o(i._ZN14SoftwareSerial5writeEh) refers to softwareserial.o(i._ZN14SoftwareSerial7setRXTXEb) for SoftwareSerial::setRXTX(bool)
    softwareserial.o(i._ZN14SoftwareSerial5writeEh) refers to softwareserial.o(.data) for SoftwareSerial::active_out
    softwareserial.o(i._ZN14SoftwareSerial6listenEv) refers to softwareserial.o(i._ZN14SoftwareSerial13stopListeningEv) for SoftwareSerial::stopListening()
    softwareserial.o(i._ZN14SoftwareSerial6listenEv) refers to softwareserial.o(i._ZN14SoftwareSerial8setSpeedEj) for SoftwareSerial::setSpeed(unsigned)
    softwareserial.o(i._ZN14SoftwareSerial6listenEv) refers to softwareserial.o(.data) for SoftwareSerial::active_listener
    softwareserial.o(i._ZN14SoftwareSerial8setSpeedEj) refers to hc32f46x_timer0.o(i.TIMER0_Cmd) for TIMER0_Cmd
    softwareserial.o(i._ZN14SoftwareSerial8setSpeedEj) refers to bsp_timer.o(i._Z13get_pclk1Freqv) for get_pclk1Freq()
    softwareserial.o(i._ZN14SoftwareSerial8setSpeedEj) refers to softwareserial.o(.data) for SoftwareSerial::cur_speed
    softwareserial.o(i._ZN14SoftwareSerialC1Ettb) refers to print.o(.constdata__ZTV5Print) for vtable for Print
    softwareserial.o(i._ZN14SoftwareSerialC1Ettb) refers to stream.o(.constdata__ZTV6Stream) for vtable for Stream
    softwareserial.o(i._ZN14SoftwareSerialC1Ettb) refers to softwareserial.o(.constdata__ZTV14SoftwareSerial) for vtable for SoftwareSerial
    softwareserial.o(i._ZN14SoftwareSerialD0Ev) refers to softwareserial.o(i._ZN14SoftwareSerialD1Ev) for SoftwareSerial::~SoftwareSerial()
    softwareserial.o(i._ZN14SoftwareSerialD0Ev) refers to delete.o(i._ZdlPv) for operator delete (void*)
    softwareserial.o(i._ZN14SoftwareSerialD1Ev) refers to softwareserial.o(i._ZN14SoftwareSerial3endEv) for SoftwareSerial::end()
    softwareserial.o(i._ZN14SoftwareSerialD1Ev) refers to softwareserial.o(.constdata__ZTV14SoftwareSerial) for vtable for SoftwareSerial
    softwareserial.o(.ARM.exidx) refers to softwareserial.o(i._ZN14SoftwareSerial15handleInterruptEv) for i._ZN14SoftwareSerial15handleInterruptEv
    softwareserial.o(.ARM.exidx) refers to softwareserial.o(i._Z17Timer02B_CallBackv) for i._Z17Timer02B_CallBackv
    softwareserial.o(.ARM.exidx) refers to softwareserial.o(i._ZN14SoftwareSerial8setSpeedEj) for i._ZN14SoftwareSerial8setSpeedEj
    softwareserial.o(.ARM.exidx) refers to softwareserial.o(i._ZN14SoftwareSerialC1Ettb) for i._ZN14SoftwareSerialC1Ettb
    softwareserial.o(.ARM.exidx) refers to softwareserial.o(i._ZN14SoftwareSerial13stopListeningEv) for i._ZN14SoftwareSerial13stopListeningEv
    softwareserial.o(.ARM.exidx) refers to softwareserial.o(i._ZN14SoftwareSerial3endEv) for i._ZN14SoftwareSerial3endEv
    softwareserial.o(.ARM.exidx) refers to softwareserial.o(i._ZN14SoftwareSerialD1Ev) for i._ZN14SoftwareSerialD1Ev
    softwareserial.o(.ARM.exidx) refers to softwareserial.o(i._ZN14SoftwareSerialD0Ev) for i._ZN14SoftwareSerialD0Ev
    softwareserial.o(.ARM.exidx) refers to softwareserial.o(i._ZN14SoftwareSerial6listenEv) for i._ZN14SoftwareSerial6listenEv
    softwareserial.o(.ARM.exidx) refers to softwareserial.o(i._ZN14SoftwareSerial5beginEl) for i._ZN14SoftwareSerial5beginEl
    softwareserial.o(.ARM.exidx) refers to softwareserial.o(i._ZN14SoftwareSerial4peekEv) for i._ZN14SoftwareSerial4peekEv
    softwareserial.o(.ARM.exidx) refers to softwareserial.o(i._ZN14SoftwareSerial5writeEh) for i._ZN14SoftwareSerial5writeEh
    softwareserial.o(.ARM.exidx) refers to softwareserial.o(i._ZN14SoftwareSerial4readEv) for i._ZN14SoftwareSerial4readEv
    softwareserial.o(.ARM.exidx) refers to softwareserial.o(i._ZN14SoftwareSerial9availableEv) for i._ZN14SoftwareSerial9availableEv
    softwareserial.o(.ARM.exidx) refers to softwareserial.o(i._ZN14SoftwareSerial5flushEv) for i._ZN14SoftwareSerial5flushEv
    softwareserial.o(.ARM.exidx) refers to softwareserial.o(i._ZN14SoftwareSerial20setInterruptPriorityEjj) for i._ZN14SoftwareSerial20setInterruptPriorityEjj
    chopconf.o(i._ZN14TMC2208Stepper3tblEv) refers to chopconf.o(i._ZN14TMC2208Stepper8CHOPCONFEv) for TMC2208Stepper::CHOPCONF()
    chopconf.o(i._ZN14TMC2208Stepper4hendEv) refers to chopconf.o(i._ZN14TMC2208Stepper8CHOPCONFEv) for TMC2208Stepper::CHOPCONF()
    chopconf.o(i._ZN14TMC2208Stepper4mresEv) refers to chopconf.o(i._ZN14TMC2208Stepper8CHOPCONFEv) for TMC2208Stepper::CHOPCONF()
    chopconf.o(i._ZN14TMC2208Stepper4toffEv) refers to chopconf.o(i._ZN14TMC2208Stepper8CHOPCONFEv) for TMC2208Stepper::CHOPCONF()
    chopconf.o(i._ZN14TMC2208Stepper5dedgeEv) refers to chopconf.o(i._ZN14TMC2208Stepper8CHOPCONFEv) for TMC2208Stepper::CHOPCONF()
    chopconf.o(i._ZN14TMC2208Stepper5hstrtEv) refers to chopconf.o(i._ZN14TMC2208Stepper8CHOPCONFEv) for TMC2208Stepper::CHOPCONF()
    chopconf.o(i._ZN14TMC2208Stepper6diss2gEv) refers to chopconf.o(i._ZN14TMC2208Stepper8CHOPCONFEv) for TMC2208Stepper::CHOPCONF()
    chopconf.o(i._ZN14TMC2208Stepper6intpolEv) refers to chopconf.o(i._ZN14TMC2208Stepper8CHOPCONFEv) for TMC2208Stepper::CHOPCONF()
    chopconf.o(i._ZN14TMC2208Stepper6vsenseEv) refers to chopconf.o(i._ZN14TMC2208Stepper8CHOPCONFEv) for TMC2208Stepper::CHOPCONF()
    chopconf.o(i._ZN14TMC2208Stepper7diss2vsEv) refers to chopconf.o(i._ZN14TMC2208Stepper8CHOPCONFEv) for TMC2208Stepper::CHOPCONF()
    chopconf.o(.ARM.exidx) refers to chopconf.o(i._ZN14TMC2208Stepper8CHOPCONFEj) for i._ZN14TMC2208Stepper8CHOPCONFEj
    chopconf.o(.ARM.exidx) refers to chopconf.o(i._ZN14TMC2208Stepper4toffEh) for i._ZN14TMC2208Stepper4toffEh
    chopconf.o(.ARM.exidx) refers to chopconf.o(i._ZN14TMC2208Stepper5hstrtEh) for i._ZN14TMC2208Stepper5hstrtEh
    chopconf.o(.ARM.exidx) refers to chopconf.o(i._ZN14TMC2208Stepper4hendEh) for i._ZN14TMC2208Stepper4hendEh
    chopconf.o(.ARM.exidx) refers to chopconf.o(i._ZN14TMC2208Stepper3tblEh) for i._ZN14TMC2208Stepper3tblEh
    chopconf.o(.ARM.exidx) refers to chopconf.o(i._ZN14TMC2208Stepper6vsenseEb) for i._ZN14TMC2208Stepper6vsenseEb
    chopconf.o(.ARM.exidx) refers to chopconf.o(i._ZN14TMC2208Stepper4mresEh) for i._ZN14TMC2208Stepper4mresEh
    chopconf.o(.ARM.exidx) refers to chopconf.o(i._ZN14TMC2208Stepper6intpolEb) for i._ZN14TMC2208Stepper6intpolEb
    chopconf.o(.ARM.exidx) refers to chopconf.o(i._ZN14TMC2208Stepper5dedgeEb) for i._ZN14TMC2208Stepper5dedgeEb
    chopconf.o(.ARM.exidx) refers to chopconf.o(i._ZN14TMC2208Stepper6diss2gEb) for i._ZN14TMC2208Stepper6diss2gEb
    chopconf.o(.ARM.exidx) refers to chopconf.o(i._ZN14TMC2208Stepper7diss2vsEb) for i._ZN14TMC2208Stepper7diss2vsEb
    chopconf.o(.ARM.exidx) refers to chopconf.o(i._ZN14TMC2208Stepper8CHOPCONFEv) for i._ZN14TMC2208Stepper8CHOPCONFEv
    chopconf.o(.ARM.exidx) refers to chopconf.o(i._ZN14TMC2208Stepper4toffEv) for i._ZN14TMC2208Stepper4toffEv
    chopconf.o(.ARM.exidx) refers to chopconf.o(i._ZN14TMC2208Stepper5hstrtEv) for i._ZN14TMC2208Stepper5hstrtEv
    chopconf.o(.ARM.exidx) refers to chopconf.o(i._ZN14TMC2208Stepper4hendEv) for i._ZN14TMC2208Stepper4hendEv
    chopconf.o(.ARM.exidx) refers to chopconf.o(i._ZN14TMC2208Stepper3tblEv) for i._ZN14TMC2208Stepper3tblEv
    chopconf.o(.ARM.exidx) refers to chopconf.o(i._ZN14TMC2208Stepper6vsenseEv) for i._ZN14TMC2208Stepper6vsenseEv
    chopconf.o(.ARM.exidx) refers to chopconf.o(i._ZN14TMC2208Stepper4mresEv) for i._ZN14TMC2208Stepper4mresEv
    chopconf.o(.ARM.exidx) refers to chopconf.o(i._ZN14TMC2208Stepper6intpolEv) for i._ZN14TMC2208Stepper6intpolEv
    chopconf.o(.ARM.exidx) refers to chopconf.o(i._ZN14TMC2208Stepper5dedgeEv) for i._ZN14TMC2208Stepper5dedgeEv
    chopconf.o(.ARM.exidx) refers to chopconf.o(i._ZN14TMC2208Stepper6diss2gEv) for i._ZN14TMC2208Stepper6diss2gEv
    chopconf.o(.ARM.exidx) refers to chopconf.o(i._ZN14TMC2208Stepper7diss2vsEv) for i._ZN14TMC2208Stepper7diss2vsEv
    coolconf.o(.ARM.exidx) refers to coolconf.o(i._ZN14TMC2209Stepper8COOLCONFEt) for i._ZN14TMC2209Stepper8COOLCONFEt
    coolconf.o(.ARM.exidx) refers to coolconf.o(i._ZN14TMC2209Stepper8COOLCONFEv) for i._ZN14TMC2209Stepper8COOLCONFEv
    coolconf.o(.ARM.exidx) refers to coolconf.o(i._ZN14TMC2209Stepper5seminEh) for i._ZN14TMC2209Stepper5seminEh
    coolconf.o(.ARM.exidx) refers to coolconf.o(i._ZN14TMC2209Stepper4seupEh) for i._ZN14TMC2209Stepper4seupEh
    coolconf.o(.ARM.exidx) refers to coolconf.o(i._ZN14TMC2209Stepper5semaxEh) for i._ZN14TMC2209Stepper5semaxEh
    coolconf.o(.ARM.exidx) refers to coolconf.o(i._ZN14TMC2209Stepper4sednEh) for i._ZN14TMC2209Stepper4sednEh
    coolconf.o(.ARM.exidx) refers to coolconf.o(i._ZN14TMC2209Stepper6seiminEb) for i._ZN14TMC2209Stepper6seiminEb
    coolconf.o(.ARM.exidx) refers to coolconf.o(i._ZN14TMC2209Stepper5seminEv) for i._ZN14TMC2209Stepper5seminEv
    coolconf.o(.ARM.exidx) refers to coolconf.o(i._ZN14TMC2209Stepper4seupEv) for i._ZN14TMC2209Stepper4seupEv
    coolconf.o(.ARM.exidx) refers to coolconf.o(i._ZN14TMC2209Stepper5semaxEv) for i._ZN14TMC2209Stepper5semaxEv
    coolconf.o(.ARM.exidx) refers to coolconf.o(i._ZN14TMC2209Stepper4sednEv) for i._ZN14TMC2209Stepper4sednEv
    coolconf.o(.ARM.exidx) refers to coolconf.o(i._ZN14TMC2209Stepper6seiminEv) for i._ZN14TMC2209Stepper6seiminEv
    drv_status.o(.ARM.exidx) refers to drv_status.o(i._ZN14TMC2208Stepper10DRV_STATUSEv) for i._ZN14TMC2208Stepper10DRV_STATUSEv
    drv_status.o(.ARM.exidx) refers to drv_status.o(i._ZN14TMC2208Stepper4otpwEv) for i._ZN14TMC2208Stepper4otpwEv
    drv_status.o(.ARM.exidx) refers to drv_status.o(i._ZN14TMC2208Stepper2otEv) for i._ZN14TMC2208Stepper2otEv
    drv_status.o(.ARM.exidx) refers to drv_status.o(i._ZN14TMC2208Stepper4s2gaEv) for i._ZN14TMC2208Stepper4s2gaEv
    drv_status.o(.ARM.exidx) refers to drv_status.o(i._ZN14TMC2208Stepper4s2gbEv) for i._ZN14TMC2208Stepper4s2gbEv
    drv_status.o(.ARM.exidx) refers to drv_status.o(i._ZN14TMC2208Stepper5s2vsaEv) for i._ZN14TMC2208Stepper5s2vsaEv
    drv_status.o(.ARM.exidx) refers to drv_status.o(i._ZN14TMC2208Stepper5s2vsbEv) for i._ZN14TMC2208Stepper5s2vsbEv
    drv_status.o(.ARM.exidx) refers to drv_status.o(i._ZN14TMC2208Stepper3olaEv) for i._ZN14TMC2208Stepper3olaEv
    drv_status.o(.ARM.exidx) refers to drv_status.o(i._ZN14TMC2208Stepper3olbEv) for i._ZN14TMC2208Stepper3olbEv
    drv_status.o(.ARM.exidx) refers to drv_status.o(i._ZN14TMC2208Stepper4t120Ev) for i._ZN14TMC2208Stepper4t120Ev
    drv_status.o(.ARM.exidx) refers to drv_status.o(i._ZN14TMC2208Stepper4t143Ev) for i._ZN14TMC2208Stepper4t143Ev
    drv_status.o(.ARM.exidx) refers to drv_status.o(i._ZN14TMC2208Stepper4t150Ev) for i._ZN14TMC2208Stepper4t150Ev
    drv_status.o(.ARM.exidx) refers to drv_status.o(i._ZN14TMC2208Stepper4t157Ev) for i._ZN14TMC2208Stepper4t157Ev
    drv_status.o(.ARM.exidx) refers to drv_status.o(i._ZN14TMC2208Stepper9cs_actualEv) for i._ZN14TMC2208Stepper9cs_actualEv
    drv_status.o(.ARM.exidx) refers to drv_status.o(i._ZN14TMC2208Stepper7stealthEv) for i._ZN14TMC2208Stepper7stealthEv
    drv_status.o(.ARM.exidx) refers to drv_status.o(i._ZN14TMC2208Stepper4ststEv) for i._ZN14TMC2208Stepper4ststEv
    gconf.o(i._ZN14TMC2208Stepper10index_otpwEv) refers to gconf.o(i._ZN14TMC2208Stepper5GCONFEv) for TMC2208Stepper::GCONF()
    gconf.o(i._ZN14TMC2208Stepper10index_stepEv) refers to gconf.o(i._ZN14TMC2208Stepper5GCONFEv) for TMC2208Stepper::GCONF()
    gconf.o(i._ZN14TMC2208Stepper11pdn_disableEv) refers to gconf.o(i._ZN14TMC2208Stepper5GCONFEv) for TMC2208Stepper::GCONF()
    gconf.o(i._ZN14TMC2208Stepper14I_scale_analogEv) refers to gconf.o(i._ZN14TMC2208Stepper5GCONFEv) for TMC2208Stepper::GCONF()
    gconf.o(i._ZN14TMC2208Stepper14en_spreadCycleEv) refers to gconf.o(i._ZN14TMC2208Stepper5GCONFEv) for TMC2208Stepper::GCONF()
    gconf.o(i._ZN14TMC2208Stepper14multistep_filtEv) refers to gconf.o(i._ZN14TMC2208Stepper5GCONFEv) for TMC2208Stepper::GCONF()
    gconf.o(i._ZN14TMC2208Stepper15internal_RsenseEv) refers to gconf.o(i._ZN14TMC2208Stepper5GCONFEv) for TMC2208Stepper::GCONF()
    gconf.o(i._ZN14TMC2208Stepper16mstep_reg_selectEv) refers to gconf.o(i._ZN14TMC2208Stepper5GCONFEv) for TMC2208Stepper::GCONF()
    gconf.o(i._ZN14TMC2208Stepper5shaftEv) refers to gconf.o(i._ZN14TMC2208Stepper5GCONFEv) for TMC2208Stepper::GCONF()
    gconf.o(.ARM.exidx) refers to gconf.o(i._ZN14TMC2208Stepper5GCONFEj) for i._ZN14TMC2208Stepper5GCONFEj
    gconf.o(.ARM.exidx) refers to gconf.o(i._ZN14TMC2208Stepper14I_scale_analogEb) for i._ZN14TMC2208Stepper14I_scale_analogEb
    gconf.o(.ARM.exidx) refers to gconf.o(i._ZN14TMC2208Stepper15internal_RsenseEb) for i._ZN14TMC2208Stepper15internal_RsenseEb
    gconf.o(.ARM.exidx) refers to gconf.o(i._ZN14TMC2208Stepper14en_spreadCycleEb) for i._ZN14TMC2208Stepper14en_spreadCycleEb
    gconf.o(.ARM.exidx) refers to gconf.o(i._ZN14TMC2208Stepper5shaftEb) for i._ZN14TMC2208Stepper5shaftEb
    gconf.o(.ARM.exidx) refers to gconf.o(i._ZN14TMC2208Stepper10index_otpwEb) for i._ZN14TMC2208Stepper10index_otpwEb
    gconf.o(.ARM.exidx) refers to gconf.o(i._ZN14TMC2208Stepper10index_stepEb) for i._ZN14TMC2208Stepper10index_stepEb
    gconf.o(.ARM.exidx) refers to gconf.o(i._ZN14TMC2208Stepper11pdn_disableEb) for i._ZN14TMC2208Stepper11pdn_disableEb
    gconf.o(.ARM.exidx) refers to gconf.o(i._ZN14TMC2208Stepper16mstep_reg_selectEb) for i._ZN14TMC2208Stepper16mstep_reg_selectEb
    gconf.o(.ARM.exidx) refers to gconf.o(i._ZN14TMC2208Stepper14multistep_filtEb) for i._ZN14TMC2208Stepper14multistep_filtEb
    gconf.o(.ARM.exidx) refers to gconf.o(i._ZN14TMC2208Stepper5GCONFEv) for i._ZN14TMC2208Stepper5GCONFEv
    gconf.o(.ARM.exidx) refers to gconf.o(i._ZN14TMC2208Stepper14I_scale_analogEv) for i._ZN14TMC2208Stepper14I_scale_analogEv
    gconf.o(.ARM.exidx) refers to gconf.o(i._ZN14TMC2208Stepper15internal_RsenseEv) for i._ZN14TMC2208Stepper15internal_RsenseEv
    gconf.o(.ARM.exidx) refers to gconf.o(i._ZN14TMC2208Stepper14en_spreadCycleEv) for i._ZN14TMC2208Stepper14en_spreadCycleEv
    gconf.o(.ARM.exidx) refers to gconf.o(i._ZN14TMC2208Stepper5shaftEv) for i._ZN14TMC2208Stepper5shaftEv
    gconf.o(.ARM.exidx) refers to gconf.o(i._ZN14TMC2208Stepper10index_otpwEv) for i._ZN14TMC2208Stepper10index_otpwEv
    gconf.o(.ARM.exidx) refers to gconf.o(i._ZN14TMC2208Stepper10index_stepEv) for i._ZN14TMC2208Stepper10index_stepEv
    gconf.o(.ARM.exidx) refers to gconf.o(i._ZN14TMC2208Stepper11pdn_disableEv) for i._ZN14TMC2208Stepper11pdn_disableEv
    gconf.o(.ARM.exidx) refers to gconf.o(i._ZN14TMC2208Stepper16mstep_reg_selectEv) for i._ZN14TMC2208Stepper16mstep_reg_selectEv
    gconf.o(.ARM.exidx) refers to gconf.o(i._ZN14TMC2208Stepper14multistep_filtEv) for i._ZN14TMC2208Stepper14multistep_filtEv
    ihold_irun.o(.ARM.exidx) refers to ihold_irun.o(i._ZN10TMCStepper10IHOLD_IRUNEj) for i._ZN10TMCStepper10IHOLD_IRUNEj
    ihold_irun.o(.ARM.exidx) refers to ihold_irun.o(i._ZN10TMCStepper10IHOLD_IRUNEv) for i._ZN10TMCStepper10IHOLD_IRUNEv
    ihold_irun.o(.ARM.exidx) refers to ihold_irun.o(i._ZN10TMCStepper5iholdEh) for i._ZN10TMCStepper5iholdEh
    ihold_irun.o(.ARM.exidx) refers to ihold_irun.o(i._ZN10TMCStepper4irunEh) for i._ZN10TMCStepper4irunEh
    ihold_irun.o(.ARM.exidx) refers to ihold_irun.o(i._ZN10TMCStepper10iholddelayEh) for i._ZN10TMCStepper10iholddelayEh
    ihold_irun.o(.ARM.exidx) refers to ihold_irun.o(i._ZN10TMCStepper5iholdEv) for i._ZN10TMCStepper5iholdEv
    ihold_irun.o(.ARM.exidx) refers to ihold_irun.o(i._ZN10TMCStepper4irunEv) for i._ZN10TMCStepper4irunEv
    ihold_irun.o(.ARM.exidx) refers to ihold_irun.o(i._ZN10TMCStepper10iholddelayEv) for i._ZN10TMCStepper10iholddelayEv
    pwmconf.o(i._ZN14TMC2208Stepper12pwm_autogradEv) refers to pwmconf.o(i._ZN14TMC2208Stepper7PWMCONFEv) for TMC2208Stepper::PWMCONF()
    pwmconf.o(i._ZN14TMC2208Stepper13pwm_autoscaleEv) refers to pwmconf.o(i._ZN14TMC2208Stepper7PWMCONFEv) for TMC2208Stepper::PWMCONF()
    pwmconf.o(i._ZN14TMC2208Stepper7pwm_limEv) refers to pwmconf.o(i._ZN14TMC2208Stepper7PWMCONFEv) for TMC2208Stepper::PWMCONF()
    pwmconf.o(i._ZN14TMC2208Stepper7pwm_ofsEv) refers to pwmconf.o(i._ZN14TMC2208Stepper7PWMCONFEv) for TMC2208Stepper::PWMCONF()
    pwmconf.o(i._ZN14TMC2208Stepper7pwm_regEv) refers to pwmconf.o(i._ZN14TMC2208Stepper7PWMCONFEv) for TMC2208Stepper::PWMCONF()
    pwmconf.o(i._ZN14TMC2208Stepper8pwm_freqEv) refers to pwmconf.o(i._ZN14TMC2208Stepper7PWMCONFEv) for TMC2208Stepper::PWMCONF()
    pwmconf.o(i._ZN14TMC2208Stepper8pwm_gradEv) refers to pwmconf.o(i._ZN14TMC2208Stepper7PWMCONFEv) for TMC2208Stepper::PWMCONF()
    pwmconf.o(i._ZN14TMC2208Stepper9freewheelEv) refers to pwmconf.o(i._ZN14TMC2208Stepper7PWMCONFEv) for TMC2208Stepper::PWMCONF()
    pwmconf.o(.ARM.exidx) refers to pwmconf.o(i._ZN14TMC2208Stepper7PWMCONFEj) for i._ZN14TMC2208Stepper7PWMCONFEj
    pwmconf.o(.ARM.exidx) refers to pwmconf.o(i._ZN14TMC2208Stepper7pwm_ofsEh) for i._ZN14TMC2208Stepper7pwm_ofsEh
    pwmconf.o(.ARM.exidx) refers to pwmconf.o(i._ZN14TMC2208Stepper8pwm_gradEh) for i._ZN14TMC2208Stepper8pwm_gradEh
    pwmconf.o(.ARM.exidx) refers to pwmconf.o(i._ZN14TMC2208Stepper8pwm_freqEh) for i._ZN14TMC2208Stepper8pwm_freqEh
    pwmconf.o(.ARM.exidx) refers to pwmconf.o(i._ZN14TMC2208Stepper13pwm_autoscaleEb) for i._ZN14TMC2208Stepper13pwm_autoscaleEb
    pwmconf.o(.ARM.exidx) refers to pwmconf.o(i._ZN14TMC2208Stepper12pwm_autogradEb) for i._ZN14TMC2208Stepper12pwm_autogradEb
    pwmconf.o(.ARM.exidx) refers to pwmconf.o(i._ZN14TMC2208Stepper9freewheelEh) for i._ZN14TMC2208Stepper9freewheelEh
    pwmconf.o(.ARM.exidx) refers to pwmconf.o(i._ZN14TMC2208Stepper7pwm_regEh) for i._ZN14TMC2208Stepper7pwm_regEh
    pwmconf.o(.ARM.exidx) refers to pwmconf.o(i._ZN14TMC2208Stepper7pwm_limEh) for i._ZN14TMC2208Stepper7pwm_limEh
    pwmconf.o(.ARM.exidx) refers to pwmconf.o(i._ZN14TMC2208Stepper7PWMCONFEv) for i._ZN14TMC2208Stepper7PWMCONFEv
    pwmconf.o(.ARM.exidx) refers to pwmconf.o(i._ZN14TMC2208Stepper7pwm_ofsEv) for i._ZN14TMC2208Stepper7pwm_ofsEv
    pwmconf.o(.ARM.exidx) refers to pwmconf.o(i._ZN14TMC2208Stepper8pwm_gradEv) for i._ZN14TMC2208Stepper8pwm_gradEv
    pwmconf.o(.ARM.exidx) refers to pwmconf.o(i._ZN14TMC2208Stepper8pwm_freqEv) for i._ZN14TMC2208Stepper8pwm_freqEv
    pwmconf.o(.ARM.exidx) refers to pwmconf.o(i._ZN14TMC2208Stepper13pwm_autoscaleEv) for i._ZN14TMC2208Stepper13pwm_autoscaleEv
    pwmconf.o(.ARM.exidx) refers to pwmconf.o(i._ZN14TMC2208Stepper12pwm_autogradEv) for i._ZN14TMC2208Stepper12pwm_autogradEv
    pwmconf.o(.ARM.exidx) refers to pwmconf.o(i._ZN14TMC2208Stepper9freewheelEv) for i._ZN14TMC2208Stepper9freewheelEv
    pwmconf.o(.ARM.exidx) refers to pwmconf.o(i._ZN14TMC2208Stepper7pwm_regEv) for i._ZN14TMC2208Stepper7pwm_regEv
    pwmconf.o(.ARM.exidx) refers to pwmconf.o(i._ZN14TMC2208Stepper7pwm_limEv) for i._ZN14TMC2208Stepper7pwm_limEv
    serial_switch.o(.ARM.exidx) refers to serial_switch.o(i._ZN7SSwitchC1Etth) for i._ZN7SSwitchC1Etth
    serial_switch.o(.ARM.exidx) refers to serial_switch.o(i._ZN7SSwitch6activeEv) for i._ZN7SSwitch6activeEv
    tmc2208stepper.o(i._ZN14TMC2208Stepper11beginSerialEj) refers to softwareserial.o(i._ZN14SoftwareSerial5beginEl) for SoftwareSerial::begin(long)
    tmc2208stepper.o(i._ZN14TMC2208Stepper11beginSerialEj) refers to softwareserial.o(i._ZN14SoftwareSerial13stopListeningEv) for SoftwareSerial::stopListening()
    tmc2208stepper.o(i._ZN14TMC2208Stepper12pwm_ofs_autoEv) refers to tmc2208stepper.o(i._ZN14TMC2208Stepper8PWM_AUTOEv) for TMC2208Stepper::PWM_AUTO()
    tmc2208stepper.o(i._ZN14TMC2208Stepper13_sendDatagramEPhht) refers to tmc2208stepper.o(i._ZN14TMC2208Stepper11serial_readEv) for TMC2208Stepper::serial_read()
    tmc2208stepper.o(i._ZN14TMC2208Stepper13_sendDatagramEPhht) refers to tmc2208stepper.o(i._ZN14TMC2208Stepper9availableEv) for TMC2208Stepper::available()
    tmc2208stepper.o(i._ZN14TMC2208Stepper13_sendDatagramEPhht) refers to tmc2208stepper.o(i._ZN14TMC2208Stepper12serial_writeEh) for TMC2208Stepper::serial_write(unsigned char)
    tmc2208stepper.o(i._ZN14TMC2208Stepper13_sendDatagramEPhht) refers to board_tim0.o(i.delay) for delay
    tmc2208stepper.o(i._ZN14TMC2208Stepper13_sendDatagramEPhht) refers to board_tim0.o(i.millis) for millis
    tmc2208stepper.o(i._ZN14TMC2208Stepper13pwm_grad_autoEv) refers to tmc2208stepper.o(i._ZN14TMC2208Stepper8PWM_AUTOEv) for TMC2208Stepper::PWM_AUTO()
    tmc2208stepper.o(i._ZN14TMC2208Stepper13pwm_scale_sumEv) refers to tmc2208stepper.o(i._ZN14TMC2208Stepper9PWM_SCALEEv) for TMC2208Stepper::PWM_SCALE()
    tmc2208stepper.o(i._ZN14TMC2208Stepper14pwm_scale_autoEv) refers to tmc2208stepper.o(i._ZN14TMC2208Stepper9PWM_SCALEEv) for TMC2208Stepper::PWM_SCALE()
    tmc2208stepper.o(i._ZN14TMC2208Stepper20preReadCommunicationEv) refers to softwareserial.o(i._ZN14SoftwareSerial6listenEv) for SoftwareSerial::listen()
    tmc2208stepper.o(i._ZN14TMC2208Stepper20preReadCommunicationEv) refers to serial_switch.o(i._ZN7SSwitch6activeEv) for SSwitch::active()
    tmc2208stepper.o(i._ZN14TMC2208Stepper21postReadCommunicationEv) refers to softwareserial.o(i._ZN14SoftwareSerial13stopListeningEv) for SoftwareSerial::stopListening()
    tmc2208stepper.o(i._ZN14TMC2208Stepper21preWriteCommunicationEv) refers to serial_switch.o(i._ZN7SSwitch6activeEv) for SSwitch::active()
    tmc2208stepper.o(i._ZN14TMC2208Stepper3dirEv) refers to tmc2208stepper.o(i._ZN14TMC2208Stepper4IOINEv) for TMC2208Stepper::IOIN()
    tmc2208stepper.o(i._ZN14TMC2208Stepper3ennEv) refers to tmc2208stepper.o(i._ZN14TMC2208Stepper4IOINEv) for TMC2208Stepper::IOIN()
    tmc2208stepper.o(i._ZN14TMC2208Stepper3ms1Ev) refers to tmc2208stepper.o(i._ZN14TMC2208Stepper4IOINEv) for TMC2208Stepper::IOIN()
    tmc2208stepper.o(i._ZN14TMC2208Stepper3ms2Ev) refers to tmc2208stepper.o(i._ZN14TMC2208Stepper4IOINEv) for TMC2208Stepper::IOIN()
    tmc2208stepper.o(i._ZN14TMC2208Stepper4diagEv) refers to tmc2208stepper.o(i._ZN14TMC2208Stepper4IOINEv) for TMC2208Stepper::IOIN()
    tmc2208stepper.o(i._ZN14TMC2208Stepper4pushEv) refers to gconf.o(i._ZN14TMC2208Stepper5GCONFEj) for TMC2208Stepper::GCONF(unsigned)
    tmc2208stepper.o(i._ZN14TMC2208Stepper4pushEv) refers to ihold_irun.o(i._ZN10TMCStepper10IHOLD_IRUNEj) for TMCStepper::IHOLD_IRUN(unsigned)
    tmc2208stepper.o(i._ZN14TMC2208Stepper4pushEv) refers to tmc2208stepper.o(i._ZN14TMC2208Stepper9SLAVECONFEt) for TMC2208Stepper::SLAVECONF(unsigned short)
    tmc2208stepper.o(i._ZN14TMC2208Stepper4pushEv) refers to tmcstepper.o(i._ZN10TMCStepper10TPOWERDOWNEh) for TMCStepper::TPOWERDOWN(unsigned char)
    tmc2208stepper.o(i._ZN14TMC2208Stepper4pushEv) refers to tmcstepper.o(i._ZN10TMCStepper8TPWMTHRSEj) for TMCStepper::TPWMTHRS(unsigned)
    tmc2208stepper.o(i._ZN14TMC2208Stepper4pushEv) refers to tmc2208stepper.o(i._ZN14TMC2208Stepper7VACTUALEj) for TMC2208Stepper::VACTUAL(unsigned)
    tmc2208stepper.o(i._ZN14TMC2208Stepper4pushEv) refers to chopconf.o(i._ZN14TMC2208Stepper8CHOPCONFEj) for TMC2208Stepper::CHOPCONF(unsigned)
    tmc2208stepper.o(i._ZN14TMC2208Stepper4pushEv) refers to pwmconf.o(i._ZN14TMC2208Stepper7PWMCONFEj) for TMC2208Stepper::PWMCONF(unsigned)
    tmc2208stepper.o(i._ZN14TMC2208Stepper4readEh) refers to tmc2208stepper.o(i._ZN14TMC2208Stepper7calcCRCEPhh) for TMC2208Stepper::calcCRC(unsigned char*, unsigned char)
    tmc2208stepper.o(i._ZN14TMC2208Stepper4readEh) refers to tmc2208stepper.o(i._ZN14TMC2208Stepper20preReadCommunicationEv) for TMC2208Stepper::preReadCommunication()
    tmc2208stepper.o(i._ZN14TMC2208Stepper4readEh) refers to tmc2208stepper.o(i._ZN14TMC2208Stepper13_sendDatagramEPhht) for TMC2208Stepper::_sendDatagram(unsigned char*, unsigned char, unsigned short)
    tmc2208stepper.o(i._ZN14TMC2208Stepper4readEh) refers to tmc2208stepper.o(i._ZN14TMC2208Stepper21postReadCommunicationEv) for TMC2208Stepper::postReadCommunication()
    tmc2208stepper.o(i._ZN14TMC2208Stepper4readEh) refers to board_tim0.o(i.delay) for delay
    tmc2208stepper.o(i._ZN14TMC2208Stepper4stepEv) refers to tmc2208stepper.o(i._ZN14TMC2208Stepper4IOINEv) for TMC2208Stepper::IOIN()
    tmc2208stepper.o(i._ZN14TMC2208Stepper5beginEv) refers to tmc2208stepper.o(i._ZN14TMC2208Stepper11beginSerialEj) for TMC2208Stepper::beginSerial(unsigned)
    tmc2208stepper.o(i._ZN14TMC2208Stepper5beginEv) refers to gconf.o(i._ZN14TMC2208Stepper11pdn_disableEb) for TMC2208Stepper::pdn_disable(bool)
    tmc2208stepper.o(i._ZN14TMC2208Stepper5beginEv) refers to gconf.o(i._ZN14TMC2208Stepper16mstep_reg_selectEb) for TMC2208Stepper::mstep_reg_select(bool)
    tmc2208stepper.o(i._ZN14TMC2208Stepper5sel_aEv) refers to tmc2208stepper.o(i._ZN14TMC2208Stepper4IOINEv) for TMC2208Stepper::IOIN()
    tmc2208stepper.o(i._ZN14TMC2208Stepper5writeEhj) refers to tmc2208stepper.o(i._ZN14TMC2208Stepper7calcCRCEPhh) for TMC2208Stepper::calcCRC(unsigned char*, unsigned char)
    tmc2208stepper.o(i._ZN14TMC2208Stepper5writeEhj) refers to tmc2208stepper.o(i._ZN14TMC2208Stepper21preWriteCommunicationEv) for TMC2208Stepper::preWriteCommunication()
    tmc2208stepper.o(i._ZN14TMC2208Stepper5writeEhj) refers to tmc2208stepper.o(i._ZN14TMC2208Stepper12serial_writeEh) for TMC2208Stepper::serial_write(unsigned char)
    tmc2208stepper.o(i._ZN14TMC2208Stepper5writeEhj) refers to tmc2208stepper.o(i._ZN14TMC2208Stepper22postWriteCommunicationEv) for TMC2208Stepper::postWriteCommunication()
    tmc2208stepper.o(i._ZN14TMC2208Stepper5writeEhj) refers to board_tim0.o(i.delay) for delay
    tmc2208stepper.o(i._ZN14TMC2208Stepper6ottrimEv) refers to tmc2208stepper.o(i._ZN14TMC2208Stepper12FACTORY_CONFEv) for TMC2208Stepper::FACTORY_CONF()
    tmc2208stepper.o(i._ZN14TMC2208Stepper7versionEv) refers to tmc2208stepper.o(i._ZN14TMC2208Stepper4IOINEv) for TMC2208Stepper::IOIN()
    tmc2208stepper.o(i._ZN14TMC2208Stepper8fclktrimEv) refers to tmc2208stepper.o(i._ZN14TMC2208Stepper12FACTORY_CONFEv) for TMC2208Stepper::FACTORY_CONF()
    tmc2208stepper.o(i._ZN14TMC2208Stepper8pdn_uartEv) refers to tmc2208stepper.o(i._ZN14TMC2208Stepper4IOINEv) for TMC2208Stepper::IOIN()
    tmc2208stepper.o(i._ZN14TMC2208Stepper9isEnabledEv) refers to tmc2208stepper.o(i._ZN14TMC2208Stepper3ennEv) for TMC2208Stepper::enn()
    tmc2208stepper.o(i._ZN14TMC2208Stepper9isEnabledEv) refers to chopconf.o(i._ZN14TMC2208Stepper4toffEv) for TMC2208Stepper::toff()
    tmc2208stepper.o(i._ZN14TMC2208StepperC1EP6Streamfh) refers to tmc2208stepper.o(i._ZN10TMCStepperC2Ef) for TMCStepper::TMCStepper__sub_object(float)
    tmc2208stepper.o(i._ZN14TMC2208StepperC1EP6Streamfh) refers to tmc2208stepper.o(i._ZN14TMC2208Stepper8defaultsEv) for TMC2208Stepper::defaults()
    tmc2208stepper.o(i._ZN14TMC2208StepperC1EP6Streamfh) refers to chopconf.o(.constdata__ZTV14TMC2208Stepper) for vtable for TMC2208Stepper
    tmc2208stepper.o(i._ZN14TMC2208StepperC1EP6Streamfh) refers to tmc2208stepper.o(.constdata) for <Data6>
    tmc2208stepper.o(i._ZN14TMC2208StepperC1EP6Streamfhtt) refers to tmc2208stepper.o(i._ZN14TMC2208StepperC1EP6Streamfh) for TMC2208Stepper::TMC2208Stepper(Stream*, float, unsigned char)
    tmc2208stepper.o(i._ZN14TMC2208StepperC1EP6Streamfhtt) refers to new.o(i._Znwj) for operator new(unsigned)
    tmc2208stepper.o(i._ZN14TMC2208StepperC1EP6Streamfhtt) refers to serial_switch.o(i._ZN7SSwitchC1Etth) for SSwitch::SSwitch(unsigned short, unsigned short, unsigned char)
    tmc2208stepper.o(i._ZN14TMC2208StepperC1Ettfh) refers to tmc2208stepper.o(i._ZN10TMCStepperC2Ef) for TMCStepper::TMCStepper__sub_object(float)
    tmc2208stepper.o(i._ZN14TMC2208StepperC1Ettfh) refers to new.o(i._Znwj) for operator new(unsigned)
    tmc2208stepper.o(i._ZN14TMC2208StepperC1Ettfh) refers to softwareserial.o(i._ZN14SoftwareSerialC1Ettb) for SoftwareSerial::SoftwareSerial(unsigned short, unsigned short, bool)
    tmc2208stepper.o(i._ZN14TMC2208StepperC1Ettfh) refers to tmc2208stepper.o(i._ZN14TMC2208Stepper8defaultsEv) for TMC2208Stepper::defaults()
    tmc2208stepper.o(i._ZN14TMC2208StepperC1Ettfh) refers to chopconf.o(.constdata__ZTV14TMC2208Stepper) for vtable for TMC2208Stepper
    tmc2208stepper.o(i._ZN14TMC2208StepperC1Ettfh) refers to tmc2208stepper.o(.constdata) for <Data12>
    tmc2208stepper.o(.ARM.exidx) refers to tmc2208stepper.o(i._ZN14TMC2208Stepper8defaultsEv) for i._ZN14TMC2208Stepper8defaultsEv
    tmc2208stepper.o(.ARM.exidx) refers to tmc2208stepper.o(i._ZN14TMC2208StepperC1EP6Streamfh) for i._ZN14TMC2208StepperC1EP6Streamfh
    tmc2208stepper.o(.ARM.exidx) refers to tmc2208stepper.o(i._ZN14TMC2208StepperC1EP6Streamfhtt) for i._ZN14TMC2208StepperC1EP6Streamfhtt
    tmc2208stepper.o(.ARM.exidx) refers to tmc2208stepper.o(i._ZN14TMC2208Stepper7VACTUALEj) for i._ZN14TMC2208Stepper7VACTUALEj
    tmc2208stepper.o(.ARM.exidx) refers to tmc2208stepper.o(i._ZN14TMC2208Stepper9SLAVECONFEt) for i._ZN14TMC2208Stepper9SLAVECONFEt
    tmc2208stepper.o(.ARM.exidx) refers to tmc2208stepper.o(i._ZN14TMC2208Stepper4pushEv) for i._ZN14TMC2208Stepper4pushEv
    tmc2208stepper.o(.ARM.exidx) refers to tmc2208stepper.o(i._ZN14TMC2208Stepper11beginSerialEj) for i._ZN14TMC2208Stepper11beginSerialEj
    tmc2208stepper.o(.ARM.exidx) refers to tmc2208stepper.o(i._ZN14TMC2208Stepper5beginEv) for i._ZN14TMC2208Stepper5beginEv
    tmc2208stepper.o(.ARM.exidx) refers to tmc2208stepper.o(i._ZN14TMC2208Stepper4IOINEv) for i._ZN14TMC2208Stepper4IOINEv
    tmc2208stepper.o(.ARM.exidx) refers to tmc2208stepper.o(i._ZN14TMC2208Stepper3ennEv) for i._ZN14TMC2208Stepper3ennEv
    tmc2208stepper.o(.ARM.exidx) refers to tmc2208stepper.o(i._ZN14TMC2208Stepper9isEnabledEv) for i._ZN14TMC2208Stepper9isEnabledEv
    tmc2208stepper.o(.ARM.exidx) refers to tmc2208stepper.o(i._ZN14TMC2208Stepper5IFCNTEv) for i._ZN14TMC2208Stepper5IFCNTEv
    tmc2208stepper.o(.ARM.exidx) refers to tmc2208stepper.o(i._ZN14TMC2208Stepper9SLAVECONFEv) for i._ZN14TMC2208Stepper9SLAVECONFEv
    tmc2208stepper.o(.ARM.exidx) refers to tmc2208stepper.o(i._ZN14TMC2208Stepper9senddelayEh) for i._ZN14TMC2208Stepper9senddelayEh
    tmc2208stepper.o(.ARM.exidx) refers to tmc2208stepper.o(i._ZN14TMC2208Stepper9senddelayEv) for i._ZN14TMC2208Stepper9senddelayEv
    tmc2208stepper.o(.ARM.exidx) refers to tmc2208stepper.o(i._ZN14TMC2208Stepper8OTP_PROGEt) for i._ZN14TMC2208Stepper8OTP_PROGEt
    tmc2208stepper.o(.ARM.exidx) refers to tmc2208stepper.o(i._ZN14TMC2208Stepper8OTP_READEv) for i._ZN14TMC2208Stepper8OTP_READEv
    tmc2208stepper.o(.ARM.exidx) refers to tmc2208stepper.o(i._ZN14TMC2208Stepper3ms1Ev) for i._ZN14TMC2208Stepper3ms1Ev
    tmc2208stepper.o(.ARM.exidx) refers to tmc2208stepper.o(i._ZN14TMC2208Stepper3ms2Ev) for i._ZN14TMC2208Stepper3ms2Ev
    tmc2208stepper.o(.ARM.exidx) refers to tmc2208stepper.o(i._ZN14TMC2208Stepper4diagEv) for i._ZN14TMC2208Stepper4diagEv
    tmc2208stepper.o(.ARM.exidx) refers to tmc2208stepper.o(i._ZN14TMC2208Stepper8pdn_uartEv) for i._ZN14TMC2208Stepper8pdn_uartEv
    tmc2208stepper.o(.ARM.exidx) refers to tmc2208stepper.o(i._ZN14TMC2208Stepper4stepEv) for i._ZN14TMC2208Stepper4stepEv
    tmc2208stepper.o(.ARM.exidx) refers to tmc2208stepper.o(i._ZN14TMC2208Stepper5sel_aEv) for i._ZN14TMC2208Stepper5sel_aEv
    tmc2208stepper.o(.ARM.exidx) refers to tmc2208stepper.o(i._ZN14TMC2208Stepper3dirEv) for i._ZN14TMC2208Stepper3dirEv
    tmc2208stepper.o(.ARM.exidx) refers to tmc2208stepper.o(i._ZN14TMC2208Stepper7versionEv) for i._ZN14TMC2208Stepper7versionEv
    tmc2208stepper.o(.ARM.exidx) refers to tmc2208stepper.o(i._ZN14TMC2208Stepper12FACTORY_CONFEt) for i._ZN14TMC2208Stepper12FACTORY_CONFEt
    tmc2208stepper.o(.ARM.exidx) refers to tmc2208stepper.o(i._ZN14TMC2208Stepper12FACTORY_CONFEv) for i._ZN14TMC2208Stepper12FACTORY_CONFEv
    tmc2208stepper.o(.ARM.exidx) refers to tmc2208stepper.o(i._ZN14TMC2208Stepper8fclktrimEh) for i._ZN14TMC2208Stepper8fclktrimEh
    tmc2208stepper.o(.ARM.exidx) refers to tmc2208stepper.o(i._ZN14TMC2208Stepper6ottrimEh) for i._ZN14TMC2208Stepper6ottrimEh
    tmc2208stepper.o(.ARM.exidx) refers to tmc2208stepper.o(i._ZN14TMC2208Stepper8fclktrimEv) for i._ZN14TMC2208Stepper8fclktrimEv
    tmc2208stepper.o(.ARM.exidx) refers to tmc2208stepper.o(i._ZN14TMC2208Stepper6ottrimEv) for i._ZN14TMC2208Stepper6ottrimEv
    tmc2208stepper.o(.ARM.exidx) refers to tmc2208stepper.o(i._ZN14TMC2208Stepper7VACTUALEv) for i._ZN14TMC2208Stepper7VACTUALEv
    tmc2208stepper.o(.ARM.exidx) refers to tmc2208stepper.o(i._ZN14TMC2208Stepper9PWM_SCALEEv) for i._ZN14TMC2208Stepper9PWM_SCALEEv
    tmc2208stepper.o(.ARM.exidx) refers to tmc2208stepper.o(i._ZN14TMC2208Stepper13pwm_scale_sumEv) for i._ZN14TMC2208Stepper13pwm_scale_sumEv
    tmc2208stepper.o(.ARM.exidx) refers to tmc2208stepper.o(i._ZN14TMC2208Stepper14pwm_scale_autoEv) for i._ZN14TMC2208Stepper14pwm_scale_autoEv
    tmc2208stepper.o(.ARM.exidx) refers to tmc2208stepper.o(i._ZN14TMC2208Stepper8PWM_AUTOEv) for i._ZN14TMC2208Stepper8PWM_AUTOEv
    tmc2208stepper.o(.ARM.exidx) refers to tmc2208stepper.o(i._ZN14TMC2208Stepper12pwm_ofs_autoEv) for i._ZN14TMC2208Stepper12pwm_ofs_autoEv
    tmc2208stepper.o(.ARM.exidx) refers to tmc2208stepper.o(i._ZN14TMC2208Stepper13pwm_grad_autoEv) for i._ZN14TMC2208Stepper13pwm_grad_autoEv
    tmc2208stepper.o(.ARM.exidx) refers to tmc2208stepper.o(i._ZN14TMC2208StepperC1Ettfh) for i._ZN14TMC2208StepperC1Ettfh
    tmc2208stepper.o(.ARM.exidx) refers to tmc2208stepper.o(i._ZN14TMC2208Stepper9availableEv) for i._ZN14TMC2208Stepper9availableEv
    tmc2208stepper.o(.ARM.exidx) refers to tmc2208stepper.o(i._ZN14TMC2208Stepper21preWriteCommunicationEv) for i._ZN14TMC2208Stepper21preWriteCommunicationEv
    tmc2208stepper.o(.ARM.exidx) refers to tmc2208stepper.o(i._ZN14TMC2208Stepper20preReadCommunicationEv) for i._ZN14TMC2208Stepper20preReadCommunicationEv
    tmc2208stepper.o(.ARM.exidx) refers to tmc2208stepper.o(i._ZN14TMC2208Stepper11serial_readEv) for i._ZN14TMC2208Stepper11serial_readEv
    tmc2208stepper.o(.ARM.exidx) refers to tmc2208stepper.o(i._ZN14TMC2208Stepper12serial_writeEh) for i._ZN14TMC2208Stepper12serial_writeEh
    tmc2208stepper.o(.ARM.exidx) refers to tmc2208stepper.o(i._ZN14TMC2208Stepper22postWriteCommunicationEv) for i._ZN14TMC2208Stepper22postWriteCommunicationEv
    tmc2208stepper.o(.ARM.exidx) refers to tmc2208stepper.o(i._ZN14TMC2208Stepper21postReadCommunicationEv) for i._ZN14TMC2208Stepper21postReadCommunicationEv
    tmc2208stepper.o(.ARM.exidx) refers to tmc2208stepper.o(i._ZN14TMC2208Stepper7calcCRCEPhh) for i._ZN14TMC2208Stepper7calcCRCEPhh
    tmc2208stepper.o(.ARM.exidx) refers to tmc2208stepper.o(i._ZN14TMC2208Stepper5writeEhj) for i._ZN14TMC2208Stepper5writeEhj
    tmc2208stepper.o(.ARM.exidx) refers to tmc2208stepper.o(i._ZN14TMC2208Stepper13_sendDatagramEPhht) for i._ZN14TMC2208Stepper13_sendDatagramEPhht
    tmc2208stepper.o(.ARM.exidx) refers to tmc2208stepper.o(i._ZN14TMC2208Stepper4readEh) for i._ZN14TMC2208Stepper4readEh
    tmc2209stepper.o(i._ZN14TMC2209Stepper3dirEv) refers to tmc2209stepper.o(i._ZN14TMC2209Stepper4IOINEv) for TMC2209Stepper::IOIN()
    tmc2209stepper.o(i._ZN14TMC2209Stepper3ennEv) refers to tmc2209stepper.o(i._ZN14TMC2209Stepper4IOINEv) for TMC2209Stepper::IOIN()
    tmc2209stepper.o(i._ZN14TMC2209Stepper3ms1Ev) refers to tmc2209stepper.o(i._ZN14TMC2209Stepper4IOINEv) for TMC2209Stepper::IOIN()
    tmc2209stepper.o(i._ZN14TMC2209Stepper3ms2Ev) refers to tmc2209stepper.o(i._ZN14TMC2209Stepper4IOINEv) for TMC2209Stepper::IOIN()
    tmc2209stepper.o(i._ZN14TMC2209Stepper4diagEv) refers to tmc2209stepper.o(i._ZN14TMC2209Stepper4IOINEv) for TMC2209Stepper::IOIN()
    tmc2209stepper.o(i._ZN14TMC2209Stepper4pushEv) refers to ihold_irun.o(i._ZN10TMCStepper10IHOLD_IRUNEj) for TMCStepper::IHOLD_IRUN(unsigned)
    tmc2209stepper.o(i._ZN14TMC2209Stepper4pushEv) refers to tmcstepper.o(i._ZN10TMCStepper10TPOWERDOWNEh) for TMCStepper::TPOWERDOWN(unsigned char)
    tmc2209stepper.o(i._ZN14TMC2209Stepper4pushEv) refers to tmcstepper.o(i._ZN10TMCStepper8TPWMTHRSEj) for TMCStepper::TPWMTHRS(unsigned)
    tmc2209stepper.o(i._ZN14TMC2209Stepper4pushEv) refers to gconf.o(i._ZN14TMC2208Stepper5GCONFEj) for TMC2208Stepper::GCONF(unsigned)
    tmc2209stepper.o(i._ZN14TMC2209Stepper4pushEv) refers to tmc2208stepper.o(i._ZN14TMC2208Stepper9SLAVECONFEt) for TMC2208Stepper::SLAVECONF(unsigned short)
    tmc2209stepper.o(i._ZN14TMC2209Stepper4pushEv) refers to tmc2208stepper.o(i._ZN14TMC2208Stepper7VACTUALEj) for TMC2208Stepper::VACTUAL(unsigned)
    tmc2209stepper.o(i._ZN14TMC2209Stepper4pushEv) refers to chopconf.o(i._ZN14TMC2208Stepper8CHOPCONFEj) for TMC2208Stepper::CHOPCONF(unsigned)
    tmc2209stepper.o(i._ZN14TMC2209Stepper4pushEv) refers to pwmconf.o(i._ZN14TMC2208Stepper7PWMCONFEj) for TMC2208Stepper::PWMCONF(unsigned)
    tmc2209stepper.o(i._ZN14TMC2209Stepper4pushEv) refers to tmc2209stepper.o(i._ZN14TMC2209Stepper9TCOOLTHRSEj) for TMC2209Stepper::TCOOLTHRS(unsigned)
    tmc2209stepper.o(i._ZN14TMC2209Stepper4stepEv) refers to tmc2209stepper.o(i._ZN14TMC2209Stepper4IOINEv) for TMC2209Stepper::IOIN()
    tmc2209stepper.o(i._ZN14TMC2209Stepper7versionEv) refers to tmc2209stepper.o(i._ZN14TMC2209Stepper4IOINEv) for TMC2209Stepper::IOIN()
    tmc2209stepper.o(i._ZN14TMC2209Stepper8pdn_uartEv) refers to tmc2209stepper.o(i._ZN14TMC2209Stepper4IOINEv) for TMC2209Stepper::IOIN()
    tmc2209stepper.o(i._ZN14TMC2209Stepper9spread_enEv) refers to tmc2209stepper.o(i._ZN14TMC2209Stepper4IOINEv) for TMC2209Stepper::IOIN()
    tmc2209stepper.o(.ARM.exidx) refers to tmc2209stepper.o(i._ZN14TMC2209Stepper9TCOOLTHRSEj) for i._ZN14TMC2209Stepper9TCOOLTHRSEj
    tmc2209stepper.o(.ARM.exidx) refers to tmc2209stepper.o(i._ZN14TMC2209Stepper4pushEv) for i._ZN14TMC2209Stepper4pushEv
    tmc2209stepper.o(.ARM.exidx) refers to tmc2209stepper.o(i._ZN14TMC2209Stepper4IOINEv) for i._ZN14TMC2209Stepper4IOINEv
    tmc2209stepper.o(.ARM.exidx) refers to tmc2209stepper.o(i._ZN14TMC2209Stepper3ennEv) for i._ZN14TMC2209Stepper3ennEv
    tmc2209stepper.o(.ARM.exidx) refers to tmc2209stepper.o(i._ZN14TMC2209Stepper3ms1Ev) for i._ZN14TMC2209Stepper3ms1Ev
    tmc2209stepper.o(.ARM.exidx) refers to tmc2209stepper.o(i._ZN14TMC2209Stepper3ms2Ev) for i._ZN14TMC2209Stepper3ms2Ev
    tmc2209stepper.o(.ARM.exidx) refers to tmc2209stepper.o(i._ZN14TMC2209Stepper4diagEv) for i._ZN14TMC2209Stepper4diagEv
    tmc2209stepper.o(.ARM.exidx) refers to tmc2209stepper.o(i._ZN14TMC2209Stepper8pdn_uartEv) for i._ZN14TMC2209Stepper8pdn_uartEv
    tmc2209stepper.o(.ARM.exidx) refers to tmc2209stepper.o(i._ZN14TMC2209Stepper4stepEv) for i._ZN14TMC2209Stepper4stepEv
    tmc2209stepper.o(.ARM.exidx) refers to tmc2209stepper.o(i._ZN14TMC2209Stepper9spread_enEv) for i._ZN14TMC2209Stepper9spread_enEv
    tmc2209stepper.o(.ARM.exidx) refers to tmc2209stepper.o(i._ZN14TMC2209Stepper3dirEv) for i._ZN14TMC2209Stepper3dirEv
    tmc2209stepper.o(.ARM.exidx) refers to tmc2209stepper.o(i._ZN14TMC2209Stepper7versionEv) for i._ZN14TMC2209Stepper7versionEv
    tmc2209stepper.o(.ARM.exidx) refers to tmc2209stepper.o(i._ZN14TMC2209Stepper9TCOOLTHRSEv) for i._ZN14TMC2209Stepper9TCOOLTHRSEv
    tmc2209stepper.o(.ARM.exidx) refers to tmc2209stepper.o(i._ZN14TMC2209Stepper6SGTHRSEh) for i._ZN14TMC2209Stepper6SGTHRSEh
    tmc2209stepper.o(.ARM.exidx) refers to tmc2209stepper.o(i._ZN14TMC2209Stepper6SGTHRSEv) for i._ZN14TMC2209Stepper6SGTHRSEv
    tmc2209stepper.o(.ARM.exidx) refers to tmc2209stepper.o(i._ZN14TMC2209Stepper9SG_RESULTEv) for i._ZN14TMC2209Stepper9SG_RESULTEv
    tmcstepper.o(i._ZN10TMCStepper11rms_currentEt) refers to f2d.o(.text) for __aeabi_f2d
    tmcstepper.o(i._ZN10TMCStepper11rms_currentEt) refers to dadd.o(.text) for __aeabi_dadd
    tmcstepper.o(i._ZN10TMCStepper11rms_currentEt) refers to dfltui.o(.text) for __aeabi_ui2d
    tmcstepper.o(i._ZN10TMCStepper11rms_currentEt) refers to dmul.o(.text) for __aeabi_dmul
    tmcstepper.o(i._ZN10TMCStepper11rms_currentEt) refers to ddiv.o(.text) for __aeabi_ddiv
    tmcstepper.o(i._ZN10TMCStepper11rms_currentEt) refers to dfixui.o(.text) for __aeabi_d2uiz
    tmcstepper.o(i._ZN10TMCStepper11rms_currentEt) refers to ihold_irun.o(i._ZN10TMCStepper4irunEh) for TMCStepper::irun(unsigned char)
    tmcstepper.o(i._ZN10TMCStepper11rms_currentEt) refers to ihold_irun.o(i._ZN10TMCStepper5iholdEh) for TMCStepper::ihold(unsigned char)
    tmcstepper.o(i._ZN10TMCStepper11rms_currentEtf) refers to tmcstepper.o(i._ZN10TMCStepper11rms_currentEt) for TMCStepper::rms_current(unsigned short)
    tmcstepper.o(i._ZN10TMCStepper11rms_currentEv) refers to ihold_irun.o(i._ZN10TMCStepper4irunEv) for TMCStepper::irun()
    tmcstepper.o(i._ZN10TMCStepper11rms_currentEv) refers to tmcstepper.o(i._ZN10TMCStepper6cs2rmsEh) for TMCStepper::cs2rms(unsigned char)
    tmcstepper.o(i._ZN10TMCStepper5cur_aEv) refers to tmcstepper.o(i._ZN10TMCStepper8MSCURACTEv) for TMCStepper::MSCURACT()
    tmcstepper.o(i._ZN10TMCStepper5cur_bEv) refers to tmcstepper.o(i._ZN10TMCStepper8MSCURACTEv) for TMCStepper::MSCURACT()
    tmcstepper.o(i._ZN10TMCStepper5resetEv) refers to tmcstepper.o(i._ZN10TMCStepper5GSTATEv) for TMCStepper::GSTAT()
    tmcstepper.o(i._ZN10TMCStepper5uv_cpEv) refers to tmcstepper.o(i._ZN10TMCStepper5GSTATEv) for TMCStepper::GSTAT()
    tmcstepper.o(i._ZN10TMCStepper6cs2rmsEh) refers to f2d.o(.text) for __aeabi_f2d
    tmcstepper.o(i._ZN10TMCStepper6cs2rmsEh) refers to dadd.o(.text) for __aeabi_dadd
    tmcstepper.o(i._ZN10TMCStepper6cs2rmsEh) refers to ddiv.o(.text) for __aeabi_ddiv
    tmcstepper.o(i._ZN10TMCStepper6cs2rmsEh) refers to dmul.o(.text) for __aeabi_dmul
    tmcstepper.o(i._ZN10TMCStepper6cs2rmsEh) refers to dfixui.o(.text) for __aeabi_d2uiz
    tmcstepper.o(i._ZN10TMCStepper7drv_errEv) refers to tmcstepper.o(i._ZN10TMCStepper5GSTATEv) for TMCStepper::GSTAT()
    tmcstepper.o(.ARM.exidx) refers to tmcstepper.o(i._ZN10TMCStepper6cs2rmsEh) for i._ZN10TMCStepper6cs2rmsEh
    tmcstepper.o(.ARM.exidx) refers to tmcstepper.o(i._ZN10TMCStepper11rms_currentEt) for i._ZN10TMCStepper11rms_currentEt
    tmcstepper.o(.ARM.exidx) refers to tmcstepper.o(i._ZN10TMCStepper11rms_currentEtf) for i._ZN10TMCStepper11rms_currentEtf
    tmcstepper.o(.ARM.exidx) refers to tmcstepper.o(i._ZN10TMCStepper11rms_currentEv) for i._ZN10TMCStepper11rms_currentEv
    tmcstepper.o(.ARM.exidx) refers to tmcstepper.o(i._ZN10TMCStepper15test_connectionEv) for i._ZN10TMCStepper15test_connectionEv
    tmcstepper.o(.ARM.exidx) refers to tmcstepper.o(i._ZN10TMCStepper10microstepsEt) for i._ZN10TMCStepper10microstepsEt
    tmcstepper.o(.ARM.exidx) refers to tmcstepper.o(i._ZN10TMCStepper10microstepsEv) for i._ZN10TMCStepper10microstepsEv
    tmcstepper.o(.ARM.exidx) refers to tmcstepper.o(i._ZN10TMCStepper10blank_timeEh) for i._ZN10TMCStepper10blank_timeEh
    tmcstepper.o(.ARM.exidx) refers to tmcstepper.o(i._ZN10TMCStepper10blank_timeEv) for i._ZN10TMCStepper10blank_timeEv
    tmcstepper.o(.ARM.exidx) refers to tmcstepper.o(i._ZN10TMCStepper14hysteresis_endEa) for i._ZN10TMCStepper14hysteresis_endEa
    tmcstepper.o(.ARM.exidx) refers to tmcstepper.o(i._ZN10TMCStepper14hysteresis_endEv) for i._ZN10TMCStepper14hysteresis_endEv
    tmcstepper.o(.ARM.exidx) refers to tmcstepper.o(i._ZN10TMCStepper16hysteresis_startEh) for i._ZN10TMCStepper16hysteresis_startEh
    tmcstepper.o(.ARM.exidx) refers to tmcstepper.o(i._ZN10TMCStepper16hysteresis_startEv) for i._ZN10TMCStepper16hysteresis_startEv
    tmcstepper.o(.ARM.exidx) refers to tmcstepper.o(i._ZN10TMCStepper5GSTATEh) for i._ZN10TMCStepper5GSTATEh
    tmcstepper.o(.ARM.exidx) refers to tmcstepper.o(i._ZN10TMCStepper5GSTATEv) for i._ZN10TMCStepper5GSTATEv
    tmcstepper.o(.ARM.exidx) refers to tmcstepper.o(i._ZN10TMCStepper5resetEv) for i._ZN10TMCStepper5resetEv
    tmcstepper.o(.ARM.exidx) refers to tmcstepper.o(i._ZN10TMCStepper7drv_errEv) for i._ZN10TMCStepper7drv_errEv
    tmcstepper.o(.ARM.exidx) refers to tmcstepper.o(i._ZN10TMCStepper5uv_cpEv) for i._ZN10TMCStepper5uv_cpEv
    tmcstepper.o(.ARM.exidx) refers to tmcstepper.o(i._ZN10TMCStepper10TPOWERDOWNEv) for i._ZN10TMCStepper10TPOWERDOWNEv
    tmcstepper.o(.ARM.exidx) refers to tmcstepper.o(i._ZN10TMCStepper10TPOWERDOWNEh) for i._ZN10TMCStepper10TPOWERDOWNEh
    tmcstepper.o(.ARM.exidx) refers to tmcstepper.o(i._ZN10TMCStepper5TSTEPEv) for i._ZN10TMCStepper5TSTEPEv
    tmcstepper.o(.ARM.exidx) refers to tmcstepper.o(i._ZN10TMCStepper8TPWMTHRSEv) for i._ZN10TMCStepper8TPWMTHRSEv
    tmcstepper.o(.ARM.exidx) refers to tmcstepper.o(i._ZN10TMCStepper8TPWMTHRSEj) for i._ZN10TMCStepper8TPWMTHRSEj
    tmcstepper.o(.ARM.exidx) refers to tmcstepper.o(i._ZN10TMCStepper5MSCNTEv) for i._ZN10TMCStepper5MSCNTEv
    tmcstepper.o(.ARM.exidx) refers to tmcstepper.o(i._ZN10TMCStepper8MSCURACTEv) for i._ZN10TMCStepper8MSCURACTEv
    tmcstepper.o(.ARM.exidx) refers to tmcstepper.o(i._ZN10TMCStepper5cur_aEv) for i._ZN10TMCStepper5cur_aEv
    tmcstepper.o(.ARM.exidx) refers to tmcstepper.o(i._ZN10TMCStepper5cur_bEv) for i._ZN10TMCStepper5cur_bEv
    startup_hc32f46x.o(RESET) refers to startup_hc32f46x.o(STACK) for __initial_sp
    startup_hc32f46x.o(RESET) refers to startup_hc32f46x.o(.text) for Reset_Handler
    startup_hc32f46x.o(RESET) refers to hc32f46x_interrupts.o(i.SysTick_Handler) for SysTick_Handler
    startup_hc32f46x.o(RESET) refers to hc32f46x_interrupts.o(i.IRQ000_Handler) for IRQ000_Handler
    startup_hc32f46x.o(RESET) refers to hc32f46x_interrupts.o(i.IRQ001_Handler) for IRQ001_Handler
    startup_hc32f46x.o(RESET) refers to hc32f46x_interrupts.o(i.IRQ002_Handler) for IRQ002_Handler
    startup_hc32f46x.o(RESET) refers to hc32f46x_interrupts.o(i.IRQ003_Handler) for IRQ003_Handler
    startup_hc32f46x.o(RESET) refers to hc32f46x_interrupts.o(i.IRQ004_Handler) for IRQ004_Handler
    startup_hc32f46x.o(RESET) refers to hc32f46x_interrupts.o(i.IRQ005_Handler) for IRQ005_Handler
    startup_hc32f46x.o(RESET) refers to hc32f46x_interrupts.o(i.IRQ006_Handler) for IRQ006_Handler
    startup_hc32f46x.o(RESET) refers to hc32f46x_interrupts.o(i.IRQ007_Handler) for IRQ007_Handler
    startup_hc32f46x.o(RESET) refers to hc32f46x_interrupts.o(i.IRQ008_Handler) for IRQ008_Handler
    startup_hc32f46x.o(RESET) refers to hc32f46x_interrupts.o(i.IRQ009_Handler) for IRQ009_Handler
    startup_hc32f46x.o(RESET) refers to hc32f46x_interrupts.o(i.IRQ010_Handler) for IRQ010_Handler
    startup_hc32f46x.o(RESET) refers to hc32f46x_interrupts.o(i.IRQ011_Handler) for IRQ011_Handler
    startup_hc32f46x.o(RESET) refers to hc32f46x_interrupts.o(i.IRQ012_Handler) for IRQ012_Handler
    startup_hc32f46x.o(RESET) refers to hc32f46x_interrupts.o(i.IRQ013_Handler) for IRQ013_Handler
    startup_hc32f46x.o(RESET) refers to hc32f46x_interrupts.o(i.IRQ014_Handler) for IRQ014_Handler
    startup_hc32f46x.o(RESET) refers to hc32f46x_interrupts.o(i.IRQ015_Handler) for IRQ015_Handler
    startup_hc32f46x.o(RESET) refers to hc32f46x_interrupts.o(i.IRQ016_Handler) for IRQ016_Handler
    startup_hc32f46x.o(RESET) refers to hc32f46x_interrupts.o(i.IRQ017_Handler) for IRQ017_Handler
    startup_hc32f46x.o(RESET) refers to hc32f46x_interrupts.o(i.IRQ018_Handler) for IRQ018_Handler
    startup_hc32f46x.o(RESET) refers to hc32f46x_interrupts.o(i.IRQ019_Handler) for IRQ019_Handler
    startup_hc32f46x.o(RESET) refers to hc32f46x_interrupts.o(i.IRQ020_Handler) for IRQ020_Handler
    startup_hc32f46x.o(RESET) refers to hc32f46x_interrupts.o(i.IRQ021_Handler) for IRQ021_Handler
    startup_hc32f46x.o(RESET) refers to hc32f46x_interrupts.o(i.IRQ022_Handler) for IRQ022_Handler
    startup_hc32f46x.o(RESET) refers to hc32f46x_interrupts.o(i.IRQ023_Handler) for IRQ023_Handler
    startup_hc32f46x.o(RESET) refers to hc32f46x_interrupts.o(i.IRQ024_Handler) for IRQ024_Handler
    startup_hc32f46x.o(RESET) refers to hc32f46x_interrupts.o(i.IRQ025_Handler) for IRQ025_Handler
    startup_hc32f46x.o(RESET) refers to hc32f46x_interrupts.o(i.IRQ026_Handler) for IRQ026_Handler
    startup_hc32f46x.o(RESET) refers to hc32f46x_interrupts.o(i.IRQ027_Handler) for IRQ027_Handler
    startup_hc32f46x.o(RESET) refers to hc32f46x_interrupts.o(i.IRQ028_Handler) for IRQ028_Handler
    startup_hc32f46x.o(RESET) refers to hc32f46x_interrupts.o(i.IRQ029_Handler) for IRQ029_Handler
    startup_hc32f46x.o(RESET) refers to hc32f46x_interrupts.o(i.IRQ030_Handler) for IRQ030_Handler
    startup_hc32f46x.o(RESET) refers to hc32f46x_interrupts.o(i.IRQ031_Handler) for IRQ031_Handler
    startup_hc32f46x.o(RESET) refers to hc32f46x_interrupts.o(i.IRQ032_Handler) for IRQ032_Handler
    startup_hc32f46x.o(RESET) refers to hc32f46x_interrupts.o(i.IRQ033_Handler) for IRQ033_Handler
    startup_hc32f46x.o(RESET) refers to hc32f46x_interrupts.o(i.IRQ034_Handler) for IRQ034_Handler
    startup_hc32f46x.o(RESET) refers to hc32f46x_interrupts.o(i.IRQ035_Handler) for IRQ035_Handler
    startup_hc32f46x.o(RESET) refers to hc32f46x_interrupts.o(i.IRQ036_Handler) for IRQ036_Handler
    startup_hc32f46x.o(RESET) refers to hc32f46x_interrupts.o(i.IRQ037_Handler) for IRQ037_Handler
    startup_hc32f46x.o(RESET) refers to hc32f46x_interrupts.o(i.IRQ038_Handler) for IRQ038_Handler
    startup_hc32f46x.o(RESET) refers to hc32f46x_interrupts.o(i.IRQ039_Handler) for IRQ039_Handler
    startup_hc32f46x.o(RESET) refers to hc32f46x_interrupts.o(i.IRQ040_Handler) for IRQ040_Handler
    startup_hc32f46x.o(RESET) refers to hc32f46x_interrupts.o(i.IRQ041_Handler) for IRQ041_Handler
    startup_hc32f46x.o(RESET) refers to hc32f46x_interrupts.o(i.IRQ042_Handler) for IRQ042_Handler
    startup_hc32f46x.o(RESET) refers to hc32f46x_interrupts.o(i.IRQ043_Handler) for IRQ043_Handler
    startup_hc32f46x.o(RESET) refers to hc32f46x_interrupts.o(i.IRQ044_Handler) for IRQ044_Handler
    startup_hc32f46x.o(RESET) refers to hc32f46x_interrupts.o(i.IRQ045_Handler) for IRQ045_Handler
    startup_hc32f46x.o(RESET) refers to hc32f46x_interrupts.o(i.IRQ046_Handler) for IRQ046_Handler
    startup_hc32f46x.o(RESET) refers to hc32f46x_interrupts.o(i.IRQ047_Handler) for IRQ047_Handler
    startup_hc32f46x.o(RESET) refers to hc32f46x_interrupts.o(i.IRQ048_Handler) for IRQ048_Handler
    startup_hc32f46x.o(RESET) refers to hc32f46x_interrupts.o(i.IRQ049_Handler) for IRQ049_Handler
    startup_hc32f46x.o(RESET) refers to hc32f46x_interrupts.o(i.IRQ050_Handler) for IRQ050_Handler
    startup_hc32f46x.o(RESET) refers to hc32f46x_interrupts.o(i.IRQ051_Handler) for IRQ051_Handler
    startup_hc32f46x.o(RESET) refers to hc32f46x_interrupts.o(i.IRQ052_Handler) for IRQ052_Handler
    startup_hc32f46x.o(RESET) refers to hc32f46x_interrupts.o(i.IRQ053_Handler) for IRQ053_Handler
    startup_hc32f46x.o(RESET) refers to hc32f46x_interrupts.o(i.IRQ054_Handler) for IRQ054_Handler
    startup_hc32f46x.o(RESET) refers to hc32f46x_interrupts.o(i.IRQ055_Handler) for IRQ055_Handler
    startup_hc32f46x.o(RESET) refers to hc32f46x_interrupts.o(i.IRQ056_Handler) for IRQ056_Handler
    startup_hc32f46x.o(RESET) refers to hc32f46x_interrupts.o(i.IRQ057_Handler) for IRQ057_Handler
    startup_hc32f46x.o(RESET) refers to hc32f46x_interrupts.o(i.IRQ058_Handler) for IRQ058_Handler
    startup_hc32f46x.o(RESET) refers to hc32f46x_interrupts.o(i.IRQ059_Handler) for IRQ059_Handler
    startup_hc32f46x.o(RESET) refers to hc32f46x_interrupts.o(i.IRQ060_Handler) for IRQ060_Handler
    startup_hc32f46x.o(RESET) refers to hc32f46x_interrupts.o(i.IRQ061_Handler) for IRQ061_Handler
    startup_hc32f46x.o(RESET) refers to hc32f46x_interrupts.o(i.IRQ062_Handler) for IRQ062_Handler
    startup_hc32f46x.o(RESET) refers to hc32f46x_interrupts.o(i.IRQ063_Handler) for IRQ063_Handler
    startup_hc32f46x.o(RESET) refers to hc32f46x_interrupts.o(i.IRQ064_Handler) for IRQ064_Handler
    startup_hc32f46x.o(RESET) refers to hc32f46x_interrupts.o(i.IRQ065_Handler) for IRQ065_Handler
    startup_hc32f46x.o(RESET) refers to hc32f46x_interrupts.o(i.IRQ066_Handler) for IRQ066_Handler
    startup_hc32f46x.o(RESET) refers to hc32f46x_interrupts.o(i.IRQ067_Handler) for IRQ067_Handler
    startup_hc32f46x.o(RESET) refers to hc32f46x_interrupts.o(i.IRQ068_Handler) for IRQ068_Handler
    startup_hc32f46x.o(RESET) refers to hc32f46x_interrupts.o(i.IRQ069_Handler) for IRQ069_Handler
    startup_hc32f46x.o(RESET) refers to hc32f46x_interrupts.o(i.IRQ070_Handler) for IRQ070_Handler
    startup_hc32f46x.o(RESET) refers to hc32f46x_interrupts.o(i.IRQ071_Handler) for IRQ071_Handler
    startup_hc32f46x.o(RESET) refers to hc32f46x_interrupts.o(i.IRQ072_Handler) for IRQ072_Handler
    startup_hc32f46x.o(RESET) refers to hc32f46x_interrupts.o(i.IRQ073_Handler) for IRQ073_Handler
    startup_hc32f46x.o(RESET) refers to hc32f46x_interrupts.o(i.IRQ074_Handler) for IRQ074_Handler
    startup_hc32f46x.o(RESET) refers to hc32f46x_interrupts.o(i.IRQ075_Handler) for IRQ075_Handler
    startup_hc32f46x.o(RESET) refers to hc32f46x_interrupts.o(i.IRQ076_Handler) for IRQ076_Handler
    startup_hc32f46x.o(RESET) refers to hc32f46x_interrupts.o(i.IRQ077_Handler) for IRQ077_Handler
    startup_hc32f46x.o(RESET) refers to hc32f46x_interrupts.o(i.IRQ078_Handler) for IRQ078_Handler
    startup_hc32f46x.o(RESET) refers to hc32f46x_interrupts.o(i.IRQ079_Handler) for IRQ079_Handler
    startup_hc32f46x.o(RESET) refers to hc32f46x_interrupts.o(i.IRQ080_Handler) for IRQ080_Handler
    startup_hc32f46x.o(RESET) refers to hc32f46x_interrupts.o(i.IRQ081_Handler) for IRQ081_Handler
    startup_hc32f46x.o(RESET) refers to hc32f46x_interrupts.o(i.IRQ082_Handler) for IRQ082_Handler
    startup_hc32f46x.o(RESET) refers to hc32f46x_interrupts.o(i.IRQ083_Handler) for IRQ083_Handler
    startup_hc32f46x.o(RESET) refers to hc32f46x_interrupts.o(i.IRQ084_Handler) for IRQ084_Handler
    startup_hc32f46x.o(RESET) refers to hc32f46x_interrupts.o(i.IRQ085_Handler) for IRQ085_Handler
    startup_hc32f46x.o(RESET) refers to hc32f46x_interrupts.o(i.IRQ086_Handler) for IRQ086_Handler
    startup_hc32f46x.o(RESET) refers to hc32f46x_interrupts.o(i.IRQ087_Handler) for IRQ087_Handler
    startup_hc32f46x.o(RESET) refers to hc32f46x_interrupts.o(i.IRQ088_Handler) for IRQ088_Handler
    startup_hc32f46x.o(RESET) refers to hc32f46x_interrupts.o(i.IRQ089_Handler) for IRQ089_Handler
    startup_hc32f46x.o(RESET) refers to hc32f46x_interrupts.o(i.IRQ090_Handler) for IRQ090_Handler
    startup_hc32f46x.o(RESET) refers to hc32f46x_interrupts.o(i.IRQ091_Handler) for IRQ091_Handler
    startup_hc32f46x.o(RESET) refers to hc32f46x_interrupts.o(i.IRQ092_Handler) for IRQ092_Handler
    startup_hc32f46x.o(RESET) refers to hc32f46x_interrupts.o(i.IRQ093_Handler) for IRQ093_Handler
    startup_hc32f46x.o(RESET) refers to hc32f46x_interrupts.o(i.IRQ094_Handler) for IRQ094_Handler
    startup_hc32f46x.o(RESET) refers to hc32f46x_interrupts.o(i.IRQ095_Handler) for IRQ095_Handler
    startup_hc32f46x.o(RESET) refers to hc32f46x_interrupts.o(i.IRQ096_Handler) for IRQ096_Handler
    startup_hc32f46x.o(RESET) refers to hc32f46x_interrupts.o(i.IRQ097_Handler) for IRQ097_Handler
    startup_hc32f46x.o(RESET) refers to hc32f46x_interrupts.o(i.IRQ098_Handler) for IRQ098_Handler
    startup_hc32f46x.o(RESET) refers to hc32f46x_interrupts.o(i.IRQ099_Handler) for IRQ099_Handler
    startup_hc32f46x.o(.text) refers to system_hc32f46x.o(i.SystemInit) for SystemInit
    startup_hc32f46x.o(.text) refers to entry.o(.ARM.Collect$$$$00000000) for __main
    system_hc32f46x.o(i.SystemCoreClockUpdate) refers to system_hc32f46x.o(.data) for HRC_VALUE
    system_hc32f46x.o(i.SystemInit) refers to system_hc32f46x.o(i.SystemCoreClockUpdate) for SystemCoreClockUpdate
    system_hc32f46x.o(.ARM.exidx) refers to system_hc32f46x.o(i.SystemCoreClockUpdate) for i.SystemCoreClockUpdate
    system_hc32f46x.o(.ARM.exidx) refers to system_hc32f46x.o(i.SystemInit) for i.SystemInit
    marlincore.o(i._Z15printJobOngoingv) refers to stopwatch.o(.data) for Stopwatch::state
    marlincore.o(i._Z15printJobOngoingv) refers to cardreader.o(.data) for CardReader::flag
    marlincore.o(i._Z16pin_is_protecteds) refers to marlincore.o(.constdata) for pin_is_protected(short)::sensitive_pins
    marlincore.o(i._Z16printingIsActivev) refers to pause.o(.data) for did_pause_print
    marlincore.o(i._Z16printingIsActivev) refers to stopwatch.o(.data) for Stopwatch::state
    marlincore.o(i._Z16printingIsActivev) refers to cardreader.o(.data) for CardReader::flag
    marlincore.o(i._Z16printingIsPausedv) refers to pause.o(.data) for did_pause_print
    marlincore.o(i._Z16printingIsPausedv) refers to stopwatch.o(.data) for Stopwatch::state
    marlincore.o(i._Z16printingIsPausedv) refers to cardreader.o(.data) for CardReader::flag
    marlincore.o(i._Z16printingIsPausedv) refers to cardreader.o(.bss) for CardReader::file
    marlincore.o(i._Z16startOrResumeJobv) refers to marlincore.o(i._Z16printingIsPausedv) for printingIsPaused()
    marlincore.o(i._Z16startOrResumeJobv) refers to stopwatch.o(i._ZN9Stopwatch5startEv) for Stopwatch::start()
    marlincore.o(i._Z16startOrResumeJobv) refers to repeat.o(.data) for Repeat::index
    marlincore.o(i._Z17disable_e_stepperh) refers to softwareserial.o(i.PORT_SetBitsMapp) for PORT_SetBitsMapp
    marlincore.o(i._Z17enable_e_steppersv) refers to softwareserial.o(i.PORT_ResetBitsMapp) for PORT_ResetBitsMapp
    marlincore.o(i._Z17protected_pin_errv) refers to serial.o(i._Z18serial_error_startv) for serial_error_start()
    marlincore.o(i._Z17protected_pin_errv) refers to serial.o(i._Z14serialprintPGMPKc) for serialprintPGM(const char*)
    marlincore.o(i._Z17quickstop_stepperv) refers to planner.o(i._ZN7Planner10quick_stopEv) for Planner::quick_stop()
    marlincore.o(i._Z17quickstop_stepperv) refers to planner.o(i._ZN7Planner11synchronizeEv) for Planner::synchronize()
    marlincore.o(i._Z17quickstop_stepperv) refers to motion.o(i._Z34set_current_from_steppers_for_axis8AxisEnum) for set_current_from_steppers_for_axis(AxisEnum)
    marlincore.o(i._Z17quickstop_stepperv) refers to motion.o(i._Z18sync_plan_positionv) for sync_plan_position()
    marlincore.o(i._Z18disable_e_steppersv) refers to softwareserial.o(i.PORT_SetBitsMapp) for PORT_SetBitsMapp
    marlincore.o(i._Z19enable_all_steppersv) refers to softwareserial.o(i.PORT_ResetBitsMapp) for PORT_ResetBitsMapp
    marlincore.o(i._Z19enable_all_steppersv) refers to marlincore.o(i._Z17enable_e_steppersv) for enable_e_steppers()
    marlincore.o(i._Z20disable_all_steppersv) refers to softwareserial.o(i.PORT_SetBitsMapp) for PORT_SetBitsMapp
    marlincore.o(i._Z20disable_all_steppersv) refers to marlincore.o(i._Z18disable_e_steppersv) for disable_e_steppers()
    marlincore.o(i._Z20disable_all_steppersv) refers to motion.o(.data) for axis_trusted
    marlincore.o(i._Z22wait_for_user_responsejb) refers to board_tim0.o(i.millis) for millis
    marlincore.o(i._Z22wait_for_user_responsejb) refers to marlincore.o(i._Z4idleb) for idle(bool)
    marlincore.o(i._Z22wait_for_user_responsejb) refers to marlincore.o(.data) for wait_for_user
    marlincore.o(i._Z4idleb) refers to watchdog.o(i._Z20HAL_watchdog_refreshv) for HAL_watchdog_refresh()
    marlincore.o(i._Z4idleb) refers to marlincore.o(i._Z17manage_inactivityb) for manage_inactivity(bool)
    marlincore.o(i._Z4idleb) refers to temperature.o(i._ZN11Temperature13manage_heaterEv) for Temperature::manage_heater()
    marlincore.o(i._Z4idleb) refers to marlincore.o(t._ZN16TFilamentMonitorI23RunoutResponseDebounced20FilamentSensorSwitchE3runEv) for TFilamentMonitor<RunoutResponseDebounced, FilamentSensorSwitch>::run()
    marlincore.o(i._Z4idleb) refers to marlincore.o(i._Z15printJobOngoingv) for printJobOngoing()
    marlincore.o(i._Z4idleb) refers to powerloss.o(i._ZN16PrintJobRecovery6outageEv) for PrintJobRecovery::outage()
    marlincore.o(i._Z4idleb) refers to cardreader.o(i._ZN10CardReader12manage_mediaEv) for CardReader::manage_media()
    marlincore.o(i._Z4idleb) refers to buzzer.o(i._ZN6Buzzer4tickEv) for Buzzer::tick()
    marlincore.o(i._Z4idleb) refers to marlinui.o(i._ZN8MarlinUI6updateEv) for MarlinUI::update()
    marlincore.o(i._Z4idleb) refers to temperature.o(i._ZN11Temperature24auto_report_temperaturesEv) for Temperature::auto_report_temperatures()
    marlincore.o(i._Z4idleb) refers to marlincore.o(.data) for marlin_state
    marlincore.o(i._Z4idleb) refers to gcode.o(.data) for GcodeSuite::autoreport_paused
    marlincore.o(i._Z4killPKcS0_b) refers to temperature.o(i._ZN11Temperature19disable_all_heatersEv) for Temperature::disable_all_heaters()
    marlincore.o(i._Z4killPKcS0_b) refers to bsp_init.o(i.shut_off_power) for shut_off_power
    marlincore.o(i._Z4killPKcS0_b) refers to serial.o(i._Z18serial_error_startv) for serial_error_start()
    marlincore.o(i._Z4killPKcS0_b) refers to serial.o(i._Z14serialprintPGMPKc) for serialprintPGM(const char*)
    marlincore.o(i._Z4killPKcS0_b) refers to marlinui.o(i._ZN8MarlinUI11kill_screenEPKcS1_) for MarlinUI::kill_screen(const char*, const char*)
    marlincore.o(i._Z4killPKcS0_b) refers to marlincore.o(i._Z7minkillb) for minkill(bool)
    marlincore.o(i._Z4killPKcS0_b) refers to marlincore.o(.constdata) for NUL_STR
    marlincore.o(i._Z4killPKcS0_b) refers to marlinui.o(.data) for MarlinUI::language
    marlincore.o(i._Z4stopv) refers to temperature.o(i._ZN11Temperature19disable_all_heatersEv) for Temperature::disable_all_heaters()
    marlincore.o(i._Z4stopv) refers to stopwatch.o(i._ZN9Stopwatch4stopEv) for Stopwatch::stop()
    marlincore.o(i._Z4stopv) refers to serial.o(i._Z18serial_error_startv) for serial_error_start()
    marlincore.o(i._Z4stopv) refers to serial.o(i._Z14serialprintPGMPKc) for serialprintPGM(const char*)
    marlincore.o(i._Z4stopv) refers to marlinui.o(i._ZN8MarlinUI12set_status_PEPKca) for MarlinUI::set_status_P(const char*, signed char)
    marlincore.o(i._Z4stopv) refers to utility.o(i._Z10safe_delayj) for safe_delay(unsigned)
    marlincore.o(i._Z4stopv) refers to marlincore.o(.data) for marlin_state
    marlincore.o(i._Z4stopv) refers to marlincore.o(.conststring) for .conststring
    marlincore.o(i._Z4stopv) refers to marlinui.o(.data) for MarlinUI::language
    marlincore.o(i._Z4stopv) refers to marlincore.o(.constdata) for [local to MarlinCore_cpp]::Language_en::MSG_STOPPED
    marlincore.o(i._Z7minkillb) refers to watchdog.o(i._Z20HAL_watchdog_refreshv) for HAL_watchdog_refresh()
    marlincore.o(i._Z7minkillb) refers to hc32f46x_utility.o(i.Ddl_Delay1us) for Ddl_Delay1us
    marlincore.o(i._Z7minkillb) refers to temperature.o(i._ZN11Temperature19disable_all_heatersEv) for Temperature::disable_all_heaters()
    marlincore.o(i._Z7minkillb) refers to marlincore.o(i._Z20disable_all_steppersv) for disable_all_steppers()
    marlincore.o(i._Z7minkillb) refers to marlincore.o(i._Z18disable_e_steppersv) for disable_e_steppers()
    marlincore.o(i._Z7minkillb) refers to hc32f46x_utility.o(i.Ddl_Delay1ms) for Ddl_Delay1ms
    marlincore.o(i._Z7minkillb) refers to serial.o(i._Z14serialprintPGMPKc) for serialprintPGM(const char*)
    marlincore.o(i.__sti___14_MarlinCore_cpp_card) refers to cardreader.o(i._ZN10CardReaderC1Ev) for CardReader::CardReader()
    marlincore.o(i.__sti___14_MarlinCore_cpp_card) refers to marlincore.o(.data) for card
    marlincore.o(i.loop) refers to marlincore.o(i._Z4idleb) for idle(bool)
    marlincore.o(i.loop) refers to cardreader.o(i._ZN10CardReader12endFilePrintEv) for CardReader::endFilePrint()
    marlincore.o(i.loop) refers to queue.o(i._ZN10GCodeQueue5clearEv) for GCodeQueue::clear()
    marlincore.o(i.loop) refers to marlincore.o(i._Z17quickstop_stepperv) for quickstop_stepper()
    marlincore.o(i.loop) refers to stopwatch.o(i._ZN9Stopwatch4stopEv) for Stopwatch::stop()
    marlincore.o(i.loop) refers to temperature.o(i._ZN11Temperature13set_fan_speedEht) for Temperature::set_fan_speed(unsigned char, unsigned short)
    marlincore.o(i.loop) refers to powerloss.o(i._ZN16PrintJobRecovery5purgeEv) for PrintJobRecovery::purge()
    marlincore.o(i.loop) refers to queue.o(i._ZN10GCodeQueue13enqueue_one_PEPKc) for GCodeQueue::enqueue_one_P(const char*)
    marlincore.o(i.loop) refers to queue.o(i._ZN10GCodeQueue7advanceEv) for GCodeQueue::advance()
    marlincore.o(i.loop) refers to endstops.o(i._ZN8Endstops13event_handlerEv) for Endstops::event_handler()
    marlincore.o(i.loop) refers to cardreader.o(.data) for CardReader::flag
    marlincore.o(i.loop) refers to marlincore.o(.data) for wait_for_heatup
    marlincore.o(i.loop) refers to marlincore.o(.constdata__ZZ15abortSDPrintingvEs) for abortSDPrinting()::string
    marlincore.o(i.loop) refers to queue.o(.data) for GCodeQueue::injected_commands_P
    marlincore.o(i.loop) refers to marlincore.o(.constdata__ZZ16finishSDPrintingvEs) for finishSDPrinting()::string
    marlincore.o(i.setup) refers to board_tim0.o(i.millis) for millis
    marlincore.o(i.setup) refers to serial.o(i._Z14serialprintPGMPKc) for serialprintPGM(const char*)
    marlincore.o(i.setup) refers to hal.o(i._Z8HAL_initv) for HAL_init()
    marlincore.o(i.setup) refers to io.o(i._Z13gpio_set_modeh13WiringPinMode) for gpio_set_mode(unsigned char, WiringPinMode)
    marlincore.o(i.setup) refers to marlincore.o(i.PORT_GetBitMapp) for PORT_GetBitMapp
    marlincore.o(i.setup) refers to marlincore.o(i._Z13setup_killpinv) for setup_killpin()
    marlincore.o(i.setup) refers to trinamic.o(i._Z16tmc_serial_beginv) for tmc_serial_begin()
    marlincore.o(i.setup) refers to marlincore.o(i._Z15setup_powerholdv) for setup_powerhold()
    marlincore.o(i.setup) refers to esp_wifi.o(i._Z13esp_wifi_initv) for esp_wifi_init()
    marlincore.o(i.setup) refers to hal.o(i._Z20HAL_get_reset_sourcev) for HAL_get_reset_source()
    marlincore.o(i.setup) refers to hal.o(i._Z22HAL_clear_reset_sourcev) for HAL_clear_reset_source()
    marlincore.o(i.setup) refers to marlincore.o(i._ZN14HardwareSerial5writeEi) for HardwareSerial::write(int)
    marlincore.o(i.setup) refers to serial.o(i._Z17serial_echo_startv) for serial_echo_start()
    marlincore.o(i.setup) refers to serial.o(i._Z19serial_echopair_PGMPKci) for serial_echopair_PGM(const char*, int)
    marlincore.o(i.setup) refers to softwareserial.o(i.PORT_ResetBitsMapp) for PORT_ResetBitsMapp
    marlincore.o(i.setup) refers to controllerfan.o(i._ZN13ControllerFan5setupEv) for ControllerFan::setup()
    marlincore.o(i.setup) refers to marlinui.o(i._ZN8MarlinUI4initEv) for MarlinUI::init()
    marlincore.o(i.setup) refers to ui_320x240.o(i._ZN8MarlinUI15show_bootscreenEv) for MarlinUI::show_bootscreen()
    marlincore.o(i.setup) refers to marlinui.o(i._ZN8MarlinUI12reset_statusEb) for MarlinUI::reset_status(bool)
    marlincore.o(i.setup) refers to settings.o(i._ZN14MarlinSettings4loadEv) for MarlinSettings::load()
    marlincore.o(i.setup) refers to motion.o(i._Z18sync_plan_positionv) for sync_plan_position()
    marlincore.o(i.setup) refers to stopwatch.o(i._ZN9Stopwatch5resetEv) for Stopwatch::reset()
    marlincore.o(i.setup) refers to endstops.o(i._ZN8Endstops4initEv) for Endstops::init()
    marlincore.o(i.setup) refers to stepper.o(i._ZN7Stepper4initEv) for Stepper::init()
    marlincore.o(i.setup) refers to endstops.o(i._ZN8Endstops14enable_z_probeEb) for Endstops::enable_z_probe(bool)
    marlincore.o(i.setup) refers to watchdog.o(i._Z13watchdog_initv) for watchdog_init()
    marlincore.o(i.setup) refers to tmc_util.o(i._Z19test_tmc_connectionbbbb) for test_tmc_connection(bool, bool, bool, bool)
    marlincore.o(i.setup) refers to encoder.o(i._Z21Encoder_Configurationv) for Encoder_Configuration()
    marlincore.o(i.setup) refers to temperature.o(i._ZN11Temperature4initEv) for Temperature::init()
    marlincore.o(i.setup) refers to gcode.o(i._ZN10GcodeSuite25process_subcommands_now_PEPKc) for GcodeSuite::process_subcommands_now_P(const char*)
    marlincore.o(i.setup) refers to runout.o(.data) for FilamentSensorBase::state_original
    marlincore.o(i.setup) refers to marlinui.o(.data) for MarlinUI::language
    marlincore.o(i.setup) refers to marlincore.o(.constdata) for [local to MarlinCore_cpp]::Language_en::MSG_MARLIN
    marlincore.o(i.setup) refers to board_gpio.o(.bss) for Serial2
    marlincore.o(i.setup) refers to buzzer.o(.data) for Buzzer::state
    marlincore.o(i.setup) refers to marlincore.o(.data__ZZN14MarlinSettings10first_loadEvE6loaded) for MarlinSettings::first_load()::loaded
    marlincore.o(i.setup) refers to motion.o(.data) for current_position
    marlincore.o(i.setup) refers to motion.o(.bss) for home_offset
    marlincore.o(i.setup) refers to temperature.o(.data) for thermalManager
    marlincore.o(i.setup) refers to marlincore.o(.data) for marlin_state
    marlincore.o(.ARM.exidx) refers to marlincore.o(i._Z15printJobOngoingv) for i._Z15printJobOngoingv
    marlincore.o(.ARM.exidx) refers to marlincore.o(i._Z16printingIsActivev) for i._Z16printingIsActivev
    marlincore.o(.ARM.exidx) refers to marlincore.o(i._Z18disable_e_steppersv) for i._Z18disable_e_steppersv
    marlincore.o(.ARM.exidx) refers to marlincore.o(i._Z20disable_all_steppersv) for i._Z20disable_all_steppersv
    marlincore.o(.ARM.exidx) refers to marlincore.o(i._Z7minkillb) for i._Z7minkillb
    marlincore.o(.ARM.exidx) refers to marlincore.o(i._Z4killPKcS0_b) for i._Z4killPKcS0_b
    marlincore.o(.ARM.exidx) refers to marlincore.o(i._Z4idleb) for i._Z4idleb
    marlincore.o(.ARM.exidx) refers to marlincore.o(i._Z22wait_for_user_responsejb) for i._Z22wait_for_user_responsejb
    marlincore.o(.ARM.exidx) refers to marlincore.o(i._Z15ACTouchSelfTestv) for i._Z15ACTouchSelfTestv
    marlincore.o(.ARM.exidx) refers to marlincore.o(i._Z13setup_killpinv) for i._Z13setup_killpinv
    marlincore.o(.ARM.exidx) refers to marlincore.o(i._Z15setup_powerholdv) for i._Z15setup_powerholdv
    marlincore.o(.ARM.exidx) refers to marlincore.o(i._Z16pin_is_protecteds) for i._Z16pin_is_protecteds
    marlincore.o(.ARM.exidx) refers to marlincore.o(i._Z17protected_pin_errv) for i._Z17protected_pin_errv
    marlincore.o(.ARM.exidx) refers to marlincore.o(i._Z17quickstop_stepperv) for i._Z17quickstop_stepperv
    marlincore.o(.ARM.exidx) refers to marlincore.o(i._Z17enable_e_steppersv) for i._Z17enable_e_steppersv
    marlincore.o(.ARM.exidx) refers to marlincore.o(i._Z19enable_all_steppersv) for i._Z19enable_all_steppersv
    marlincore.o(.ARM.exidx) refers to marlincore.o(i._Z17disable_e_stepperh) for i._Z17disable_e_stepperh
    marlincore.o(.ARM.exidx) refers to marlincore.o(i._Z16printingIsPausedv) for i._Z16printingIsPausedv
    marlincore.o(.ARM.exidx) refers to marlincore.o(i._Z16startOrResumeJobv) for i._Z16startOrResumeJobv
    marlincore.o(.ARM.exidx) refers to marlincore.o(i._Z4stopv) for i._Z4stopv
    marlincore.o(.ARM.exidx) refers to marlincore.o(i.setup) for i.setup
    marlincore.o(.ARM.exidx) refers to marlincore.o(i.loop) for i.loop
    marlincore.o(.ARM.exidx) refers to marlincore.o(i.__sti___14_MarlinCore_cpp_card) for i.__sti___14_MarlinCore_cpp_card
    marlincore.o(.init_array) refers to marlincore.o(i.__sti___14_MarlinCore_cpp_card) for __sti___14_MarlinCore_cpp_card
    marlincore.o(.init_array) refers to cpp_init.o(.text) for __cpp_initialize__aeabi_
    serial.o(i._Z13serial_spacesh) refers to dfltui.o(.text) for __aeabi_ui2d
    serial.o(i._Z13serial_spacesh) refers to dmul.o(.text) for __aeabi_dmul
    serial.o(i._Z13serial_spacesh) refers to dfixui.o(.text) for __aeabi_d2uiz
    serial.o(i._Z13serial_spacesh) refers to marlincore.o(i._ZN14HardwareSerial5writeEi) for HardwareSerial::write(int)
    serial.o(i._Z13serial_spacesh) refers to board_gpio.o(.bss) for Serial2
    serial.o(i._Z14serial_ternarybPKcS0_S0_S0_) refers to serial.o(i._Z14serialprintPGMPKc) for serialprintPGM(const char*)
    serial.o(i._Z14serialprintPGMPKc) refers to marlincore.o(i._ZN14HardwareSerial5writeEi) for HardwareSerial::write(int)
    serial.o(i._Z14serialprintPGMPKc) refers to board_gpio.o(.bss) for Serial2
    serial.o(i._Z17serial_echo_startv) refers to serial.o(i._Z14serialprintPGMPKc) for serialprintPGM(const char*)
    serial.o(i._Z17serial_echo_startv) refers to serial.o(.constdata) for echomagic
    serial.o(i._Z17serialprint_onoffb) refers to serial.o(i._Z14serialprintPGMPKc) for serialprintPGM(const char*)
    serial.o(i._Z18serial_error_startv) refers to serial.o(i._Z14serialprintPGMPKc) for serialprintPGM(const char*)
    serial.o(i._Z18serial_error_startv) refers to serial.o(.constdata) for errormagic
    serial.o(i._Z19serial_echopair_PGMPKcS0_) refers to serial.o(i._Z14serialprintPGMPKc) for serialprintPGM(const char*)
    serial.o(i._Z19serial_echopair_PGMPKcS0_) refers to print.o(i._ZN5Print5printEPKc) for Print::print(const char*)
    serial.o(i._Z19serial_echopair_PGMPKcS0_) refers to board_gpio.o(.bss) for Serial2
    serial.o(i._Z19serial_echopair_PGMPKcc) refers to serial.o(i._Z14serialprintPGMPKc) for serialprintPGM(const char*)
    serial.o(i._Z19serial_echopair_PGMPKcc) refers to marlincore.o(i._ZN14HardwareSerial5writeEi) for HardwareSerial::write(int)
    serial.o(i._Z19serial_echopair_PGMPKcc) refers to board_gpio.o(.bss) for Serial2
    serial.o(i._Z19serial_echopair_PGMPKcd) refers to serial.o(i._Z14serialprintPGMPKc) for serialprintPGM(const char*)
    serial.o(i._Z19serial_echopair_PGMPKcd) refers to print.o(i._ZN5Print5printEdi) for Print::print(double, int)
    serial.o(i._Z19serial_echopair_PGMPKcd) refers to board_gpio.o(.bss) for Serial2
    serial.o(i._Z19serial_echopair_PGMPKcf) refers to serial.o(i._Z14serialprintPGMPKc) for serialprintPGM(const char*)
    serial.o(i._Z19serial_echopair_PGMPKcf) refers to f2d.o(.text) for __aeabi_f2d
    serial.o(i._Z19serial_echopair_PGMPKcf) refers to print.o(i._ZN5Print5printEdi) for Print::print(double, int)
    serial.o(i._Z19serial_echopair_PGMPKcf) refers to board_gpio.o(.bss) for Serial2
    serial.o(i._Z19serial_echopair_PGMPKci) refers to serial.o(i._Z14serialprintPGMPKc) for serialprintPGM(const char*)
    serial.o(i._Z19serial_echopair_PGMPKci) refers to print.o(i._ZN5Print5printEii) for Print::print(int, int)
    serial.o(i._Z19serial_echopair_PGMPKci) refers to board_gpio.o(.bss) for Serial2
    serial.o(i._Z19serial_echopair_PGMPKcj) refers to serial.o(i._Z14serialprintPGMPKc) for serialprintPGM(const char*)
    serial.o(i._Z19serial_echopair_PGMPKcj) refers to print.o(i._ZN5Print5printEji) for Print::print(unsigned, int)
    serial.o(i._Z19serial_echopair_PGMPKcj) refers to board_gpio.o(.bss) for Serial2
    serial.o(i._Z19serial_echopair_PGMPKcl) refers to serial.o(i._Z14serialprintPGMPKc) for serialprintPGM(const char*)
    serial.o(i._Z19serial_echopair_PGMPKcl) refers to print.o(i._ZN5Print5printEli) for Print::print(long, int)
    serial.o(i._Z19serial_echopair_PGMPKcl) refers to board_gpio.o(.bss) for Serial2
    serial.o(i._Z19serial_echopair_PGMPKcm) refers to serial.o(i._Z14serialprintPGMPKc) for serialprintPGM(const char*)
    serial.o(i._Z19serial_echopair_PGMPKcm) refers to print.o(i._ZN5Print5printEmi) for Print::print(unsigned long, int)
    serial.o(i._Z19serial_echopair_PGMPKcm) refers to board_gpio.o(.bss) for Serial2
    serial.o(i._Z19serialprintln_onoffb) refers to serial.o(i._Z17serialprint_onoffb) for serialprint_onoff(bool)
    serial.o(i._Z19serialprintln_onoffb) refers to marlincore.o(i._ZN14HardwareSerial5writeEi) for HardwareSerial::write(int)
    serial.o(i._Z19serialprintln_onoffb) refers to board_gpio.o(.bss) for Serial2
    serial.o(i._Z21serialprint_truefalseb) refers to serial.o(i._Z14serialprintPGMPKc) for serialprintPGM(const char*)
    serial.o(i._Z9print_bint) refers to marlincore.o(i._ZN14HardwareSerial5writeEi) for HardwareSerial::write(int)
    serial.o(i._Z9print_bint) refers to board_gpio.o(.bss) for Serial2
    serial.o(i._Z9print_xyzRKfS0_S0_PKcS2_) refers to serial.o(i._Z14serialprintPGMPKc) for serialprintPGM(const char*)
    serial.o(i._Z9print_xyzRKfS0_S0_PKcS2_) refers to serial.o(i._Z19serial_echopair_PGMPKcf) for serial_echopair_PGM(const char*, float)
    serial.o(i._Z9print_xyzRKfS0_S0_PKcS2_) refers to marlincore.o(i._ZN14HardwareSerial5writeEi) for HardwareSerial::write(int)
    serial.o(i._Z9print_xyzRKfS0_S0_PKcS2_) refers to marlincore.o(.constdata) for SP_X_STR
    serial.o(i._Z9print_xyzRKfS0_S0_PKcS2_) refers to board_gpio.o(.bss) for Serial2
    serial.o(.ARM.exidx) refers to serial.o(i._Z14serialprintPGMPKc) for i._Z14serialprintPGMPKc
    serial.o(.ARM.exidx) refers to serial.o(i._Z17serial_echo_startv) for i._Z17serial_echo_startv
    serial.o(.ARM.exidx) refers to serial.o(i._Z18serial_error_startv) for i._Z18serial_error_startv
    serial.o(.ARM.exidx) refers to serial.o(i._Z19serial_echopair_PGMPKcS0_) for i._Z19serial_echopair_PGMPKcS0_
    serial.o(.ARM.exidx) refers to serial.o(i._Z19serial_echopair_PGMPKcc) for i._Z19serial_echopair_PGMPKcc
    serial.o(.ARM.exidx) refers to serial.o(i._Z19serial_echopair_PGMPKci) for i._Z19serial_echopair_PGMPKci
    serial.o(.ARM.exidx) refers to serial.o(i._Z19serial_echopair_PGMPKcl) for i._Z19serial_echopair_PGMPKcl
    serial.o(.ARM.exidx) refers to serial.o(i._Z19serial_echopair_PGMPKcf) for i._Z19serial_echopair_PGMPKcf
    serial.o(.ARM.exidx) refers to serial.o(i._Z19serial_echopair_PGMPKcd) for i._Z19serial_echopair_PGMPKcd
    serial.o(.ARM.exidx) refers to serial.o(i._Z19serial_echopair_PGMPKcj) for i._Z19serial_echopair_PGMPKcj
    serial.o(.ARM.exidx) refers to serial.o(i._Z19serial_echopair_PGMPKcm) for i._Z19serial_echopair_PGMPKcm
    serial.o(.ARM.exidx) refers to serial.o(i._Z13serial_spacesh) for i._Z13serial_spacesh
    serial.o(.ARM.exidx) refers to serial.o(i._Z14serial_ternarybPKcS0_S0_S0_) for i._Z14serial_ternarybPKcS0_S0_S0_
    serial.o(.ARM.exidx) refers to serial.o(i._Z17serialprint_onoffb) for i._Z17serialprint_onoffb
    serial.o(.ARM.exidx) refers to serial.o(i._Z19serialprintln_onoffb) for i._Z19serialprintln_onoffb
    serial.o(.ARM.exidx) refers to serial.o(i._Z21serialprint_truefalseb) for i._Z21serialprint_truefalseb
    serial.o(.ARM.exidx) refers to serial.o(i._Z9print_bint) for i._Z9print_bint
    serial.o(.ARM.exidx) refers to serial.o(i._Z9print_xyzRKfS0_S0_PKcS2_) for i._Z9print_xyzRKfS0_S0_PKcS2_
    utility.o(i._Z10safe_delayj) refers to board_tim0.o(i.delay) for delay
    utility.o(i._Z10safe_delayj) refers to temperature.o(i._ZN11Temperature13manage_heaterEv) for Temperature::manage_heater()
    utility.o(i._Z12serial_delayj) refers to utility.o(i._ZN10GcodeSuite21set_autoreport_pausedEb) for GcodeSuite::set_autoreport_paused(bool)
    utility.o(i._Z12serial_delayj) refers to utility.o(i._Z10safe_delayj) for safe_delay(unsigned)
    utility.o(i._Z16log_machine_infov) refers to serial.o(i._Z14serialprintPGMPKc) for serialprintPGM(const char*)
    utility.o(i._Z16log_machine_infov) refers to serial.o(i._Z19serial_echopair_PGMPKcf) for serial_echopair_PGM(const char*, float)
    utility.o(i._Z16log_machine_infov) refers to marlincore.o(i._ZN14HardwareSerial5writeEi) for HardwareSerial::write(int)
    utility.o(i._Z16log_machine_infov) refers to abl.o(i._Z17bilinear_z_offsetRK5XYvalIfE) for bilinear_z_offset(const XYval<float>&)
    utility.o(i._Z16log_machine_infov) refers to numtostr.o(i._Z12ftostr43signRKfc) for ftostr43sign(const float&, char)
    utility.o(i._Z16log_machine_infov) refers to print.o(i._ZN5Print5printEPKc) for Print::print(const char*)
    utility.o(i._Z16log_machine_infov) refers to serial.o(i._Z19serial_echopair_PGMPKcS0_) for serial_echopair_PGM(const char*, const char*)
    utility.o(i._Z16log_machine_infov) refers to probe.o(.data) for Probe::offset_xy
    utility.o(i._Z16log_machine_infov) refers to marlincore.o(.constdata) for SP_Y_STR
    utility.o(i._Z16log_machine_infov) refers to probe.o(.bss) for Probe::offset
    utility.o(i._Z16log_machine_infov) refers to planner.o(.data) for Planner::leveling_active
    utility.o(i._Z16log_machine_infov) refers to board_gpio.o(.bss) for Serial2
    utility.o(i._Z16log_machine_infov) refers to motion.o(.data) for current_position
    utility.o(i._Z16log_machine_infov) refers to utility.o(.data__ZZN7Planner25fade_scaling_factor_for_zERKfE13z_fade_factor) for Planner::fade_scaling_factor_for_z(const float&)::z_fade_factor
    utility.o(.ARM.exidx) refers to utility.o(i._Z10safe_delayj) for i._Z10safe_delayj
    utility.o(.ARM.exidx) refers to utility.o(i._Z12serial_delayj) for i._Z12serial_delayj
    utility.o(.ARM.exidx) refers to utility.o(i._Z16log_machine_infov) for i._Z16log_machine_infov
    babystep.o(i._ZN8Babystep6add_mmE8AxisEnumRKf) refers to babystep.o(i._ZN8Babystep9add_stepsE8AxisEnums) for Babystep::add_steps(AxisEnum, short)
    babystep.o(i._ZN8Babystep6add_mmE8AxisEnumRKf) refers to planner.o(.bss) for Planner::settings
    babystep.o(i._ZN8Babystep9add_stepsE8AxisEnums) refers to motion.o(i._Z16axes_should_homeh) for axes_should_home(unsigned char)
    babystep.o(i._ZN8Babystep9add_stepsE8AxisEnums) refers to babystep.o(.data) for Babystep::accum
    babystep.o(i._ZN8Babystep9step_axisE8AxisEnum) refers to stepper.o(i._ZN7Stepper11do_babystepE8AxisEnumb) for Stepper::do_babystep(AxisEnum, bool)
    babystep.o(i._ZN8Babystep9step_axisE8AxisEnum) refers to babystep.o(.data) for Babystep::steps
    babystep.o(.ARM.exidx) refers to babystep.o(i._ZN8Babystep9add_stepsE8AxisEnums) for i._ZN8Babystep9add_stepsE8AxisEnums
    babystep.o(.ARM.exidx) refers to babystep.o(i._ZN8Babystep6add_mmE8AxisEnumRKf) for i._ZN8Babystep6add_mmE8AxisEnumRKf
    babystep.o(.ARM.exidx) refers to babystep.o(i._ZN8Babystep9step_axisE8AxisEnum) for i._ZN8Babystep9step_axisE8AxisEnum
    controllerfan.o(i._ZN13ControllerFan13set_fan_speedEh) refers to controllerfan.o(.data) for ControllerFan::speed
    controllerfan.o(i._ZN13ControllerFan5setupEv) refers to io.o(i._Z13gpio_set_modeh13WiringPinMode) for gpio_set_mode(unsigned char, WiringPinMode)
    controllerfan.o(i._ZN13ControllerFan5setupEv) refers to hc32f46x_gpio.o(i.PORT_ResetBits) for PORT_ResetBits
    controllerfan.o(i._ZN13ControllerFan5setupEv) refers to board_gpio.o(.constdata) for PIN_MAP
    controllerfan.o(i._ZN13ControllerFan5setupEv) refers to controllerfan.o(.data) for ControllerFan::settings
    controllerfan.o(i._ZN13ControllerFan5setupEv) refers to controllerfan.o(.constdata) for <Data51>
    controllerfan.o(i._ZN13ControllerFan6updateEv) refers to board_tim0.o(i.millis) for millis
    controllerfan.o(i._ZN13ControllerFan6updateEv) refers to marlincore.o(i.PORT_GetBitMapp) for PORT_GetBitMapp
    controllerfan.o(i._ZN13ControllerFan6updateEv) refers to controllerfan.o(i._ZN13ControllerFan13set_fan_speedEh) for ControllerFan::set_fan_speed(unsigned char)
    controllerfan.o(i._ZN13ControllerFan6updateEv) refers to bsp_pwm.o(i._Z17fan_pwm_set_ratiohh) for fan_pwm_set_ratio(unsigned char, unsigned char)
    controllerfan.o(i._ZN13ControllerFan6updateEv) refers to controllerfan.o(.data) for ControllerFan::update()::nextMotorCheck
    controllerfan.o(i._ZN13ControllerFan6updateEv) refers to temperature.o(.bss) for Temperature::temp_bed
    controllerfan.o(i._ZN13ControllerFan6updateEv) refers to temperature.o(.data) for Temperature::fan_speed
    controllerfan.o(.ARM.exidx) refers to controllerfan.o(i._ZN13ControllerFan13set_fan_speedEh) for i._ZN13ControllerFan13set_fan_speedEh
    controllerfan.o(.ARM.exidx) refers to controllerfan.o(i._ZN13ControllerFan5setupEv) for i._ZN13ControllerFan5setupEv
    controllerfan.o(.ARM.exidx) refers to controllerfan.o(i._ZN13ControllerFan6updateEv) for i._ZN13ControllerFan6updateEv
    e_parser.o(i.__sti___12_e_parser_cpp_ec3e43ca) refers to e_parser.o(.data) for emergency_parser
    e_parser.o(.ARM.exidx) refers to e_parser.o(i.__sti___12_e_parser_cpp_ec3e43ca) for i.__sti___12_e_parser_cpp_ec3e43ca
    e_parser.o(.init_array) refers to e_parser.o(i.__sti___12_e_parser_cpp_ec3e43ca) for __sti___12_e_parser_cpp_ec3e43ca
    e_parser.o(.init_array) refers to cpp_init.o(.text) for __cpp_initialize__aeabi_
    pause.o(i._Z11pause_printRKfRK6XYZvalIfES0_b) refers to stopwatch.o(i._ZN9Stopwatch5pauseEv) for Stopwatch::pause()
    pause.o(i._Z11pause_printRKfRK6XYZvalIfES0_b) refers to planner.o(i._ZN7Planner11synchronizeEv) for Planner::synchronize()
    pause.o(i._Z11pause_printRKfRK6XYZvalIfES0_b) refers to motion.o(i._Z15unscaled_e_moveRKfS0_) for unscaled_e_move(const float&, const float&)
    pause.o(i._Z11pause_printRKfRK6XYZvalIfES0_b) refers to motion.o(i._Z16axes_should_homeh) for axes_should_home(unsigned char)
    pause.o(i._Z11pause_printRKfRK6XYZvalIfES0_b) refers to nozzle.o(i._ZN6Nozzle4parkEhRK6XYZvalIfE) for Nozzle::park(unsigned char, const XYZval<float>&)
    pause.o(i._Z11pause_printRKfRK6XYZvalIfES0_b) refers to pause.o(i._Z15unload_filamentRKfb9PauseMode) for unload_filament(const float&, bool, PauseMode)
    pause.o(i._Z11pause_printRKfRK6XYZvalIfES0_b) refers to pause.o(.data) for did_pause_print
    pause.o(i._Z11pause_printRKfRK6XYZvalIfES0_b) refers to cardreader.o(.data) for CardReader::flag
    pause.o(i._Z11pause_printRKfRK6XYZvalIfES0_b) refers to pause.o(.bss) for resume_position
    pause.o(i._Z11pause_printRKfRK6XYZvalIfES0_b) refers to motion.o(.data) for current_position
    pause.o(i._Z11pause_printRKfRK6XYZvalIfES0_b) refers to temperature.o(.bss) for Temperature::temp_hotend
    pause.o(i._Z11pause_printRKfRK6XYZvalIfES0_b) refers to temperature.o(.data) for Temperature::allow_cold_extrude
    pause.o(i._Z12resume_printRKfS0_S0_as) refers to pause.o(i._ZN11Temperature23reset_hotend_idle_timerEh) for Temperature::reset_hotend_idle_timer(unsigned char)
    pause.o(i._Z12resume_printRKfS0_S0_as) refers to menu_temperature.o(i._ZN11Temperature15setTargetHotendEsh) for Temperature::setTargetHotend(short, unsigned char)
    pause.o(i._Z12resume_printRKfS0_S0_as) refers to pause.o(i._Z13load_filamentRKfS0_S0_abb9PauseMode) for load_filament(const float&, const float&, const float&, signed char, bool, bool, PauseMode)
    pause.o(i._Z12resume_printRKfS0_S0_as) refers to temperature.o(i._ZN11Temperature15wait_for_hotendEhb) for Temperature::wait_for_hotend(unsigned char, bool)
    pause.o(i._Z12resume_printRKfS0_S0_as) refers to menu_filament.o(i._ZN8MarlinUI18pause_show_messageE12PauseMessage9PauseModeh) for MarlinUI::pause_show_message(PauseMessage, PauseMode, unsigned char)
    pause.o(i._Z12resume_printRKfS0_S0_as) refers to pause.o(i._ZN30_INTERNAL_9_pause_cpp_331f730f23ensure_safe_temperatureEb9PauseMode) for [local to pause_cpp]::ensure_safe_temperature(bool, PauseMode)
    pause.o(i._Z12resume_printRKfS0_S0_as) refers to motion.o(i._Z15unscaled_e_moveRKfS0_) for unscaled_e_move(const float&, const float&)
    pause.o(i._Z12resume_printRKfS0_S0_as) refers to motion.o(i._Z16axes_should_homeh) for axes_should_home(unsigned char)
    pause.o(i._Z12resume_printRKfS0_S0_as) refers to motion.o(i._Z22do_blocking_move_to_xyRK5XYvalIfERKf) for do_blocking_move_to_xy(const XYval<float>&, const float&)
    pause.o(i._Z12resume_printRKfS0_S0_as) refers to motion.o(i._Z21do_blocking_move_to_zRKfS0_) for do_blocking_move_to_z(const float&, const float&)
    pause.o(i._Z12resume_printRKfS0_S0_as) refers to planner.o(i._ZN7Planner17set_e_position_mmERKf) for Planner::set_e_position_mm(const float&)
    pause.o(i._Z12resume_printRKfS0_S0_as) refers to powerloss.o(i._ZN16PrintJobRecovery4saveEbf) for PrintJobRecovery::save(bool, float)
    pause.o(i._Z12resume_printRKfS0_S0_as) refers to cardreader.o(i._ZN10CardReader14startFileprintEv) for CardReader::startFileprint()
    pause.o(i._Z12resume_printRKfS0_S0_as) refers to stopwatch.o(i._ZN9Stopwatch5startEv) for Stopwatch::start()
    pause.o(i._Z12resume_printRKfS0_S0_as) refers to marlinui.o(i._ZN8MarlinUI12reset_statusEb) for MarlinUI::reset_status(bool)
    pause.o(i._Z12resume_printRKfS0_S0_as) refers to menu.o(i._ZN8MarlinUI16return_to_statusEv) for MarlinUI::return_to_status()
    pause.o(i._Z12resume_printRKfS0_S0_as) refers to pause.o(.data) for did_pause_print
    pause.o(i._Z12resume_printRKfS0_S0_as) refers to temperature.o(.bss) for Temperature::heater_idle
    pause.o(i._Z12resume_printRKfS0_S0_as) refers to pause.o(.bss) for resume_position
    pause.o(i._Z12resume_printRKfS0_S0_as) refers to motion.o(.data) for current_position
    pause.o(i._Z12resume_printRKfS0_S0_as) refers to motion.o(.bss) for destination
    pause.o(i._Z12resume_printRKfS0_S0_as) refers to powerloss.o(.data) for PrintJobRecovery::enabled
    pause.o(i._Z12resume_printRKfS0_S0_as) refers to runout.o(.data) for FilamentMonitorBase::filament_ran_out
    pause.o(i._Z12resume_printRKfS0_S0_as) refers to stopwatch.o(.data) for Stopwatch::state
    pause.o(i._Z13load_filamentRKfS0_S0_abb9PauseMode) refers to pause.o(i._ZN30_INTERNAL_9_pause_cpp_331f730f23ensure_safe_temperatureEb9PauseMode) for [local to pause_cpp]::ensure_safe_temperature(bool, PauseMode)
    pause.o(i._Z13load_filamentRKfS0_S0_abb9PauseMode) refers to menu_filament.o(i._ZN8MarlinUI18pause_show_messageE12PauseMessage9PauseModeh) for MarlinUI::pause_show_message(PauseMessage, PauseMode, unsigned char)
    pause.o(i._Z13load_filamentRKfS0_S0_abb9PauseMode) refers to serial.o(i._Z17serial_echo_startv) for serial_echo_start()
    pause.o(i._Z13load_filamentRKfS0_S0_abb9PauseMode) refers to serial.o(i._Z14serialprintPGMPKc) for serialprintPGM(const char*)
    pause.o(i._Z13load_filamentRKfS0_S0_abb9PauseMode) refers to pause.o(i._Z20first_impatient_beepa) for first_impatient_beep(signed char)
    pause.o(i._Z13load_filamentRKfS0_S0_abb9PauseMode) refers to pause.o(i._ZN30_INTERNAL_9_pause_cpp_331f730f14impatient_beepEab) for [local to pause_cpp]::impatient_beep(signed char, bool)
    pause.o(i._Z13load_filamentRKfS0_S0_abb9PauseMode) refers to marlincore.o(i._Z4idleb) for idle(bool)
    pause.o(i._Z13load_filamentRKfS0_S0_abb9PauseMode) refers to motion.o(i._Z15unscaled_e_moveRKfS0_) for unscaled_e_move(const float&, const float&)
    pause.o(i._Z13load_filamentRKfS0_S0_abb9PauseMode) refers to marlincore.o(.data) for wait_for_user
    pause.o(i._Z13load_filamentRKfS0_S0_abb9PauseMode) refers to planner.o(.bss) for Planner::settings
    pause.o(i._Z13load_filamentRKfS0_S0_abb9PauseMode) refers to pause.o(.data) for pause_menu_response
    pause.o(i._Z15unload_filamentRKfb9PauseMode) refers to pause.o(i._ZN30_INTERNAL_9_pause_cpp_331f730f23ensure_safe_temperatureEb9PauseMode) for [local to pause_cpp]::ensure_safe_temperature(bool, PauseMode)
    pause.o(i._Z15unload_filamentRKfb9PauseMode) refers to menu_filament.o(i._ZN8MarlinUI18pause_show_messageE12PauseMessage9PauseModeh) for MarlinUI::pause_show_message(PauseMessage, PauseMode, unsigned char)
    pause.o(i._Z15unload_filamentRKfb9PauseMode) refers to motion.o(i._Z15unscaled_e_moveRKfS0_) for unscaled_e_move(const float&, const float&)
    pause.o(i._Z15unload_filamentRKfb9PauseMode) refers to utility.o(i._Z10safe_delayj) for safe_delay(unsigned)
    pause.o(i._Z15unload_filamentRKfb9PauseMode) refers to planner.o(.bss) for Planner::settings
    pause.o(i._Z20show_continue_promptb) refers to menu_filament.o(i._ZN8MarlinUI18pause_show_messageE12PauseMessage9PauseModeh) for MarlinUI::pause_show_message(PauseMessage, PauseMode, unsigned char)
    pause.o(i._Z20show_continue_promptb) refers to serial.o(i._Z17serial_echo_startv) for serial_echo_start()
    pause.o(i._Z20show_continue_promptb) refers to serial.o(i._Z14serialprintPGMPKc) for serialprintPGM(const char*)
    pause.o(i._Z21wait_for_confirmationba) refers to pause.o(i._Z20show_continue_promptb) for show_continue_prompt(bool)
    pause.o(i._Z21wait_for_confirmationba) refers to pause.o(i._Z20first_impatient_beepa) for first_impatient_beep(signed char)
    pause.o(i._Z21wait_for_confirmationba) refers to pause.o(i._ZN30_INTERNAL_9_pause_cpp_331f730f14impatient_beepEab) for [local to pause_cpp]::impatient_beep(signed char, bool)
    pause.o(i._Z21wait_for_confirmationba) refers to menu_filament.o(i._ZN8MarlinUI18pause_show_messageE12PauseMessage9PauseModeh) for MarlinUI::pause_show_message(PauseMessage, PauseMode, unsigned char)
    pause.o(i._Z21wait_for_confirmationba) refers to serial.o(i._Z17serial_echo_startv) for serial_echo_start()
    pause.o(i._Z21wait_for_confirmationba) refers to serial.o(i._Z14serialprintPGMPKc) for serialprintPGM(const char*)
    pause.o(i._Z21wait_for_confirmationba) refers to marlincore.o(i._Z22wait_for_user_responsejb) for wait_for_user_response(unsigned, bool)
    pause.o(i._Z21wait_for_confirmationba) refers to pause.o(i._ZN11Temperature23reset_hotend_idle_timerEh) for Temperature::reset_hotend_idle_timer(unsigned char)
    pause.o(i._Z21wait_for_confirmationba) refers to pause.o(i._ZN30_INTERNAL_9_pause_cpp_331f730f23ensure_safe_temperatureEb9PauseMode) for [local to pause_cpp]::ensure_safe_temperature(bool, PauseMode)
    pause.o(i._Z21wait_for_confirmationba) refers to board_tim0.o(i.millis) for millis
    pause.o(i._Z21wait_for_confirmationba) refers to marlincore.o(i._Z4idleb) for idle(bool)
    pause.o(i._Z21wait_for_confirmationba) refers to marlincore.o(.data) for wait_for_user
    pause.o(i._Z21wait_for_confirmationba) refers to temperature.o(.bss) for Temperature::heater_idle
    pause.o(i._ZN30_INTERNAL_9_pause_cpp_331f730f14impatient_beepEab) refers to board_tim0.o(i.millis) for millis
    pause.o(i._ZN30_INTERNAL_9_pause_cpp_331f730f14impatient_beepEab) refers to buzzer.o(i._ZN6Buzzer4toneEtt) for Buzzer::tone(unsigned short, unsigned short)
    pause.o(i._ZN30_INTERNAL_9_pause_cpp_331f730f14impatient_beepEab) refers to pause.o(.data) for pause_mode
    pause.o(i._ZN30_INTERNAL_9_pause_cpp_331f730f23ensure_safe_temperatureEb9PauseMode) refers to menu_temperature.o(i._ZN11Temperature15setTargetHotendEsh) for Temperature::setTargetHotend(short, unsigned char)
    pause.o(i._ZN30_INTERNAL_9_pause_cpp_331f730f23ensure_safe_temperatureEb9PauseMode) refers to temperature.o(i._ZN11Temperature15wait_for_hotendEhb) for Temperature::wait_for_hotend(unsigned char, bool)
    pause.o(i._ZN30_INTERNAL_9_pause_cpp_331f730f23ensure_safe_temperatureEb9PauseMode) refers to marlincore.o(i._Z4idleb) for idle(bool)
    pause.o(i._ZN30_INTERNAL_9_pause_cpp_331f730f23ensure_safe_temperatureEb9PauseMode) refers to serial.o(i._Z17serial_echo_startv) for serial_echo_start()
    pause.o(i._ZN30_INTERNAL_9_pause_cpp_331f730f23ensure_safe_temperatureEb9PauseMode) refers to serial.o(i._Z14serialprintPGMPKc) for serialprintPGM(const char*)
    pause.o(i._ZN30_INTERNAL_9_pause_cpp_331f730f23ensure_safe_temperatureEb9PauseMode) refers to serial.o(.data) for marlin_debug_flags
    pause.o(i._ZN30_INTERNAL_9_pause_cpp_331f730f23ensure_safe_temperatureEb9PauseMode) refers to temperature.o(.bss) for Temperature::temp_hotend
    pause.o(i._ZN30_INTERNAL_9_pause_cpp_331f730f23ensure_safe_temperatureEb9PauseMode) refers to temperature.o(.data) for Temperature::allow_cold_extrude
    pause.o(i._ZN30_INTERNAL_9_pause_cpp_331f730f23ensure_safe_temperatureEb9PauseMode) refers to marlincore.o(.data) for wait_for_heatup
    pause.o(.ARM.exidx) refers to pause.o(i._ZN30_INTERNAL_9_pause_cpp_331f730f14impatient_beepEab) for i._ZN30_INTERNAL_9_pause_cpp_331f730f14impatient_beepEab
    pause.o(.ARM.exidx) refers to pause.o(i._ZN30_INTERNAL_9_pause_cpp_331f730f23ensure_safe_temperatureEb9PauseMode) for i._ZN30_INTERNAL_9_pause_cpp_331f730f23ensure_safe_temperatureEb9PauseMode
    pause.o(.ARM.exidx) refers to pause.o(i._Z13load_filamentRKfS0_S0_abb9PauseMode) for i._Z13load_filamentRKfS0_S0_abb9PauseMode
    pause.o(.ARM.exidx) refers to pause.o(i._Z15unload_filamentRKfb9PauseMode) for i._Z15unload_filamentRKfb9PauseMode
    pause.o(.ARM.exidx) refers to pause.o(i._Z11pause_printRKfRK6XYZvalIfES0_b) for i._Z11pause_printRKfRK6XYZvalIfES0_b
    pause.o(.ARM.exidx) refers to pause.o(i._Z20show_continue_promptb) for i._Z20show_continue_promptb
    pause.o(.ARM.exidx) refers to pause.o(i._Z21wait_for_confirmationba) for i._Z21wait_for_confirmationba
    pause.o(.ARM.exidx) refers to pause.o(i._Z12resume_printRKfS0_S0_as) for i._Z12resume_printRKfS0_S0_as
    power_monitor.o(i.__sti___17_power_monitor_cpp_21bb0df9) refers to power_monitor.o(.data) for power_monitor
    power_monitor.o(.ARM.exidx) refers to power_monitor.o(i.__sti___17_power_monitor_cpp_21bb0df9) for i.__sti___17_power_monitor_cpp_21bb0df9
    power_monitor.o(.init_array) refers to power_monitor.o(i.__sti___17_power_monitor_cpp_21bb0df9) for __sti___17_power_monitor_cpp_21bb0df9
    power_monitor.o(.init_array) refers to cpp_init.o(.text) for __cpp_initialize__aeabi_
    powerloss.o(i._ZN16PrintJobRecovery4initEv) refers to memseta.o(.text) for __aeabi_memclr4
    powerloss.o(i._ZN16PrintJobRecovery4initEv) refers to powerloss.o(.bss) for PrintJobRecovery::info
    powerloss.o(i._ZN16PrintJobRecovery4loadEv) refers to memmovea.o(.text) for __aeabi_memcpy4
    powerloss.o(i._ZN16PrintJobRecovery4loadEv) refers to powerloss.o(.bss) for PrintJobRecovery::info
    powerloss.o(i._ZN16PrintJobRecovery4saveEbf) refers to f2d.o(.text) for __aeabi_f2d
    powerloss.o(i._ZN16PrintJobRecovery4saveEbf) refers to dadd.o(.text) for __aeabi_dadd
    powerloss.o(i._ZN16PrintJobRecovery4saveEbf) refers to cdrcmple.o(.text) for __aeabi_cdrcmple
    powerloss.o(i._ZN16PrintJobRecovery4saveEbf) refers to stopwatch.o(i._ZN9Stopwatch8durationEv) for Stopwatch::duration()
    powerloss.o(i._ZN16PrintJobRecovery4saveEbf) refers to powerloss.o(i._ZN10CardReader9isMountedEv) for CardReader::isMounted()
    powerloss.o(i._ZN16PrintJobRecovery4saveEbf) refers to powerloss.o(i._ZNK10SdBaseFile6isOpenEv) for SdBaseFile::isOpen() const
    powerloss.o(i._ZN16PrintJobRecovery4saveEbf) refers to powerloss.o(i._ZN16PrintJobRecovery5writeEv) for PrintJobRecovery::write()
    powerloss.o(i._ZN16PrintJobRecovery4saveEbf) refers to powerloss.o(.bss) for PrintJobRecovery::info
    powerloss.o(i._ZN16PrintJobRecovery4saveEbf) refers to motion.o(.data) for current_position
    powerloss.o(i._ZN16PrintJobRecovery4saveEbf) refers to motion.o(.bss) for home_offset
    powerloss.o(i._ZN16PrintJobRecovery4saveEbf) refers to parser.o(.data) for GCodeParser::volumetric_enabled
    powerloss.o(i._ZN16PrintJobRecovery4saveEbf) refers to planner.o(.data) for Planner::filament_size
    powerloss.o(i._ZN16PrintJobRecovery4saveEbf) refers to temperature.o(.bss) for Temperature::temp_hotend
    powerloss.o(i._ZN16PrintJobRecovery4saveEbf) refers to temperature.o(.data) for Temperature::fan_speed
    powerloss.o(i._ZN16PrintJobRecovery4saveEbf) refers to cardreader.o(.bss) for CardReader::file
    powerloss.o(i._ZN16PrintJobRecovery4saveEbf) refers to cardreader.o(.data) for CardReader::filesize
    powerloss.o(i._ZN16PrintJobRecovery4saveEbf) refers to gcode.o(.data) for GcodeSuite::axis_relative
    powerloss.o(i._ZN16PrintJobRecovery4saveEbf) refers to serial.o(.data) for marlin_debug_flags
    powerloss.o(i._ZN16PrintJobRecovery5checkEv) refers to powerloss.o(i._ZN10CardReader9isMountedEv) for CardReader::isMounted()
    powerloss.o(i._ZN16PrintJobRecovery5checkEv) refers to powerloss.o(i._ZN16PrintJobRecovery4loadEv) for PrintJobRecovery::load()
    powerloss.o(i._ZN16PrintJobRecovery5checkEv) refers to cardreader.o(i._ZN10CardReader10fileExistsEPKc) for CardReader::fileExists(const char*)
    powerloss.o(i._ZN16PrintJobRecovery5checkEv) refers to powerloss.o(i._ZN16PrintJobRecovery5purgeEv) for PrintJobRecovery::purge()
    powerloss.o(i._ZN16PrintJobRecovery5checkEv) refers to gcode.o(i._ZN10GcodeSuite25process_subcommands_now_PEPKc) for GcodeSuite::process_subcommands_now_P(const char*)
    powerloss.o(i._ZN16PrintJobRecovery5checkEv) refers to powerloss.o(.bss) for PrintJobRecovery::info
    powerloss.o(i._ZN16PrintJobRecovery5debugEPKc) refers to powerloss.o(.bss) for PrintJobRecovery::info
    powerloss.o(i._ZN16PrintJobRecovery5purgeEv) refers to eeprom_flash.o(i._ZN15PersistentStore14FLASH_If_EraseEjj) for PersistentStore::FLASH_If_Erase(unsigned, unsigned)
    powerloss.o(i._ZN16PrintJobRecovery5purgeEv) refers to memseta.o(.text) for __aeabi_memclr4
    powerloss.o(i._ZN16PrintJobRecovery5purgeEv) refers to powerloss.o(.bss) for PrintJobRecovery::info
    powerloss.o(i._ZN16PrintJobRecovery5writeEv) refers to eeprom_flash.o(i._ZN15PersistentStore14FLASH_If_WriteEjPKvj) for PersistentStore::FLASH_If_Write(unsigned, const void*, unsigned)
    powerloss.o(i._ZN16PrintJobRecovery5writeEv) refers to serial.o(i._Z14serialprintPGMPKc) for serialprintPGM(const char*)
    powerloss.o(i._ZN16PrintJobRecovery5writeEv) refers to powerloss.o(.bss) for PrintJobRecovery::info
    powerloss.o(i._ZN16PrintJobRecovery6enableEb) refers to powerloss.o(i._ZN16PrintJobRecovery7changedEv) for PrintJobRecovery::changed()
    powerloss.o(i._ZN16PrintJobRecovery6enableEb) refers to powerloss.o(.data) for PrintJobRecovery::enabled
    powerloss.o(i._ZN16PrintJobRecovery6outageEv) refers to powerloss.o(i._ZN16PrintJobRecovery7_outageEv) for PrintJobRecovery::_outage()
    powerloss.o(i._ZN16PrintJobRecovery6outageEv) refers to powerloss.o(.data) for PrintJobRecovery::enabled
    powerloss.o(i._ZN16PrintJobRecovery6outageEv) refers to power_monitor.o(.data) for PowerMonitor::volts
    powerloss.o(i._ZN16PrintJobRecovery6resumeEv) refers to gcode.o(i._ZN10GcodeSuite25process_subcommands_now_PEPKc) for GcodeSuite::process_subcommands_now_P(const char*)
    powerloss.o(i._ZN16PrintJobRecovery6resumeEv) refers to printfa.o(i.__0sprintf) for __2sprintf
    powerloss.o(i._ZN16PrintJobRecovery6resumeEv) refers to gcode.o(i._ZN10GcodeSuite23process_subcommands_nowEPc) for GcodeSuite::process_subcommands_now(char*)
    powerloss.o(i._ZN16PrintJobRecovery6resumeEv) refers to f2d.o(.text) for __aeabi_f2d
    powerloss.o(i._ZN16PrintJobRecovery6resumeEv) refers to dtostrf.o(i._Z7dtostrfdahPc) for dtostrf(double, signed char, unsigned char, char*)
    powerloss.o(i._ZN16PrintJobRecovery6resumeEv) refers to motion.o(i._Z23update_workspace_offset8AxisEnum) for update_workspace_offset(AxisEnum)
    powerloss.o(i._ZN16PrintJobRecovery6resumeEv) refers to powerloss.o(i._ZN16PrintJobRecovery6enableEb) for PrintJobRecovery::enable(bool)
    powerloss.o(i._ZN16PrintJobRecovery6resumeEv) refers to powerloss.o(.bss) for PrintJobRecovery::info
    powerloss.o(i._ZN16PrintJobRecovery6resumeEv) refers to serial.o(.data) for marlin_debug_flags
    powerloss.o(i._ZN16PrintJobRecovery6resumeEv) refers to temperature.o(.data) for Temperature::allow_cold_extrude
    powerloss.o(i._ZN16PrintJobRecovery6resumeEv) refers to motion.o(.data) for axis_trusted
    powerloss.o(i._ZN16PrintJobRecovery6resumeEv) refers to motion.o(.bss) for home_offset
    powerloss.o(i._ZN16PrintJobRecovery6resumeEv) refers to gcode.o(.data) for GcodeSuite::axis_relative
    powerloss.o(i._ZN16PrintJobRecovery6resumeEv) refers to marlincore.o(.constdata) for M23_STR
    powerloss.o(i._ZN16PrintJobRecovery7_outageEv) refers to softwareserial.o(i.PORT_ResetBitsMapp) for PORT_ResetBitsMapp
    powerloss.o(i._ZN16PrintJobRecovery7_outageEv) refers to softwareserial.o(i.PORT_SetBitsMapp) for PORT_SetBitsMapp
    powerloss.o(i._ZN16PrintJobRecovery7_outageEv) refers to powerloss.o(i._ZN16PrintJobRecovery4saveEbf) for PrintJobRecovery::save(bool, float)
    powerloss.o(i._ZN16PrintJobRecovery7_outageEv) refers to temperature.o(i._ZN11Temperature19disable_all_heatersEv) for Temperature::disable_all_heaters()
    powerloss.o(i._ZN16PrintJobRecovery7_outageEv) refers to marlincore.o(i._Z7minkillb) for minkill(bool)
    powerloss.o(i._ZN16PrintJobRecovery7_outageEv) refers to cardreader.o(.data) for CardReader::flag
    powerloss.o(i._ZN16PrintJobRecovery7changedEv) refers to powerloss.o(i._ZN16PrintJobRecovery5purgeEv) for PrintJobRecovery::purge()
    powerloss.o(i._ZN16PrintJobRecovery7changedEv) refers to powerloss.o(i._ZN16PrintJobRecovery4saveEbf) for PrintJobRecovery::save(bool, float)
    powerloss.o(i._ZN16PrintJobRecovery7changedEv) refers to powerloss.o(.data) for PrintJobRecovery::enabled
    powerloss.o(i._ZN16PrintJobRecovery7changedEv) refers to cardreader.o(.data) for CardReader::flag
    powerloss.o(i._ZN16PrintJobRecovery7prepareEv) refers to cardreader.o(i._ZN10CardReader14getAbsFilenameEPc) for CardReader::getAbsFilename(char*)
    powerloss.o(i._ZN16PrintJobRecovery7prepareEv) refers to powerloss.o(.bss) for PrintJobRecovery::info
    powerloss.o(i._ZN16PrintJobRecovery7prepareEv) refers to powerloss.o(.data) for PrintJobRecovery::cmd_sdpos
    powerloss.o(i.__sti___13_powerloss_cpp_1e506b3c) refers to aeabi_atexit.o(.text) for __aeabi_atexit
    powerloss.o(i.__sti___13_powerloss_cpp_1e506b3c) refers to powerloss.o(.bss) for PrintJobRecovery::file
    powerloss.o(i.__sti___13_powerloss_cpp_1e506b3c) refers to powerloss.o(i._ZN6SdFileD1Ev) for SdFile::~SdFile()
    powerloss.o(.ARM.exidx) refers to powerloss.o(i._ZN16PrintJobRecovery4initEv) for i._ZN16PrintJobRecovery4initEv
    powerloss.o(.ARM.exidx) refers to powerloss.o(i._ZN16PrintJobRecovery7prepareEv) for i._ZN16PrintJobRecovery7prepareEv
    powerloss.o(.ARM.exidx) refers to powerloss.o(i._ZN16PrintJobRecovery5writeEv) for i._ZN16PrintJobRecovery5writeEv
    powerloss.o(.ARM.exidx) refers to powerloss.o(i._ZN16PrintJobRecovery4saveEbf) for i._ZN16PrintJobRecovery4saveEbf
    powerloss.o(.ARM.exidx) refers to powerloss.o(i._ZN16PrintJobRecovery5purgeEv) for i._ZN16PrintJobRecovery5purgeEv
    powerloss.o(.ARM.exidx) refers to powerloss.o(i._ZN16PrintJobRecovery7changedEv) for i._ZN16PrintJobRecovery7changedEv
    powerloss.o(.ARM.exidx) refers to powerloss.o(i._ZN16PrintJobRecovery6enableEb) for i._ZN16PrintJobRecovery6enableEb
    powerloss.o(.ARM.exidx) refers to powerloss.o(i._ZN16PrintJobRecovery4loadEv) for i._ZN16PrintJobRecovery4loadEv
    powerloss.o(.ARM.exidx) refers to powerloss.o(i._ZN16PrintJobRecovery5checkEv) for i._ZN16PrintJobRecovery5checkEv
    powerloss.o(.ARM.exidx) refers to powerloss.o(i._ZN16PrintJobRecovery6resumeEv) for i._ZN16PrintJobRecovery6resumeEv
    powerloss.o(.ARM.exidx) refers to powerloss.o(i._ZN16PrintJobRecovery7_outageEv) for i._ZN16PrintJobRecovery7_outageEv
    powerloss.o(.ARM.exidx) refers to powerloss.o(i._ZN16PrintJobRecovery6outageEv) for i._ZN16PrintJobRecovery6outageEv
    powerloss.o(.ARM.exidx) refers to powerloss.o(i._ZN16PrintJobRecovery7adc_rawEv) for i._ZN16PrintJobRecovery7adc_rawEv
    powerloss.o(.ARM.exidx) refers to powerloss.o(i._ZN16PrintJobRecovery5debugEPKc) for i._ZN16PrintJobRecovery5debugEPKc
    powerloss.o(.ARM.exidx) refers to powerloss.o(i.__sti___13_powerloss_cpp_1e506b3c) for i.__sti___13_powerloss_cpp_1e506b3c
    powerloss.o(.init_array) refers to powerloss.o(i.__sti___13_powerloss_cpp_1e506b3c) for __sti___13_powerloss_cpp_1e506b3c
    powerloss.o(.init_array) refers to cpp_init.o(.text) for __cpp_initialize__aeabi_
    repeat.o(i._ZN6Repeat10add_markerEjt) refers to serial.o(i._Z17serial_echo_startv) for serial_echo_start()
    repeat.o(i._ZN6Repeat10add_markerEjt) refers to serial.o(i._Z14serialprintPGMPKc) for serialprintPGM(const char*)
    repeat.o(i._ZN6Repeat10add_markerEjt) refers to repeat.o(.data) for Repeat::index
    repeat.o(i._ZN6Repeat10add_markerEjt) refers to repeat.o(.bss) for Repeat::marker
    repeat.o(i._ZN6Repeat16early_parse_M808EPc) refers to parser.o(i._ZN11GCodeParser5parseEPc) for GCodeParser::parse(char*)
    repeat.o(i._ZN6Repeat16early_parse_M808EPc) refers to repeat.o(i._ZN11GCodeParser4seenEc) for GCodeParser::seen(char)
    repeat.o(i._ZN6Repeat16early_parse_M808EPc) refers to strtol.o(.text) for strtol
    repeat.o(i._ZN6Repeat16early_parse_M808EPc) refers to repeat.o(i._ZN6Repeat10add_markerEjt) for Repeat::add_marker(unsigned, unsigned short)
    repeat.o(i._ZN6Repeat16early_parse_M808EPc) refers to repeat.o(i._ZN6Repeat4loopEv) for Repeat::loop()
    repeat.o(i._ZN6Repeat16early_parse_M808EPc) refers to parser.o(.data) for GCodeParser::value_ptr
    repeat.o(i._ZN6Repeat16early_parse_M808EPc) refers to cardreader.o(.data) for CardReader::sdpos
    repeat.o(i._ZN6Repeat4loopEv) refers to serial.o(i._Z17serial_echo_startv) for serial_echo_start()
    repeat.o(i._ZN6Repeat4loopEv) refers to serial.o(i._Z14serialprintPGMPKc) for serialprintPGM(const char*)
    repeat.o(i._ZN6Repeat4loopEv) refers to sdbasefile.o(i._ZN10SdBaseFile7seekSetEj) for SdBaseFile::seekSet(unsigned)
    repeat.o(i._ZN6Repeat4loopEv) refers to repeat.o(.data) for Repeat::index
    repeat.o(i._ZN6Repeat4loopEv) refers to repeat.o(.bss) for Repeat::marker
    repeat.o(i._ZN6Repeat4loopEv) refers to cardreader.o(.data) for CardReader::sdpos
    repeat.o(i._ZN6Repeat4loopEv) refers to cardreader.o(.bss) for CardReader::file
    repeat.o(i._ZN6Repeat6cancelEv) refers to repeat.o(.bss) for Repeat::marker
    repeat.o(i._ZN6Repeat6cancelEv) refers to repeat.o(.data) for Repeat::index
    repeat.o(.ARM.exidx) refers to repeat.o(i._ZN6Repeat4loopEv) for i._ZN6Repeat4loopEv
    repeat.o(.ARM.exidx) refers to repeat.o(i._ZN6Repeat10add_markerEjt) for i._ZN6Repeat10add_markerEjt
    repeat.o(.ARM.exidx) refers to repeat.o(i._ZN6Repeat16early_parse_M808EPc) for i._ZN6Repeat16early_parse_M808EPc
    repeat.o(.ARM.exidx) refers to repeat.o(i._ZN6Repeat6cancelEv) for i._ZN6Repeat6cancelEv
    runout.o(i._Z21event_filament_runoutv) refers to pause.o(.data) for did_pause_print
    runout.o(i._Z21event_filament_runoutv) refers to queue.o(.data) for GCodeQueue::injected_commands_P
    runout.o(.ARM.exidx) refers to runout.o(i._Z21event_filament_runoutv) for i._Z21event_filament_runoutv
    tmc_util.o(i._Z14tmc_report_allbbbb) refers to serial.o(i._Z14serialprintPGMPKc) for serialprintPGM(const char*)
    tmc_util.o(i._Z14tmc_report_allbbbb) refers to tmc_util.o(i._ZN34_INTERNAL_12_tmc_util_cpp_7d630fea14tmc_debug_loopE14TMC_debug_enumbbbb) for [local to tmc_util_cpp]::tmc_debug_loop(TMC_debug_enum, bool, bool, bool, bool)
    tmc_util.o(i._Z14tmc_report_allbbbb) refers to tmc_util.o(i._ZN34_INTERNAL_12_tmc_util_cpp_7d630fea15drv_status_loopE19TMC_drv_status_enumbbbb) for [local to tmc_util_cpp]::drv_status_loop(TMC_drv_status_enum, bool, bool, bool, bool)
    tmc_util.o(i._Z14tmc_report_allbbbb) refers to marlincore.o(i._ZN14HardwareSerial5writeEi) for HardwareSerial::write(int)
    tmc_util.o(i._Z14tmc_report_allbbbb) refers to board_gpio.o(.bss) for Serial2
    tmc_util.o(i._Z17tmc_get_registersbbbb) refers to serial.o(i._Z14serialprintPGMPKc) for serialprintPGM(const char*)
    tmc_util.o(i._Z17tmc_get_registersbbbb) refers to tmc_util.o(i._ZN34_INTERNAL_12_tmc_util_cpp_7d630fea17tmc_get_registersE22TMC_get_registers_enumbbbb) for [local to tmc_util_cpp]::tmc_get_registers(TMC_get_registers_enum, bool, bool, bool, bool)
    tmc_util.o(i._Z19monitor_tmc_driversv) refers to board_tim0.o(i.millis) for millis
    tmc_util.o(i._Z19monitor_tmc_driversv) refers to tmc_util.o(t._Z18monitor_tmc_driverI9TMCMarlinI14TMC2208StepperLc88ELc48EL8AxisEnum0EEEbRT_bb) for bool monitor_tmc_driver<TMCMarlin<TMC2208Stepper, (char)88, (char)48, (AxisEnum)0>>(T1&, bool, bool)
    tmc_util.o(i._Z19monitor_tmc_driversv) refers to tmc_util.o(t._Z17step_current_downI9TMCMarlinI14TMC2208StepperLc88ELc48EL8AxisEnum0EEEvRT_) for void step_current_down<TMCMarlin<TMC2208Stepper, (char)88, (char)48, (AxisEnum)0>>(T1&)
    tmc_util.o(i._Z19monitor_tmc_driversv) refers to tmc_util.o(t._Z18monitor_tmc_driverI9TMCMarlinI14TMC2208StepperLc89ELc48EL8AxisEnum1EEEbRT_bb) for bool monitor_tmc_driver<TMCMarlin<TMC2208Stepper, (char)89, (char)48, (AxisEnum)1>>(T1&, bool, bool)
    tmc_util.o(i._Z19monitor_tmc_driversv) refers to tmc_util.o(t._Z17step_current_downI9TMCMarlinI14TMC2208StepperLc89ELc48EL8AxisEnum1EEEvRT_) for void step_current_down<TMCMarlin<TMC2208Stepper, (char)89, (char)48, (AxisEnum)1>>(T1&)
    tmc_util.o(i._Z19monitor_tmc_driversv) refers to tmc_util.o(t._Z18monitor_tmc_driverI9TMCMarlinI14TMC2208StepperLc90ELc48EL8AxisEnum2EEEbRT_bb) for bool monitor_tmc_driver<TMCMarlin<TMC2208Stepper, (char)90, (char)48, (AxisEnum)2>>(T1&, bool, bool)
    tmc_util.o(i._Z19monitor_tmc_driversv) refers to tmc_util.o(t._Z17step_current_downI9TMCMarlinI14TMC2208StepperLc90ELc48EL8AxisEnum2EEEvRT_) for void step_current_down<TMCMarlin<TMC2208Stepper, (char)90, (char)48, (AxisEnum)2>>(T1&)
    tmc_util.o(i._Z19monitor_tmc_driversv) refers to tmc_util.o(t._Z18monitor_tmc_driverI9TMCMarlinI14TMC2208StepperLc69ELc48EL8AxisEnum3EEEbRT_bb) for bool monitor_tmc_driver<TMCMarlin<TMC2208Stepper, (char)69, (char)48, (AxisEnum)3>>(T1&, bool, bool)
    tmc_util.o(i._Z19monitor_tmc_driversv) refers to marlincore.o(i._ZN14HardwareSerial5writeEi) for HardwareSerial::write(int)
    tmc_util.o(i._Z19monitor_tmc_driversv) refers to tmc_util.o(.data) for monitor_tmc_drivers()::next_poll
    tmc_util.o(i._Z19monitor_tmc_driversv) refers to trinamic.o(.bss) for stepperX
    tmc_util.o(i._Z19monitor_tmc_driversv) refers to board_gpio.o(.bss) for Serial2
    tmc_util.o(i._Z19report_driver_errorRK15TMC_driver_data) refers to serial.o(i._Z14serialprintPGMPKc) for serialprintPGM(const char*)
    tmc_util.o(i._Z19report_driver_errorRK15TMC_driver_data) refers to print.o(i._ZN5Print7printlnEji) for Print::println(unsigned, int)
    tmc_util.o(i._Z19report_driver_errorRK15TMC_driver_data) refers to tmc_util.o(i._Z14tmc_report_allbbbb) for tmc_report_all(bool, bool, bool, bool)
    tmc_util.o(i._Z19report_driver_errorRK15TMC_driver_data) refers to marlincore.o(i._Z4killPKcS0_b) for kill(const char*, const char*, bool)
    tmc_util.o(i._Z19report_driver_errorRK15TMC_driver_data) refers to board_gpio.o(.bss) for Serial2
    tmc_util.o(i._Z19test_tmc_connectionbbbb) refers to tmc_util.o(t._ZN34_INTERNAL_12_tmc_util_cpp_7d630fea15test_connectionI9TMCMarlinI14TMC2208StepperLc88ELc48EL8AxisEnum0EEEEbRT_) for bool [local to tmc_util_cpp]::test_connection<TMCMarlin<TMC2208Stepper, (char)88, (char)48, (AxisEnum)0>>(T1&)
    tmc_util.o(i._Z19test_tmc_connectionbbbb) refers to tmc_util.o(t._ZN34_INTERNAL_12_tmc_util_cpp_7d630fea15test_connectionI9TMCMarlinI14TMC2208StepperLc89ELc48EL8AxisEnum1EEEEbRT_) for bool [local to tmc_util_cpp]::test_connection<TMCMarlin<TMC2208Stepper, (char)89, (char)48, (AxisEnum)1>>(T1&)
    tmc_util.o(i._Z19test_tmc_connectionbbbb) refers to tmc_util.o(t._ZN34_INTERNAL_12_tmc_util_cpp_7d630fea15test_connectionI9TMCMarlinI14TMC2208StepperLc90ELc48EL8AxisEnum2EEEEbRT_) for bool [local to tmc_util_cpp]::test_connection<TMCMarlin<TMC2208Stepper, (char)90, (char)48, (AxisEnum)2>>(T1&)
    tmc_util.o(i._Z19test_tmc_connectionbbbb) refers to tmc_util.o(t._ZN34_INTERNAL_12_tmc_util_cpp_7d630fea15test_connectionI9TMCMarlinI14TMC2208StepperLc69ELc48EL8AxisEnum3EEEEbRT_) for bool [local to tmc_util_cpp]::test_connection<TMCMarlin<TMC2208Stepper, (char)69, (char)48, (AxisEnum)3>>(T1&)
    tmc_util.o(i._Z19test_tmc_connectionbbbb) refers to trinamic.o(.bss) for stepperX
    tmc_util.o(i._Z23tmc_set_report_intervalt) refers to serial.o(i._Z14serialprintPGMPKc) for serialprintPGM(const char*)
    tmc_util.o(i._Z23tmc_set_report_intervalt) refers to tmc_util.o(.data) for report_tmc_status_interval
    tmc_util.o(i._ZN34_INTERNAL_12_tmc_util_cpp_7d630fea11_tmc_statusER14TMC2208Stepper14TMC_debug_enum) refers to tmc2208stepper.o(i._ZN14TMC2208Stepper13pwm_scale_sumEv) for TMC2208Stepper::pwm_scale_sum()
    tmc_util.o(i._ZN34_INTERNAL_12_tmc_util_cpp_7d630fea11_tmc_statusER14TMC2208Stepper14TMC_debug_enum) refers to print.o(i._ZN5Print5printEhi) for Print::print(unsigned char, int)
    tmc_util.o(i._ZN34_INTERNAL_12_tmc_util_cpp_7d630fea11_tmc_statusER14TMC2208Stepper14TMC_debug_enum) refers to tmc2208stepper.o(i._ZN14TMC2208Stepper14pwm_scale_autoEv) for TMC2208Stepper::pwm_scale_auto()
    tmc_util.o(i._ZN34_INTERNAL_12_tmc_util_cpp_7d630fea11_tmc_statusER14TMC2208Stepper14TMC_debug_enum) refers to print.o(i._ZN5Print5printEii) for Print::print(int, int)
    tmc_util.o(i._ZN34_INTERNAL_12_tmc_util_cpp_7d630fea11_tmc_statusER14TMC2208Stepper14TMC_debug_enum) refers to tmc2208stepper.o(i._ZN14TMC2208Stepper12pwm_ofs_autoEv) for TMC2208Stepper::pwm_ofs_auto()
    tmc_util.o(i._ZN34_INTERNAL_12_tmc_util_cpp_7d630fea11_tmc_statusER14TMC2208Stepper14TMC_debug_enum) refers to tmc2208stepper.o(i._ZN14TMC2208Stepper13pwm_grad_autoEv) for TMC2208Stepper::pwm_grad_auto()
    tmc_util.o(i._ZN34_INTERNAL_12_tmc_util_cpp_7d630fea11_tmc_statusER14TMC2208Stepper14TMC_debug_enum) refers to drv_status.o(i._ZN14TMC2208Stepper7stealthEv) for TMC2208Stepper::stealth()
    tmc_util.o(i._ZN34_INTERNAL_12_tmc_util_cpp_7d630fea11_tmc_statusER14TMC2208Stepper14TMC_debug_enum) refers to serial.o(i._Z21serialprint_truefalseb) for serialprint_truefalse(bool)
    tmc_util.o(i._ZN34_INTERNAL_12_tmc_util_cpp_7d630fea11_tmc_statusER14TMC2208Stepper14TMC_debug_enum) refers to drv_status.o(i._ZN14TMC2208Stepper5s2vsaEv) for TMC2208Stepper::s2vsa()
    tmc_util.o(i._ZN34_INTERNAL_12_tmc_util_cpp_7d630fea11_tmc_statusER14TMC2208Stepper14TMC_debug_enum) refers to marlincore.o(i._ZN14HardwareSerial5writeEi) for HardwareSerial::write(int)
    tmc_util.o(i._ZN34_INTERNAL_12_tmc_util_cpp_7d630fea11_tmc_statusER14TMC2208Stepper14TMC_debug_enum) refers to drv_status.o(i._ZN14TMC2208Stepper5s2vsbEv) for TMC2208Stepper::s2vsb()
    tmc_util.o(i._ZN34_INTERNAL_12_tmc_util_cpp_7d630fea11_tmc_statusER14TMC2208Stepper14TMC_debug_enum) refers to chopconf.o(i._ZN14TMC2208Stepper6intpolEv) for TMC2208Stepper::intpol()
    tmc_util.o(i._ZN34_INTERNAL_12_tmc_util_cpp_7d630fea11_tmc_statusER14TMC2208Stepper14TMC_debug_enum) refers to board_gpio.o(.bss) for Serial2
    tmc_util.o(i._ZN34_INTERNAL_12_tmc_util_cpp_7d630fea13get_pwm_scaleER14TMC2208Stepper) refers to tmc2208stepper.o(i._ZN14TMC2208Stepper13pwm_scale_sumEv) for TMC2208Stepper::pwm_scale_sum()
    tmc_util.o(i._ZN34_INTERNAL_12_tmc_util_cpp_7d630fea14tmc_debug_loopE14TMC_debug_enumbbbb) refers to tmc_util.o(t._ZN34_INTERNAL_12_tmc_util_cpp_7d630fea10tmc_statusI9TMCMarlinI14TMC2208StepperLc88ELc48EL8AxisEnum0EEEEvRT_14TMC_debug_enum) for void [local to tmc_util_cpp]::tmc_status<TMCMarlin<TMC2208Stepper, (char)88, (char)48, (AxisEnum)0>>(T1&, TMC_debug_enum)
    tmc_util.o(i._ZN34_INTERNAL_12_tmc_util_cpp_7d630fea14tmc_debug_loopE14TMC_debug_enumbbbb) refers to tmc_util.o(t._ZN34_INTERNAL_12_tmc_util_cpp_7d630fea10tmc_statusI9TMCMarlinI14TMC2208StepperLc89ELc48EL8AxisEnum1EEEEvRT_14TMC_debug_enum) for void [local to tmc_util_cpp]::tmc_status<TMCMarlin<TMC2208Stepper, (char)89, (char)48, (AxisEnum)1>>(T1&, TMC_debug_enum)
    tmc_util.o(i._ZN34_INTERNAL_12_tmc_util_cpp_7d630fea14tmc_debug_loopE14TMC_debug_enumbbbb) refers to tmc_util.o(t._ZN34_INTERNAL_12_tmc_util_cpp_7d630fea10tmc_statusI9TMCMarlinI14TMC2208StepperLc90ELc48EL8AxisEnum2EEEEvRT_14TMC_debug_enum) for void [local to tmc_util_cpp]::tmc_status<TMCMarlin<TMC2208Stepper, (char)90, (char)48, (AxisEnum)2>>(T1&, TMC_debug_enum)
    tmc_util.o(i._ZN34_INTERNAL_12_tmc_util_cpp_7d630fea14tmc_debug_loopE14TMC_debug_enumbbbb) refers to tmc_util.o(t._ZN34_INTERNAL_12_tmc_util_cpp_7d630fea10tmc_statusI9TMCMarlinI14TMC2208StepperLc69ELc48EL8AxisEnum3EEEEvRT_14TMC_debug_enum) for void [local to tmc_util_cpp]::tmc_status<TMCMarlin<TMC2208Stepper, (char)69, (char)48, (AxisEnum)3>>(T1&, TMC_debug_enum)
    tmc_util.o(i._ZN34_INTERNAL_12_tmc_util_cpp_7d630fea14tmc_debug_loopE14TMC_debug_enumbbbb) refers to marlincore.o(i._ZN14HardwareSerial5writeEi) for HardwareSerial::write(int)
    tmc_util.o(i._ZN34_INTERNAL_12_tmc_util_cpp_7d630fea14tmc_debug_loopE14TMC_debug_enumbbbb) refers to trinamic.o(.bss) for stepperX
    tmc_util.o(i._ZN34_INTERNAL_12_tmc_util_cpp_7d630fea14tmc_debug_loopE14TMC_debug_enumbbbb) refers to board_gpio.o(.bss) for Serial2
    tmc_util.o(i._ZN34_INTERNAL_12_tmc_util_cpp_7d630fea15drv_status_loopE19TMC_drv_status_enumbbbb) refers to tmc_util.o(t._ZN34_INTERNAL_12_tmc_util_cpp_7d630fea20tmc_parse_drv_statusI9TMCMarlinI14TMC2208StepperLc88ELc48EL8AxisEnum0EEEEvRT_19TMC_drv_status_enum) for void [local to tmc_util_cpp]::tmc_parse_drv_status<TMCMarlin<TMC2208Stepper, (char)88, (char)48, (AxisEnum)0>>(T1&, TMC_drv_status_enum)
    tmc_util.o(i._ZN34_INTERNAL_12_tmc_util_cpp_7d630fea15drv_status_loopE19TMC_drv_status_enumbbbb) refers to tmc_util.o(t._ZN34_INTERNAL_12_tmc_util_cpp_7d630fea20tmc_parse_drv_statusI9TMCMarlinI14TMC2208StepperLc89ELc48EL8AxisEnum1EEEEvRT_19TMC_drv_status_enum) for void [local to tmc_util_cpp]::tmc_parse_drv_status<TMCMarlin<TMC2208Stepper, (char)89, (char)48, (AxisEnum)1>>(T1&, TMC_drv_status_enum)
    tmc_util.o(i._ZN34_INTERNAL_12_tmc_util_cpp_7d630fea15drv_status_loopE19TMC_drv_status_enumbbbb) refers to tmc_util.o(t._ZN34_INTERNAL_12_tmc_util_cpp_7d630fea20tmc_parse_drv_statusI9TMCMarlinI14TMC2208StepperLc90ELc48EL8AxisEnum2EEEEvRT_19TMC_drv_status_enum) for void [local to tmc_util_cpp]::tmc_parse_drv_status<TMCMarlin<TMC2208Stepper, (char)90, (char)48, (AxisEnum)2>>(T1&, TMC_drv_status_enum)
    tmc_util.o(i._ZN34_INTERNAL_12_tmc_util_cpp_7d630fea15drv_status_loopE19TMC_drv_status_enumbbbb) refers to tmc_util.o(t._ZN34_INTERNAL_12_tmc_util_cpp_7d630fea20tmc_parse_drv_statusI9TMCMarlinI14TMC2208StepperLc69ELc48EL8AxisEnum3EEEEvRT_19TMC_drv_status_enum) for void [local to tmc_util_cpp]::tmc_parse_drv_status<TMCMarlin<TMC2208Stepper, (char)69, (char)48, (AxisEnum)3>>(T1&, TMC_drv_status_enum)
    tmc_util.o(i._ZN34_INTERNAL_12_tmc_util_cpp_7d630fea15drv_status_loopE19TMC_drv_status_enumbbbb) refers to marlincore.o(i._ZN14HardwareSerial5writeEi) for HardwareSerial::write(int)
    tmc_util.o(i._ZN34_INTERNAL_12_tmc_util_cpp_7d630fea15drv_status_loopE19TMC_drv_status_enumbbbb) refers to trinamic.o(.bss) for stepperX
    tmc_util.o(i._ZN34_INTERNAL_12_tmc_util_cpp_7d630fea15drv_status_loopE19TMC_drv_status_enumbbbb) refers to board_gpio.o(.bss) for Serial2
    tmc_util.o(i._ZN34_INTERNAL_12_tmc_util_cpp_7d630fea17tmc_get_registersE22TMC_get_registers_enumbbbb) refers to tmc_util.o(t._ZN34_INTERNAL_12_tmc_util_cpp_7d630fea17tmc_get_registersI9TMCMarlinI14TMC2208StepperLc88ELc48EL8AxisEnum0EEEEvRT_22TMC_get_registers_enum) for void [local to tmc_util_cpp]::tmc_get_registers<TMCMarlin<TMC2208Stepper, (char)88, (char)48, (AxisEnum)0>>(T1&, TMC_get_registers_enum)
    tmc_util.o(i._ZN34_INTERNAL_12_tmc_util_cpp_7d630fea17tmc_get_registersE22TMC_get_registers_enumbbbb) refers to tmc_util.o(t._ZN34_INTERNAL_12_tmc_util_cpp_7d630fea17tmc_get_registersI9TMCMarlinI14TMC2208StepperLc89ELc48EL8AxisEnum1EEEEvRT_22TMC_get_registers_enum) for void [local to tmc_util_cpp]::tmc_get_registers<TMCMarlin<TMC2208Stepper, (char)89, (char)48, (AxisEnum)1>>(T1&, TMC_get_registers_enum)
    tmc_util.o(i._ZN34_INTERNAL_12_tmc_util_cpp_7d630fea17tmc_get_registersE22TMC_get_registers_enumbbbb) refers to tmc_util.o(t._ZN34_INTERNAL_12_tmc_util_cpp_7d630fea17tmc_get_registersI9TMCMarlinI14TMC2208StepperLc90ELc48EL8AxisEnum2EEEEvRT_22TMC_get_registers_enum) for void [local to tmc_util_cpp]::tmc_get_registers<TMCMarlin<TMC2208Stepper, (char)90, (char)48, (AxisEnum)2>>(T1&, TMC_get_registers_enum)
    tmc_util.o(i._ZN34_INTERNAL_12_tmc_util_cpp_7d630fea17tmc_get_registersE22TMC_get_registers_enumbbbb) refers to tmc_util.o(t._ZN34_INTERNAL_12_tmc_util_cpp_7d630fea17tmc_get_registersI9TMCMarlinI14TMC2208StepperLc69ELc48EL8AxisEnum3EEEEvRT_22TMC_get_registers_enum) for void [local to tmc_util_cpp]::tmc_get_registers<TMCMarlin<TMC2208Stepper, (char)69, (char)48, (AxisEnum)3>>(T1&, TMC_get_registers_enum)
    tmc_util.o(i._ZN34_INTERNAL_12_tmc_util_cpp_7d630fea17tmc_get_registersE22TMC_get_registers_enumbbbb) refers to marlincore.o(i._ZN14HardwareSerial5writeEi) for HardwareSerial::write(int)
    tmc_util.o(i._ZN34_INTERNAL_12_tmc_util_cpp_7d630fea17tmc_get_registersE22TMC_get_registers_enumbbbb) refers to trinamic.o(.bss) for stepperX
    tmc_util.o(i._ZN34_INTERNAL_12_tmc_util_cpp_7d630fea17tmc_get_registersE22TMC_get_registers_enumbbbb) refers to board_gpio.o(.bss) for Serial2
    tmc_util.o(i._ZN34_INTERNAL_12_tmc_util_cpp_7d630fea20tmc_get_ic_registersE14TMC2208Stepper22TMC_get_registers_enum) refers to marlincore.o(i._ZN14HardwareSerial5writeEi) for HardwareSerial::write(int)
    tmc_util.o(i._ZN34_INTERNAL_12_tmc_util_cpp_7d630fea20tmc_get_ic_registersE14TMC2208Stepper22TMC_get_registers_enum) refers to board_gpio.o(.bss) for Serial2
    tmc_util.o(i._ZN34_INTERNAL_12_tmc_util_cpp_7d630fea21_tmc_parse_drv_statusER14TMC2208Stepper19TMC_drv_status_enum) refers to drv_status.o(i._ZN14TMC2208Stepper4t157Ev) for TMC2208Stepper::t157()
    tmc_util.o(i._ZN34_INTERNAL_12_tmc_util_cpp_7d630fea21_tmc_parse_drv_statusER14TMC2208Stepper19TMC_drv_status_enum) refers to marlincore.o(i._ZN14HardwareSerial5writeEi) for HardwareSerial::write(int)
    tmc_util.o(i._ZN34_INTERNAL_12_tmc_util_cpp_7d630fea21_tmc_parse_drv_statusER14TMC2208Stepper19TMC_drv_status_enum) refers to drv_status.o(i._ZN14TMC2208Stepper4t150Ev) for TMC2208Stepper::t150()
    tmc_util.o(i._ZN34_INTERNAL_12_tmc_util_cpp_7d630fea21_tmc_parse_drv_statusER14TMC2208Stepper19TMC_drv_status_enum) refers to drv_status.o(i._ZN14TMC2208Stepper4t143Ev) for TMC2208Stepper::t143()
    tmc_util.o(i._ZN34_INTERNAL_12_tmc_util_cpp_7d630fea21_tmc_parse_drv_statusER14TMC2208Stepper19TMC_drv_status_enum) refers to drv_status.o(i._ZN14TMC2208Stepper4t120Ev) for TMC2208Stepper::t120()
    tmc_util.o(i._ZN34_INTERNAL_12_tmc_util_cpp_7d630fea21_tmc_parse_drv_statusER14TMC2208Stepper19TMC_drv_status_enum) refers to drv_status.o(i._ZN14TMC2208Stepper9cs_actualEv) for TMC2208Stepper::cs_actual()
    tmc_util.o(i._ZN34_INTERNAL_12_tmc_util_cpp_7d630fea21_tmc_parse_drv_statusER14TMC2208Stepper19TMC_drv_status_enum) refers to print.o(i._ZN5Print5printEii) for Print::print(int, int)
    tmc_util.o(i._ZN34_INTERNAL_12_tmc_util_cpp_7d630fea21_tmc_parse_drv_statusER14TMC2208Stepper19TMC_drv_status_enum) refers to board_gpio.o(.bss) for Serial2
    tmc_util.o(t._ZN34_INTERNAL_12_tmc_util_cpp_7d630fea10tmc_statusI9TMCMarlinI14TMC2208StepperLc69ELc48EL8AxisEnum3EEEEvRT_14TMC_debug_enum) refers to marlincore.o(i._ZN14HardwareSerial5writeEi) for HardwareSerial::write(int)
    tmc_util.o(t._ZN34_INTERNAL_12_tmc_util_cpp_7d630fea10tmc_statusI9TMCMarlinI14TMC2208StepperLc69ELc48EL8AxisEnum3EEEEvRT_14TMC_debug_enum) refers to tmc_util.o(t._ZN10TMCStorageILc69ELc48EE10printLabelEv) for TMCStorage<(char)69, (char)48>::printLabel()
    tmc_util.o(t._ZN34_INTERNAL_12_tmc_util_cpp_7d630fea10tmc_statusI9TMCMarlinI14TMC2208StepperLc69ELc48EL8AxisEnum3EEEEvRT_14TMC_debug_enum) refers to tmc2208stepper.o(i._ZN14TMC2208Stepper9isEnabledEv) for TMC2208Stepper::isEnabled()
    tmc_util.o(t._ZN34_INTERNAL_12_tmc_util_cpp_7d630fea10tmc_statusI9TMCMarlinI14TMC2208StepperLc69ELc48EL8AxisEnum3EEEEvRT_14TMC_debug_enum) refers to serial.o(i._Z21serialprint_truefalseb) for serialprint_truefalse(bool)
    tmc_util.o(t._ZN34_INTERNAL_12_tmc_util_cpp_7d630fea10tmc_statusI9TMCMarlinI14TMC2208StepperLc69ELc48EL8AxisEnum3EEEEvRT_14TMC_debug_enum) refers to print.o(i._ZN5Print5printEii) for Print::print(int, int)
    tmc_util.o(t._ZN34_INTERNAL_12_tmc_util_cpp_7d630fea10tmc_statusI9TMCMarlinI14TMC2208StepperLc69ELc48EL8AxisEnum3EEEEvRT_14TMC_debug_enum) refers to tmc_util.o(t._ZN9TMCMarlinI14TMC2208StepperLc69ELc48EL8AxisEnum3EE11rms_currentEv) for TMCMarlin<TMC2208Stepper, (char)69, (char)48, (AxisEnum)3>::rms_current()
    tmc_util.o(t._ZN34_INTERNAL_12_tmc_util_cpp_7d630fea10tmc_statusI9TMCMarlinI14TMC2208StepperLc69ELc48EL8AxisEnum3EEEEvRT_14TMC_debug_enum) refers to f2d.o(.text) for __aeabi_f2d
    tmc_util.o(t._ZN34_INTERNAL_12_tmc_util_cpp_7d630fea10tmc_statusI9TMCMarlinI14TMC2208StepperLc69ELc48EL8AxisEnum3EEEEvRT_14TMC_debug_enum) refers to print.o(i._ZN5Print5printEdi) for Print::print(double, int)
    tmc_util.o(t._ZN34_INTERNAL_12_tmc_util_cpp_7d630fea10tmc_statusI9TMCMarlinI14TMC2208StepperLc69ELc48EL8AxisEnum3EEEEvRT_14TMC_debug_enum) refers to ihold_irun.o(i._ZN10TMCStepper4irunEv) for TMCStepper::irun()
    tmc_util.o(t._ZN34_INTERNAL_12_tmc_util_cpp_7d630fea10tmc_statusI9TMCMarlinI14TMC2208StepperLc69ELc48EL8AxisEnum3EEEEvRT_14TMC_debug_enum) refers to print.o(i._ZN5Print5printEhi) for Print::print(unsigned char, int)
    tmc_util.o(t._ZN34_INTERNAL_12_tmc_util_cpp_7d630fea10tmc_statusI9TMCMarlinI14TMC2208StepperLc69ELc48EL8AxisEnum3EEEEvRT_14TMC_debug_enum) refers to serial.o(i._Z14serialprintPGMPKc) for serialprintPGM(const char*)
    tmc_util.o(t._ZN34_INTERNAL_12_tmc_util_cpp_7d630fea10tmc_statusI9TMCMarlinI14TMC2208StepperLc69ELc48EL8AxisEnum3EEEEvRT_14TMC_debug_enum) refers to ihold_irun.o(i._ZN10TMCStepper5iholdEv) for TMCStepper::ihold()
    tmc_util.o(t._ZN34_INTERNAL_12_tmc_util_cpp_7d630fea10tmc_statusI9TMCMarlinI14TMC2208StepperLc69ELc48EL8AxisEnum3EEEEvRT_14TMC_debug_enum) refers to drv_status.o(i._ZN14TMC2208Stepper9cs_actualEv) for TMC2208Stepper::cs_actual()
    tmc_util.o(t._ZN34_INTERNAL_12_tmc_util_cpp_7d630fea10tmc_statusI9TMCMarlinI14TMC2208StepperLc69ELc48EL8AxisEnum3EEEEvRT_14TMC_debug_enum) refers to tmc_util.o(t._ZN34_INTERNAL_12_tmc_util_cpp_7d630fea12print_vsenseI9TMCMarlinI14TMC2208StepperLc69ELc48EL8AxisEnum3EEEEvRT_) for void [local to tmc_util_cpp]::print_vsense<TMCMarlin<TMC2208Stepper, (char)69, (char)48, (AxisEnum)3>>(T1&)
    tmc_util.o(t._ZN34_INTERNAL_12_tmc_util_cpp_7d630fea10tmc_statusI9TMCMarlinI14TMC2208StepperLc69ELc48EL8AxisEnum3EEEEvRT_14TMC_debug_enum) refers to tmcstepper.o(i._ZN10TMCStepper10microstepsEv) for TMCStepper::microsteps()
    tmc_util.o(t._ZN34_INTERNAL_12_tmc_util_cpp_7d630fea10tmc_statusI9TMCMarlinI14TMC2208StepperLc69ELc48EL8AxisEnum3EEEEvRT_14TMC_debug_enum) refers to tmcstepper.o(i._ZN10TMCStepper5TSTEPEv) for TMCStepper::TSTEP()
    tmc_util.o(t._ZN34_INTERNAL_12_tmc_util_cpp_7d630fea10tmc_statusI9TMCMarlinI14TMC2208StepperLc69ELc48EL8AxisEnum3EEEEvRT_14TMC_debug_enum) refers to print.o(i._ZN5Print5printEji) for Print::print(unsigned, int)
    tmc_util.o(t._ZN34_INTERNAL_12_tmc_util_cpp_7d630fea10tmc_statusI9TMCMarlinI14TMC2208StepperLc69ELc48EL8AxisEnum3EEEEvRT_14TMC_debug_enum) refers to drv_status.o(i._ZN14TMC2208Stepper4otpwEv) for TMC2208Stepper::otpw()
    tmc_util.o(t._ZN34_INTERNAL_12_tmc_util_cpp_7d630fea10tmc_statusI9TMCMarlinI14TMC2208StepperLc69ELc48EL8AxisEnum3EEEEvRT_14TMC_debug_enum) refers to chopconf.o(i._ZN14TMC2208Stepper4toffEv) for TMC2208Stepper::toff()
    tmc_util.o(t._ZN34_INTERNAL_12_tmc_util_cpp_7d630fea10tmc_statusI9TMCMarlinI14TMC2208StepperLc69ELc48EL8AxisEnum3EEEEvRT_14TMC_debug_enum) refers to tmcstepper.o(i._ZN10TMCStepper10blank_timeEv) for TMCStepper::blank_time()
    tmc_util.o(t._ZN34_INTERNAL_12_tmc_util_cpp_7d630fea10tmc_statusI9TMCMarlinI14TMC2208StepperLc69ELc48EL8AxisEnum3EEEEvRT_14TMC_debug_enum) refers to tmcstepper.o(i._ZN10TMCStepper14hysteresis_endEv) for TMCStepper::hysteresis_end()
    tmc_util.o(t._ZN34_INTERNAL_12_tmc_util_cpp_7d630fea10tmc_statusI9TMCMarlinI14TMC2208StepperLc69ELc48EL8AxisEnum3EEEEvRT_14TMC_debug_enum) refers to tmcstepper.o(i._ZN10TMCStepper16hysteresis_startEv) for TMCStepper::hysteresis_start()
    tmc_util.o(t._ZN34_INTERNAL_12_tmc_util_cpp_7d630fea10tmc_statusI9TMCMarlinI14TMC2208StepperLc69ELc48EL8AxisEnum3EEEEvRT_14TMC_debug_enum) refers to tmcstepper.o(i._ZN10TMCStepper5MSCNTEv) for TMCStepper::MSCNT()
    tmc_util.o(t._ZN34_INTERNAL_12_tmc_util_cpp_7d630fea10tmc_statusI9TMCMarlinI14TMC2208StepperLc69ELc48EL8AxisEnum3EEEEvRT_14TMC_debug_enum) refers to tmc_util.o(i._ZN34_INTERNAL_12_tmc_util_cpp_7d630fea11_tmc_statusER14TMC2208Stepper14TMC_debug_enum) for [local to tmc_util_cpp]::_tmc_status(TMC2208Stepper&, TMC_debug_enum)
    tmc_util.o(t._ZN34_INTERNAL_12_tmc_util_cpp_7d630fea10tmc_statusI9TMCMarlinI14TMC2208StepperLc69ELc48EL8AxisEnum3EEEEvRT_14TMC_debug_enum) refers to board_gpio.o(.bss) for Serial2
    tmc_util.o(t._ZN34_INTERNAL_12_tmc_util_cpp_7d630fea10tmc_statusI9TMCMarlinI14TMC2208StepperLc69ELc48EL8AxisEnum3EEEEvRT_14TMC_debug_enum) refers to tmc_util.o(.constdata__ZZN34_INTERNAL_12_tmc_util_cpp_7d630fea10tmc_statusI9TMCMarlinI14TMC2208StepperLc69ELc48EL8AxisEnum3EEEEvRT_14TMC_debug_enumEs) for void [local to tmc_util_cpp]::tmc_status<TMCMarlin<TMC2208Stepper, (char)69, (char)48, (AxisEnum)3>>(T1&, TMC_debug_enum)::string
    tmc_util.o(t._ZN34_INTERNAL_12_tmc_util_cpp_7d630fea10tmc_statusI9TMCMarlinI14TMC2208StepperLc69ELc48EL8AxisEnum3EEEEvRT_14TMC_debug_enum) refers to tmc_util.o(.constdata__ZZN34_INTERNAL_12_tmc_util_cpp_7d630fea10tmc_statusI9TMCMarlinI14TMC2208StepperLc69ELc48EL8AxisEnum3EEEEvRT_14TMC_debug_enumEs_0) for void [local to tmc_util_cpp]::tmc_status<TMCMarlin<TMC2208Stepper, (char)69, (char)48, (AxisEnum)3>>(T1&, TMC_debug_enum)::string (instance 2)
    tmc_util.o(t._ZN34_INTERNAL_12_tmc_util_cpp_7d630fea10tmc_statusI9TMCMarlinI14TMC2208StepperLc88ELc48EL8AxisEnum0EEEEvRT_14TMC_debug_enum) refers to marlincore.o(i._ZN14HardwareSerial5writeEi) for HardwareSerial::write(int)
    tmc_util.o(t._ZN34_INTERNAL_12_tmc_util_cpp_7d630fea10tmc_statusI9TMCMarlinI14TMC2208StepperLc88ELc48EL8AxisEnum0EEEEvRT_14TMC_debug_enum) refers to tmc_util.o(t._ZN10TMCStorageILc88ELc48EE10printLabelEv) for TMCStorage<(char)88, (char)48>::printLabel()
    tmc_util.o(t._ZN34_INTERNAL_12_tmc_util_cpp_7d630fea10tmc_statusI9TMCMarlinI14TMC2208StepperLc88ELc48EL8AxisEnum0EEEEvRT_14TMC_debug_enum) refers to tmc2208stepper.o(i._ZN14TMC2208Stepper9isEnabledEv) for TMC2208Stepper::isEnabled()
    tmc_util.o(t._ZN34_INTERNAL_12_tmc_util_cpp_7d630fea10tmc_statusI9TMCMarlinI14TMC2208StepperLc88ELc48EL8AxisEnum0EEEEvRT_14TMC_debug_enum) refers to serial.o(i._Z21serialprint_truefalseb) for serialprint_truefalse(bool)
    tmc_util.o(t._ZN34_INTERNAL_12_tmc_util_cpp_7d630fea10tmc_statusI9TMCMarlinI14TMC2208StepperLc88ELc48EL8AxisEnum0EEEEvRT_14TMC_debug_enum) refers to print.o(i._ZN5Print5printEii) for Print::print(int, int)
    tmc_util.o(t._ZN34_INTERNAL_12_tmc_util_cpp_7d630fea10tmc_statusI9TMCMarlinI14TMC2208StepperLc88ELc48EL8AxisEnum0EEEEvRT_14TMC_debug_enum) refers to tmc_util.o(t._ZN9TMCMarlinI14TMC2208StepperLc88ELc48EL8AxisEnum0EE11rms_currentEv) for TMCMarlin<TMC2208Stepper, (char)88, (char)48, (AxisEnum)0>::rms_current()
    tmc_util.o(t._ZN34_INTERNAL_12_tmc_util_cpp_7d630fea10tmc_statusI9TMCMarlinI14TMC2208StepperLc88ELc48EL8AxisEnum0EEEEvRT_14TMC_debug_enum) refers to f2d.o(.text) for __aeabi_f2d
    tmc_util.o(t._ZN34_INTERNAL_12_tmc_util_cpp_7d630fea10tmc_statusI9TMCMarlinI14TMC2208StepperLc88ELc48EL8AxisEnum0EEEEvRT_14TMC_debug_enum) refers to print.o(i._ZN5Print5printEdi) for Print::print(double, int)
    tmc_util.o(t._ZN34_INTERNAL_12_tmc_util_cpp_7d630fea10tmc_statusI9TMCMarlinI14TMC2208StepperLc88ELc48EL8AxisEnum0EEEEvRT_14TMC_debug_enum) refers to ihold_irun.o(i._ZN10TMCStepper4irunEv) for TMCStepper::irun()
    tmc_util.o(t._ZN34_INTERNAL_12_tmc_util_cpp_7d630fea10tmc_statusI9TMCMarlinI14TMC2208StepperLc88ELc48EL8AxisEnum0EEEEvRT_14TMC_debug_enum) refers to print.o(i._ZN5Print5printEhi) for Print::print(unsigned char, int)
    tmc_util.o(t._ZN34_INTERNAL_12_tmc_util_cpp_7d630fea10tmc_statusI9TMCMarlinI14TMC2208StepperLc88ELc48EL8AxisEnum0EEEEvRT_14TMC_debug_enum) refers to serial.o(i._Z14serialprintPGMPKc) for serialprintPGM(const char*)
    tmc_util.o(t._ZN34_INTERNAL_12_tmc_util_cpp_7d630fea10tmc_statusI9TMCMarlinI14TMC2208StepperLc88ELc48EL8AxisEnum0EEEEvRT_14TMC_debug_enum) refers to ihold_irun.o(i._ZN10TMCStepper5iholdEv) for TMCStepper::ihold()
    tmc_util.o(t._ZN34_INTERNAL_12_tmc_util_cpp_7d630fea10tmc_statusI9TMCMarlinI14TMC2208StepperLc88ELc48EL8AxisEnum0EEEEvRT_14TMC_debug_enum) refers to drv_status.o(i._ZN14TMC2208Stepper9cs_actualEv) for TMC2208Stepper::cs_actual()
    tmc_util.o(t._ZN34_INTERNAL_12_tmc_util_cpp_7d630fea10tmc_statusI9TMCMarlinI14TMC2208StepperLc88ELc48EL8AxisEnum0EEEEvRT_14TMC_debug_enum) refers to tmc_util.o(t._ZN34_INTERNAL_12_tmc_util_cpp_7d630fea12print_vsenseI9TMCMarlinI14TMC2208StepperLc88ELc48EL8AxisEnum0EEEEvRT_) for void [local to tmc_util_cpp]::print_vsense<TMCMarlin<TMC2208Stepper, (char)88, (char)48, (AxisEnum)0>>(T1&)
    tmc_util.o(t._ZN34_INTERNAL_12_tmc_util_cpp_7d630fea10tmc_statusI9TMCMarlinI14TMC2208StepperLc88ELc48EL8AxisEnum0EEEEvRT_14TMC_debug_enum) refers to tmcstepper.o(i._ZN10TMCStepper10microstepsEv) for TMCStepper::microsteps()
    tmc_util.o(t._ZN34_INTERNAL_12_tmc_util_cpp_7d630fea10tmc_statusI9TMCMarlinI14TMC2208StepperLc88ELc48EL8AxisEnum0EEEEvRT_14TMC_debug_enum) refers to tmcstepper.o(i._ZN10TMCStepper5TSTEPEv) for TMCStepper::TSTEP()
    tmc_util.o(t._ZN34_INTERNAL_12_tmc_util_cpp_7d630fea10tmc_statusI9TMCMarlinI14TMC2208StepperLc88ELc48EL8AxisEnum0EEEEvRT_14TMC_debug_enum) refers to print.o(i._ZN5Print5printEji) for Print::print(unsigned, int)
    tmc_util.o(t._ZN34_INTERNAL_12_tmc_util_cpp_7d630fea10tmc_statusI9TMCMarlinI14TMC2208StepperLc88ELc48EL8AxisEnum0EEEEvRT_14TMC_debug_enum) refers to drv_status.o(i._ZN14TMC2208Stepper4otpwEv) for TMC2208Stepper::otpw()
    tmc_util.o(t._ZN34_INTERNAL_12_tmc_util_cpp_7d630fea10tmc_statusI9TMCMarlinI14TMC2208StepperLc88ELc48EL8AxisEnum0EEEEvRT_14TMC_debug_enum) refers to chopconf.o(i._ZN14TMC2208Stepper4toffEv) for TMC2208Stepper::toff()
    tmc_util.o(t._ZN34_INTERNAL_12_tmc_util_cpp_7d630fea10tmc_statusI9TMCMarlinI14TMC2208StepperLc88ELc48EL8AxisEnum0EEEEvRT_14TMC_debug_enum) refers to tmcstepper.o(i._ZN10TMCStepper10blank_timeEv) for TMCStepper::blank_time()
    tmc_util.o(t._ZN34_INTERNAL_12_tmc_util_cpp_7d630fea10tmc_statusI9TMCMarlinI14TMC2208StepperLc88ELc48EL8AxisEnum0EEEEvRT_14TMC_debug_enum) refers to tmcstepper.o(i._ZN10TMCStepper14hysteresis_endEv) for TMCStepper::hysteresis_end()
    tmc_util.o(t._ZN34_INTERNAL_12_tmc_util_cpp_7d630fea10tmc_statusI9TMCMarlinI14TMC2208StepperLc88ELc48EL8AxisEnum0EEEEvRT_14TMC_debug_enum) refers to tmcstepper.o(i._ZN10TMCStepper16hysteresis_startEv) for TMCStepper::hysteresis_start()
    tmc_util.o(t._ZN34_INTERNAL_12_tmc_util_cpp_7d630fea10tmc_statusI9TMCMarlinI14TMC2208StepperLc88ELc48EL8AxisEnum0EEEEvRT_14TMC_debug_enum) refers to tmcstepper.o(i._ZN10TMCStepper5MSCNTEv) for TMCStepper::MSCNT()
    tmc_util.o(t._ZN34_INTERNAL_12_tmc_util_cpp_7d630fea10tmc_statusI9TMCMarlinI14TMC2208StepperLc88ELc48EL8AxisEnum0EEEEvRT_14TMC_debug_enum) refers to tmc_util.o(i._ZN34_INTERNAL_12_tmc_util_cpp_7d630fea11_tmc_statusER14TMC2208Stepper14TMC_debug_enum) for [local to tmc_util_cpp]::_tmc_status(TMC2208Stepper&, TMC_debug_enum)
    tmc_util.o(t._ZN34_INTERNAL_12_tmc_util_cpp_7d630fea10tmc_statusI9TMCMarlinI14TMC2208StepperLc88ELc48EL8AxisEnum0EEEEvRT_14TMC_debug_enum) refers to board_gpio.o(.bss) for Serial2
    tmc_util.o(t._ZN34_INTERNAL_12_tmc_util_cpp_7d630fea10tmc_statusI9TMCMarlinI14TMC2208StepperLc88ELc48EL8AxisEnum0EEEEvRT_14TMC_debug_enum) refers to tmc_util.o(.constdata__ZZN34_INTERNAL_12_tmc_util_cpp_7d630fea10tmc_statusI9TMCMarlinI14TMC2208StepperLc88ELc48EL8AxisEnum0EEEEvRT_14TMC_debug_enumEs) for void [local to tmc_util_cpp]::tmc_status<TMCMarlin<TMC2208Stepper, (char)88, (char)48, (AxisEnum)0>>(T1&, TMC_debug_enum)::string
    tmc_util.o(t._ZN34_INTERNAL_12_tmc_util_cpp_7d630fea10tmc_statusI9TMCMarlinI14TMC2208StepperLc88ELc48EL8AxisEnum0EEEEvRT_14TMC_debug_enum) refers to tmc_util.o(.constdata__ZZN34_INTERNAL_12_tmc_util_cpp_7d630fea10tmc_statusI9TMCMarlinI14TMC2208StepperLc88ELc48EL8AxisEnum0EEEEvRT_14TMC_debug_enumEs_0) for void [local to tmc_util_cpp]::tmc_status<TMCMarlin<TMC2208Stepper, (char)88, (char)48, (AxisEnum)0>>(T1&, TMC_debug_enum)::string (instance 2)
    tmc_util.o(t._ZN34_INTERNAL_12_tmc_util_cpp_7d630fea10tmc_statusI9TMCMarlinI14TMC2208StepperLc89ELc48EL8AxisEnum1EEEEvRT_14TMC_debug_enum) refers to marlincore.o(i._ZN14HardwareSerial5writeEi) for HardwareSerial::write(int)
    tmc_util.o(t._ZN34_INTERNAL_12_tmc_util_cpp_7d630fea10tmc_statusI9TMCMarlinI14TMC2208StepperLc89ELc48EL8AxisEnum1EEEEvRT_14TMC_debug_enum) refers to tmc_util.o(t._ZN10TMCStorageILc89ELc48EE10printLabelEv) for TMCStorage<(char)89, (char)48>::printLabel()
    tmc_util.o(t._ZN34_INTERNAL_12_tmc_util_cpp_7d630fea10tmc_statusI9TMCMarlinI14TMC2208StepperLc89ELc48EL8AxisEnum1EEEEvRT_14TMC_debug_enum) refers to tmc2208stepper.o(i._ZN14TMC2208Stepper9isEnabledEv) for TMC2208Stepper::isEnabled()
    tmc_util.o(t._ZN34_INTERNAL_12_tmc_util_cpp_7d630fea10tmc_statusI9TMCMarlinI14TMC2208StepperLc89ELc48EL8AxisEnum1EEEEvRT_14TMC_debug_enum) refers to serial.o(i._Z21serialprint_truefalseb) for serialprint_truefalse(bool)
    tmc_util.o(t._ZN34_INTERNAL_12_tmc_util_cpp_7d630fea10tmc_statusI9TMCMarlinI14TMC2208StepperLc89ELc48EL8AxisEnum1EEEEvRT_14TMC_debug_enum) refers to print.o(i._ZN5Print5printEii) for Print::print(int, int)
    tmc_util.o(t._ZN34_INTERNAL_12_tmc_util_cpp_7d630fea10tmc_statusI9TMCMarlinI14TMC2208StepperLc89ELc48EL8AxisEnum1EEEEvRT_14TMC_debug_enum) refers to tmc_util.o(t._ZN9TMCMarlinI14TMC2208StepperLc89ELc48EL8AxisEnum1EE11rms_currentEv) for TMCMarlin<TMC2208Stepper, (char)89, (char)48, (AxisEnum)1>::rms_current()
    tmc_util.o(t._ZN34_INTERNAL_12_tmc_util_cpp_7d630fea10tmc_statusI9TMCMarlinI14TMC2208StepperLc89ELc48EL8AxisEnum1EEEEvRT_14TMC_debug_enum) refers to f2d.o(.text) for __aeabi_f2d
    tmc_util.o(t._ZN34_INTERNAL_12_tmc_util_cpp_7d630fea10tmc_statusI9TMCMarlinI14TMC2208StepperLc89ELc48EL8AxisEnum1EEEEvRT_14TMC_debug_enum) refers to print.o(i._ZN5Print5printEdi) for Print::print(double, int)
    tmc_util.o(t._ZN34_INTERNAL_12_tmc_util_cpp_7d630fea10tmc_statusI9TMCMarlinI14TMC2208StepperLc89ELc48EL8AxisEnum1EEEEvRT_14TMC_debug_enum) refers to ihold_irun.o(i._ZN10TMCStepper4irunEv) for TMCStepper::irun()
    tmc_util.o(t._ZN34_INTERNAL_12_tmc_util_cpp_7d630fea10tmc_statusI9TMCMarlinI14TMC2208StepperLc89ELc48EL8AxisEnum1EEEEvRT_14TMC_debug_enum) refers to print.o(i._ZN5Print5printEhi) for Print::print(unsigned char, int)
    tmc_util.o(t._ZN34_INTERNAL_12_tmc_util_cpp_7d630fea10tmc_statusI9TMCMarlinI14TMC2208StepperLc89ELc48EL8AxisEnum1EEEEvRT_14TMC_debug_enum) refers to serial.o(i._Z14serialprintPGMPKc) for serialprintPGM(const char*)
    tmc_util.o(t._ZN34_INTERNAL_12_tmc_util_cpp_7d630fea10tmc_statusI9TMCMarlinI14TMC2208StepperLc89ELc48EL8AxisEnum1EEEEvRT_14TMC_debug_enum) refers to ihold_irun.o(i._ZN10TMCStepper5iholdEv) for TMCStepper::ihold()
    tmc_util.o(t._ZN34_INTERNAL_12_tmc_util_cpp_7d630fea10tmc_statusI9TMCMarlinI14TMC2208StepperLc89ELc48EL8AxisEnum1EEEEvRT_14TMC_debug_enum) refers to drv_status.o(i._ZN14TMC2208Stepper9cs_actualEv) for TMC2208Stepper::cs_actual()
    tmc_util.o(t._ZN34_INTERNAL_12_tmc_util_cpp_7d630fea10tmc_statusI9TMCMarlinI14TMC2208StepperLc89ELc48EL8AxisEnum1EEEEvRT_14TMC_debug_enum) refers to tmc_util.o(t._ZN34_INTERNAL_12_tmc_util_cpp_7d630fea12print_vsenseI9TMCMarlinI14TMC2208StepperLc89ELc48EL8AxisEnum1EEEEvRT_) for void [local to tmc_util_cpp]::print_vsense<TMCMarlin<TMC2208Stepper, (char)89, (char)48, (AxisEnum)1>>(T1&)
    tmc_util.o(t._ZN34_INTERNAL_12_tmc_util_cpp_7d630fea10tmc_statusI9TMCMarlinI14TMC2208StepperLc89ELc48EL8AxisEnum1EEEEvRT_14TMC_debug_enum) refers to tmcstepper.o(i._ZN10TMCStepper10microstepsEv) for TMCStepper::microsteps()
    tmc_util.o(t._ZN34_INTERNAL_12_tmc_util_cpp_7d630fea10tmc_statusI9TMCMarlinI14TMC2208StepperLc89ELc48EL8AxisEnum1EEEEvRT_14TMC_debug_enum) refers to tmcstepper.o(i._ZN10TMCStepper5TSTEPEv) for TMCStepper::TSTEP()
    tmc_util.o(t._ZN34_INTERNAL_12_tmc_util_cpp_7d630fea10tmc_statusI9TMCMarlinI14TMC2208StepperLc89ELc48EL8AxisEnum1EEEEvRT_14TMC_debug_enum) refers to print.o(i._ZN5Print5printEji) for Print::print(unsigned, int)
    tmc_util.o(t._ZN34_INTERNAL_12_tmc_util_cpp_7d630fea10tmc_statusI9TMCMarlinI14TMC2208StepperLc89ELc48EL8AxisEnum1EEEEvRT_14TMC_debug_enum) refers to drv_status.o(i._ZN14TMC2208Stepper4otpwEv) for TMC2208Stepper::otpw()
    tmc_util.o(t._ZN34_INTERNAL_12_tmc_util_cpp_7d630fea10tmc_statusI9TMCMarlinI14TMC2208StepperLc89ELc48EL8AxisEnum1EEEEvRT_14TMC_debug_enum) refers to chopconf.o(i._ZN14TMC2208Stepper4toffEv) for TMC2208Stepper::toff()
    tmc_util.o(t._ZN34_INTERNAL_12_tmc_util_cpp_7d630fea10tmc_statusI9TMCMarlinI14TMC2208StepperLc89ELc48EL8AxisEnum1EEEEvRT_14TMC_debug_enum) refers to tmcstepper.o(i._ZN10TMCStepper10blank_timeEv) for TMCStepper::blank_time()
    tmc_util.o(t._ZN34_INTERNAL_12_tmc_util_cpp_7d630fea10tmc_statusI9TMCMarlinI14TMC2208StepperLc89ELc48EL8AxisEnum1EEEEvRT_14TMC_debug_enum) refers to tmcstepper.o(i._ZN10TMCStepper14hysteresis_endEv) for TMCStepper::hysteresis_end()
    tmc_util.o(t._ZN34_INTERNAL_12_tmc_util_cpp_7d630fea10tmc_statusI9TMCMarlinI14TMC2208StepperLc89ELc48EL8AxisEnum1EEEEvRT_14TMC_debug_enum) refers to tmcstepper.o(i._ZN10TMCStepper16hysteresis_startEv) for TMCStepper::hysteresis_start()
    tmc_util.o(t._ZN34_INTERNAL_12_tmc_util_cpp_7d630fea10tmc_statusI9TMCMarlinI14TMC2208StepperLc89ELc48EL8AxisEnum1EEEEvRT_14TMC_debug_enum) refers to tmcstepper.o(i._ZN10TMCStepper5MSCNTEv) for TMCStepper::MSCNT()
    tmc_util.o(t._ZN34_INTERNAL_12_tmc_util_cpp_7d630fea10tmc_statusI9TMCMarlinI14TMC2208StepperLc89ELc48EL8AxisEnum1EEEEvRT_14TMC_debug_enum) refers to tmc_util.o(i._ZN34_INTERNAL_12_tmc_util_cpp_7d630fea11_tmc_statusER14TMC2208Stepper14TMC_debug_enum) for [local to tmc_util_cpp]::_tmc_status(TMC2208Stepper&, TMC_debug_enum)
    tmc_util.o(t._ZN34_INTERNAL_12_tmc_util_cpp_7d630fea10tmc_statusI9TMCMarlinI14TMC2208StepperLc89ELc48EL8AxisEnum1EEEEvRT_14TMC_debug_enum) refers to board_gpio.o(.bss) for Serial2
    tmc_util.o(t._ZN34_INTERNAL_12_tmc_util_cpp_7d630fea10tmc_statusI9TMCMarlinI14TMC2208StepperLc89ELc48EL8AxisEnum1EEEEvRT_14TMC_debug_enum) refers to tmc_util.o(.constdata__ZZN34_INTERNAL_12_tmc_util_cpp_7d630fea10tmc_statusI9TMCMarlinI14TMC2208StepperLc89ELc48EL8AxisEnum1EEEEvRT_14TMC_debug_enumEs) for void [local to tmc_util_cpp]::tmc_status<TMCMarlin<TMC2208Stepper, (char)89, (char)48, (AxisEnum)1>>(T1&, TMC_debug_enum)::string
    tmc_util.o(t._ZN34_INTERNAL_12_tmc_util_cpp_7d630fea10tmc_statusI9TMCMarlinI14TMC2208StepperLc89ELc48EL8AxisEnum1EEEEvRT_14TMC_debug_enum) refers to tmc_util.o(.constdata__ZZN34_INTERNAL_12_tmc_util_cpp_7d630fea10tmc_statusI9TMCMarlinI14TMC2208StepperLc89ELc48EL8AxisEnum1EEEEvRT_14TMC_debug_enumEs_0) for void [local to tmc_util_cpp]::tmc_status<TMCMarlin<TMC2208Stepper, (char)89, (char)48, (AxisEnum)1>>(T1&, TMC_debug_enum)::string (instance 2)
    tmc_util.o(t._ZN34_INTERNAL_12_tmc_util_cpp_7d630fea10tmc_statusI9TMCMarlinI14TMC2208StepperLc90ELc48EL8AxisEnum2EEEEvRT_14TMC_debug_enum) refers to marlincore.o(i._ZN14HardwareSerial5writeEi) for HardwareSerial::write(int)
    tmc_util.o(t._ZN34_INTERNAL_12_tmc_util_cpp_7d630fea10tmc_statusI9TMCMarlinI14TMC2208StepperLc90ELc48EL8AxisEnum2EEEEvRT_14TMC_debug_enum) refers to tmc_util.o(t._ZN10TMCStorageILc90ELc48EE10printLabelEv) for TMCStorage<(char)90, (char)48>::printLabel()
    tmc_util.o(t._ZN34_INTERNAL_12_tmc_util_cpp_7d630fea10tmc_statusI9TMCMarlinI14TMC2208StepperLc90ELc48EL8AxisEnum2EEEEvRT_14TMC_debug_enum) refers to tmc2208stepper.o(i._ZN14TMC2208Stepper9isEnabledEv) for TMC2208Stepper::isEnabled()
    tmc_util.o(t._ZN34_INTERNAL_12_tmc_util_cpp_7d630fea10tmc_statusI9TMCMarlinI14TMC2208StepperLc90ELc48EL8AxisEnum2EEEEvRT_14TMC_debug_enum) refers to serial.o(i._Z21serialprint_truefalseb) for serialprint_truefalse(bool)
    tmc_util.o(t._ZN34_INTERNAL_12_tmc_util_cpp_7d630fea10tmc_statusI9TMCMarlinI14TMC2208StepperLc90ELc48EL8AxisEnum2EEEEvRT_14TMC_debug_enum) refers to print.o(i._ZN5Print5printEii) for Print::print(int, int)
    tmc_util.o(t._ZN34_INTERNAL_12_tmc_util_cpp_7d630fea10tmc_statusI9TMCMarlinI14TMC2208StepperLc90ELc48EL8AxisEnum2EEEEvRT_14TMC_debug_enum) refers to tmc_util.o(t._ZN9TMCMarlinI14TMC2208StepperLc90ELc48EL8AxisEnum2EE11rms_currentEv) for TMCMarlin<TMC2208Stepper, (char)90, (char)48, (AxisEnum)2>::rms_current()
    tmc_util.o(t._ZN34_INTERNAL_12_tmc_util_cpp_7d630fea10tmc_statusI9TMCMarlinI14TMC2208StepperLc90ELc48EL8AxisEnum2EEEEvRT_14TMC_debug_enum) refers to f2d.o(.text) for __aeabi_f2d
    tmc_util.o(t._ZN34_INTERNAL_12_tmc_util_cpp_7d630fea10tmc_statusI9TMCMarlinI14TMC2208StepperLc90ELc48EL8AxisEnum2EEEEvRT_14TMC_debug_enum) refers to print.o(i._ZN5Print5printEdi) for Print::print(double, int)
    tmc_util.o(t._ZN34_INTERNAL_12_tmc_util_cpp_7d630fea10tmc_statusI9TMCMarlinI14TMC2208StepperLc90ELc48EL8AxisEnum2EEEEvRT_14TMC_debug_enum) refers to ihold_irun.o(i._ZN10TMCStepper4irunEv) for TMCStepper::irun()
    tmc_util.o(t._ZN34_INTERNAL_12_tmc_util_cpp_7d630fea10tmc_statusI9TMCMarlinI14TMC2208StepperLc90ELc48EL8AxisEnum2EEEEvRT_14TMC_debug_enum) refers to print.o(i._ZN5Print5printEhi) for Print::print(unsigned char, int)
    tmc_util.o(t._ZN34_INTERNAL_12_tmc_util_cpp_7d630fea10tmc_statusI9TMCMarlinI14TMC2208StepperLc90ELc48EL8AxisEnum2EEEEvRT_14TMC_debug_enum) refers to serial.o(i._Z14serialprintPGMPKc) for serialprintPGM(const char*)
    tmc_util.o(t._ZN34_INTERNAL_12_tmc_util_cpp_7d630fea10tmc_statusI9TMCMarlinI14TMC2208StepperLc90ELc48EL8AxisEnum2EEEEvRT_14TMC_debug_enum) refers to ihold_irun.o(i._ZN10TMCStepper5iholdEv) for TMCStepper::ihold()
    tmc_util.o(t._ZN34_INTERNAL_12_tmc_util_cpp_7d630fea10tmc_statusI9TMCMarlinI14TMC2208StepperLc90ELc48EL8AxisEnum2EEEEvRT_14TMC_debug_enum) refers to drv_status.o(i._ZN14TMC2208Stepper9cs_actualEv) for TMC2208Stepper::cs_actual()
    tmc_util.o(t._ZN34_INTERNAL_12_tmc_util_cpp_7d630fea10tmc_statusI9TMCMarlinI14TMC2208StepperLc90ELc48EL8AxisEnum2EEEEvRT_14TMC_debug_enum) refers to tmc_util.o(t._ZN34_INTERNAL_12_tmc_util_cpp_7d630fea12print_vsenseI9TMCMarlinI14TMC2208StepperLc90ELc48EL8AxisEnum2EEEEvRT_) for void [local to tmc_util_cpp]::print_vsense<TMCMarlin<TMC2208Stepper, (char)90, (char)48, (AxisEnum)2>>(T1&)
    tmc_util.o(t._ZN34_INTERNAL_12_tmc_util_cpp_7d630fea10tmc_statusI9TMCMarlinI14TMC2208StepperLc90ELc48EL8AxisEnum2EEEEvRT_14TMC_debug_enum) refers to tmcstepper.o(i._ZN10TMCStepper10microstepsEv) for TMCStepper::microsteps()
    tmc_util.o(t._ZN34_INTERNAL_12_tmc_util_cpp_7d630fea10tmc_statusI9TMCMarlinI14TMC2208StepperLc90ELc48EL8AxisEnum2EEEEvRT_14TMC_debug_enum) refers to tmcstepper.o(i._ZN10TMCStepper5TSTEPEv) for TMCStepper::TSTEP()
    tmc_util.o(t._ZN34_INTERNAL_12_tmc_util_cpp_7d630fea10tmc_statusI9TMCMarlinI14TMC2208StepperLc90ELc48EL8AxisEnum2EEEEvRT_14TMC_debug_enum) refers to print.o(i._ZN5Print5printEji) for Print::print(unsigned, int)
    tmc_util.o(t._ZN34_INTERNAL_12_tmc_util_cpp_7d630fea10tmc_statusI9TMCMarlinI14TMC2208StepperLc90ELc48EL8AxisEnum2EEEEvRT_14TMC_debug_enum) refers to drv_status.o(i._ZN14TMC2208Stepper4otpwEv) for TMC2208Stepper::otpw()
    tmc_util.o(t._ZN34_INTERNAL_12_tmc_util_cpp_7d630fea10tmc_statusI9TMCMarlinI14TMC2208StepperLc90ELc48EL8AxisEnum2EEEEvRT_14TMC_debug_enum) refers to chopconf.o(i._ZN14TMC2208Stepper4toffEv) for TMC2208Stepper::toff()
    tmc_util.o(t._ZN34_INTERNAL_12_tmc_util_cpp_7d630fea10tmc_statusI9TMCMarlinI14TMC2208StepperLc90ELc48EL8AxisEnum2EEEEvRT_14TMC_debug_enum) refers to tmcstepper.o(i._ZN10TMCStepper10blank_timeEv) for TMCStepper::blank_time()
    tmc_util.o(t._ZN34_INTERNAL_12_tmc_util_cpp_7d630fea10tmc_statusI9TMCMarlinI14TMC2208StepperLc90ELc48EL8AxisEnum2EEEEvRT_14TMC_debug_enum) refers to tmcstepper.o(i._ZN10TMCStepper14hysteresis_endEv) for TMCStepper::hysteresis_end()
    tmc_util.o(t._ZN34_INTERNAL_12_tmc_util_cpp_7d630fea10tmc_statusI9TMCMarlinI14TMC2208StepperLc90ELc48EL8AxisEnum2EEEEvRT_14TMC_debug_enum) refers to tmcstepper.o(i._ZN10TMCStepper16hysteresis_startEv) for TMCStepper::hysteresis_start()
    tmc_util.o(t._ZN34_INTERNAL_12_tmc_util_cpp_7d630fea10tmc_statusI9TMCMarlinI14TMC2208StepperLc90ELc48EL8AxisEnum2EEEEvRT_14TMC_debug_enum) refers to tmcstepper.o(i._ZN10TMCStepper5MSCNTEv) for TMCStepper::MSCNT()
    tmc_util.o(t._ZN34_INTERNAL_12_tmc_util_cpp_7d630fea10tmc_statusI9TMCMarlinI14TMC2208StepperLc90ELc48EL8AxisEnum2EEEEvRT_14TMC_debug_enum) refers to tmc_util.o(i._ZN34_INTERNAL_12_tmc_util_cpp_7d630fea11_tmc_statusER14TMC2208Stepper14TMC_debug_enum) for [local to tmc_util_cpp]::_tmc_status(TMC2208Stepper&, TMC_debug_enum)
    tmc_util.o(t._ZN34_INTERNAL_12_tmc_util_cpp_7d630fea10tmc_statusI9TMCMarlinI14TMC2208StepperLc90ELc48EL8AxisEnum2EEEEvRT_14TMC_debug_enum) refers to board_gpio.o(.bss) for Serial2
    tmc_util.o(t._ZN34_INTERNAL_12_tmc_util_cpp_7d630fea10tmc_statusI9TMCMarlinI14TMC2208StepperLc90ELc48EL8AxisEnum2EEEEvRT_14TMC_debug_enum) refers to tmc_util.o(.constdata__ZZN34_INTERNAL_12_tmc_util_cpp_7d630fea10tmc_statusI9TMCMarlinI14TMC2208StepperLc90ELc48EL8AxisEnum2EEEEvRT_14TMC_debug_enumEs) for void [local to tmc_util_cpp]::tmc_status<TMCMarlin<TMC2208Stepper, (char)90, (char)48, (AxisEnum)2>>(T1&, TMC_debug_enum)::string
    tmc_util.o(t._ZN34_INTERNAL_12_tmc_util_cpp_7d630fea10tmc_statusI9TMCMarlinI14TMC2208StepperLc90ELc48EL8AxisEnum2EEEEvRT_14TMC_debug_enum) refers to tmc_util.o(.constdata__ZZN34_INTERNAL_12_tmc_util_cpp_7d630fea10tmc_statusI9TMCMarlinI14TMC2208StepperLc90ELc48EL8AxisEnum2EEEEvRT_14TMC_debug_enumEs_0) for void [local to tmc_util_cpp]::tmc_status<TMCMarlin<TMC2208Stepper, (char)90, (char)48, (AxisEnum)2>>(T1&, TMC_debug_enum)::string (instance 2)
    tmc_util.o(t._ZN34_INTERNAL_12_tmc_util_cpp_7d630fea12print_vsenseI9TMCMarlinI14TMC2208StepperLc69ELc48EL8AxisEnum3EEEEvRT_) refers to serial.o(i._Z14serialprintPGMPKc) for serialprintPGM(const char*)
    tmc_util.o(t._ZN34_INTERNAL_12_tmc_util_cpp_7d630fea12print_vsenseI9TMCMarlinI14TMC2208StepperLc69ELc48EL8AxisEnum3EEEEvRT_) refers to tmc_util.o(.constdata__ZZN34_INTERNAL_12_tmc_util_cpp_7d630fea12print_vsenseI9TMCMarlinI14TMC2208StepperLc69ELc48EL8AxisEnum3EEEEvRT_Es) for void [local to tmc_util_cpp]::print_vsense<TMCMarlin<TMC2208Stepper, (char)69, (char)48, (AxisEnum)3>>(T1&)::string
    tmc_util.o(t._ZN34_INTERNAL_12_tmc_util_cpp_7d630fea12print_vsenseI9TMCMarlinI14TMC2208StepperLc69ELc48EL8AxisEnum3EEEEvRT_) refers to tmc_util.o(.constdata__ZZN34_INTERNAL_12_tmc_util_cpp_7d630fea12print_vsenseI9TMCMarlinI14TMC2208StepperLc69ELc48EL8AxisEnum3EEEEvRT_Es_0) for void [local to tmc_util_cpp]::print_vsense<TMCMarlin<TMC2208Stepper, (char)69, (char)48, (AxisEnum)3>>(T1&)::string (instance 2)
    tmc_util.o(t._ZN34_INTERNAL_12_tmc_util_cpp_7d630fea12print_vsenseI9TMCMarlinI14TMC2208StepperLc88ELc48EL8AxisEnum0EEEEvRT_) refers to serial.o(i._Z14serialprintPGMPKc) for serialprintPGM(const char*)
    tmc_util.o(t._ZN34_INTERNAL_12_tmc_util_cpp_7d630fea12print_vsenseI9TMCMarlinI14TMC2208StepperLc88ELc48EL8AxisEnum0EEEEvRT_) refers to tmc_util.o(.constdata__ZZN34_INTERNAL_12_tmc_util_cpp_7d630fea12print_vsenseI9TMCMarlinI14TMC2208StepperLc88ELc48EL8AxisEnum0EEEEvRT_Es) for void [local to tmc_util_cpp]::print_vsense<TMCMarlin<TMC2208Stepper, (char)88, (char)48, (AxisEnum)0>>(T1&)::string
    tmc_util.o(t._ZN34_INTERNAL_12_tmc_util_cpp_7d630fea12print_vsenseI9TMCMarlinI14TMC2208StepperLc88ELc48EL8AxisEnum0EEEEvRT_) refers to tmc_util.o(.constdata__ZZN34_INTERNAL_12_tmc_util_cpp_7d630fea12print_vsenseI9TMCMarlinI14TMC2208StepperLc88ELc48EL8AxisEnum0EEEEvRT_Es_0) for void [local to tmc_util_cpp]::print_vsense<TMCMarlin<TMC2208Stepper, (char)88, (char)48, (AxisEnum)0>>(T1&)::string (instance 2)
    tmc_util.o(t._ZN34_INTERNAL_12_tmc_util_cpp_7d630fea12print_vsenseI9TMCMarlinI14TMC2208StepperLc89ELc48EL8AxisEnum1EEEEvRT_) refers to serial.o(i._Z14serialprintPGMPKc) for serialprintPGM(const char*)
    tmc_util.o(t._ZN34_INTERNAL_12_tmc_util_cpp_7d630fea12print_vsenseI9TMCMarlinI14TMC2208StepperLc89ELc48EL8AxisEnum1EEEEvRT_) refers to tmc_util.o(.constdata__ZZN34_INTERNAL_12_tmc_util_cpp_7d630fea12print_vsenseI9TMCMarlinI14TMC2208StepperLc89ELc48EL8AxisEnum1EEEEvRT_Es) for void [local to tmc_util_cpp]::print_vsense<TMCMarlin<TMC2208Stepper, (char)89, (char)48, (AxisEnum)1>>(T1&)::string
    tmc_util.o(t._ZN34_INTERNAL_12_tmc_util_cpp_7d630fea12print_vsenseI9TMCMarlinI14TMC2208StepperLc89ELc48EL8AxisEnum1EEEEvRT_) refers to tmc_util.o(.constdata__ZZN34_INTERNAL_12_tmc_util_cpp_7d630fea12print_vsenseI9TMCMarlinI14TMC2208StepperLc89ELc48EL8AxisEnum1EEEEvRT_Es_0) for void [local to tmc_util_cpp]::print_vsense<TMCMarlin<TMC2208Stepper, (char)89, (char)48, (AxisEnum)1>>(T1&)::string (instance 2)
    tmc_util.o(t._ZN34_INTERNAL_12_tmc_util_cpp_7d630fea12print_vsenseI9TMCMarlinI14TMC2208StepperLc90ELc48EL8AxisEnum2EEEEvRT_) refers to serial.o(i._Z14serialprintPGMPKc) for serialprintPGM(const char*)
    tmc_util.o(t._ZN34_INTERNAL_12_tmc_util_cpp_7d630fea12print_vsenseI9TMCMarlinI14TMC2208StepperLc90ELc48EL8AxisEnum2EEEEvRT_) refers to tmc_util.o(.constdata__ZZN34_INTERNAL_12_tmc_util_cpp_7d630fea12print_vsenseI9TMCMarlinI14TMC2208StepperLc90ELc48EL8AxisEnum2EEEEvRT_Es) for void [local to tmc_util_cpp]::print_vsense<TMCMarlin<TMC2208Stepper, (char)90, (char)48, (AxisEnum)2>>(T1&)::string
    tmc_util.o(t._ZN34_INTERNAL_12_tmc_util_cpp_7d630fea12print_vsenseI9TMCMarlinI14TMC2208StepperLc90ELc48EL8AxisEnum2EEEEvRT_) refers to tmc_util.o(.constdata__ZZN34_INTERNAL_12_tmc_util_cpp_7d630fea12print_vsenseI9TMCMarlinI14TMC2208StepperLc90ELc48EL8AxisEnum2EEEEvRT_Es_0) for void [local to tmc_util_cpp]::print_vsense<TMCMarlin<TMC2208Stepper, (char)90, (char)48, (AxisEnum)2>>(T1&)::string (instance 2)
    tmc_util.o(t._ZN34_INTERNAL_12_tmc_util_cpp_7d630fea15test_connectionI9TMCMarlinI14TMC2208StepperLc69ELc48EL8AxisEnum3EEEEbRT_) refers to serial.o(i._Z14serialprintPGMPKc) for serialprintPGM(const char*)
    tmc_util.o(t._ZN34_INTERNAL_12_tmc_util_cpp_7d630fea15test_connectionI9TMCMarlinI14TMC2208StepperLc69ELc48EL8AxisEnum3EEEEbRT_) refers to tmc_util.o(t._ZN10TMCStorageILc69ELc48EE10printLabelEv) for TMCStorage<(char)69, (char)48>::printLabel()
    tmc_util.o(t._ZN34_INTERNAL_12_tmc_util_cpp_7d630fea15test_connectionI9TMCMarlinI14TMC2208StepperLc69ELc48EL8AxisEnum3EEEEbRT_) refers to tmcstepper.o(i._ZN10TMCStepper15test_connectionEv) for TMCStepper::test_connection()
    tmc_util.o(t._ZN34_INTERNAL_12_tmc_util_cpp_7d630fea15test_connectionI9TMCMarlinI14TMC2208StepperLc69ELc48EL8AxisEnum3EEEEbRT_) refers to marlincore.o(i._ZN14HardwareSerial5writeEi) for HardwareSerial::write(int)
    tmc_util.o(t._ZN34_INTERNAL_12_tmc_util_cpp_7d630fea15test_connectionI9TMCMarlinI14TMC2208StepperLc69ELc48EL8AxisEnum3EEEEbRT_) refers to tmc_util.o(.constdata__ZZN34_INTERNAL_12_tmc_util_cpp_7d630fea15test_connectionI9TMCMarlinI14TMC2208StepperLc69ELc48EL8AxisEnum3EEEEbRT_Es) for bool [local to tmc_util_cpp]::test_connection<TMCMarlin<TMC2208Stepper, (char)69, (char)48, (AxisEnum)3>>(T1&)::string
    tmc_util.o(t._ZN34_INTERNAL_12_tmc_util_cpp_7d630fea15test_connectionI9TMCMarlinI14TMC2208StepperLc69ELc48EL8AxisEnum3EEEEbRT_) refers to tmc_util.o(.constdata__ZZN34_INTERNAL_12_tmc_util_cpp_7d630fea15test_connectionI9TMCMarlinI14TMC2208StepperLc69ELc48EL8AxisEnum3EEEEbRT_Es_0) for bool [local to tmc_util_cpp]::test_connection<TMCMarlin<TMC2208Stepper, (char)69, (char)48, (AxisEnum)3>>(T1&)::string (instance 2)
    tmc_util.o(t._ZN34_INTERNAL_12_tmc_util_cpp_7d630fea15test_connectionI9TMCMarlinI14TMC2208StepperLc69ELc48EL8AxisEnum3EEEEbRT_) refers to tmc_util.o(.constdata__ZZN34_INTERNAL_12_tmc_util_cpp_7d630fea15test_connectionI9TMCMarlinI14TMC2208StepperLc69ELc48EL8AxisEnum3EEEEbRT_Es_1) for bool [local to tmc_util_cpp]::test_connection<TMCMarlin<TMC2208Stepper, (char)69, (char)48, (AxisEnum)3>>(T1&)::string (instance 3)
    tmc_util.o(t._ZN34_INTERNAL_12_tmc_util_cpp_7d630fea15test_connectionI9TMCMarlinI14TMC2208StepperLc69ELc48EL8AxisEnum3EEEEbRT_) refers to tmc_util.o(.constdata__ZZN34_INTERNAL_12_tmc_util_cpp_7d630fea15test_connectionI9TMCMarlinI14TMC2208StepperLc69ELc48EL8AxisEnum3EEEEbRT_Es_2) for bool [local to tmc_util_cpp]::test_connection<TMCMarlin<TMC2208Stepper, (char)69, (char)48, (AxisEnum)3>>(T1&)::string (instance 4)
    tmc_util.o(t._ZN34_INTERNAL_12_tmc_util_cpp_7d630fea15test_connectionI9TMCMarlinI14TMC2208StepperLc69ELc48EL8AxisEnum3EEEEbRT_) refers to tmc_util.o(.constdata__ZZN34_INTERNAL_12_tmc_util_cpp_7d630fea15test_connectionI9TMCMarlinI14TMC2208StepperLc69ELc48EL8AxisEnum3EEEEbRT_Es_3) for bool [local to tmc_util_cpp]::test_connection<TMCMarlin<TMC2208Stepper, (char)69, (char)48, (AxisEnum)3>>(T1&)::string (instance 5)
    tmc_util.o(t._ZN34_INTERNAL_12_tmc_util_cpp_7d630fea15test_connectionI9TMCMarlinI14TMC2208StepperLc69ELc48EL8AxisEnum3EEEEbRT_) refers to tmc_util.o(.constdata__ZZN34_INTERNAL_12_tmc_util_cpp_7d630fea15test_connectionI9TMCMarlinI14TMC2208StepperLc69ELc48EL8AxisEnum3EEEEbRT_Es_4) for bool [local to tmc_util_cpp]::test_connection<TMCMarlin<TMC2208Stepper, (char)69, (char)48, (AxisEnum)3>>(T1&)::string (instance 6)
    tmc_util.o(t._ZN34_INTERNAL_12_tmc_util_cpp_7d630fea15test_connectionI9TMCMarlinI14TMC2208StepperLc69ELc48EL8AxisEnum3EEEEbRT_) refers to board_gpio.o(.bss) for Serial2
    tmc_util.o(t._ZN34_INTERNAL_12_tmc_util_cpp_7d630fea15test_connectionI9TMCMarlinI14TMC2208StepperLc88ELc48EL8AxisEnum0EEEEbRT_) refers to serial.o(i._Z14serialprintPGMPKc) for serialprintPGM(const char*)
    tmc_util.o(t._ZN34_INTERNAL_12_tmc_util_cpp_7d630fea15test_connectionI9TMCMarlinI14TMC2208StepperLc88ELc48EL8AxisEnum0EEEEbRT_) refers to tmc_util.o(t._ZN10TMCStorageILc88ELc48EE10printLabelEv) for TMCStorage<(char)88, (char)48>::printLabel()
    tmc_util.o(t._ZN34_INTERNAL_12_tmc_util_cpp_7d630fea15test_connectionI9TMCMarlinI14TMC2208StepperLc88ELc48EL8AxisEnum0EEEEbRT_) refers to tmcstepper.o(i._ZN10TMCStepper15test_connectionEv) for TMCStepper::test_connection()
    tmc_util.o(t._ZN34_INTERNAL_12_tmc_util_cpp_7d630fea15test_connectionI9TMCMarlinI14TMC2208StepperLc88ELc48EL8AxisEnum0EEEEbRT_) refers to marlincore.o(i._ZN14HardwareSerial5writeEi) for HardwareSerial::write(int)
    tmc_util.o(t._ZN34_INTERNAL_12_tmc_util_cpp_7d630fea15test_connectionI9TMCMarlinI14TMC2208StepperLc88ELc48EL8AxisEnum0EEEEbRT_) refers to tmc_util.o(.constdata__ZZN34_INTERNAL_12_tmc_util_cpp_7d630fea15test_connectionI9TMCMarlinI14TMC2208StepperLc88ELc48EL8AxisEnum0EEEEbRT_Es) for bool [local to tmc_util_cpp]::test_connection<TMCMarlin<TMC2208Stepper, (char)88, (char)48, (AxisEnum)0>>(T1&)::string
    tmc_util.o(t._ZN34_INTERNAL_12_tmc_util_cpp_7d630fea15test_connectionI9TMCMarlinI14TMC2208StepperLc88ELc48EL8AxisEnum0EEEEbRT_) refers to tmc_util.o(.constdata__ZZN34_INTERNAL_12_tmc_util_cpp_7d630fea15test_connectionI9TMCMarlinI14TMC2208StepperLc88ELc48EL8AxisEnum0EEEEbRT_Es_0) for bool [local to tmc_util_cpp]::test_connection<TMCMarlin<TMC2208Stepper, (char)88, (char)48, (AxisEnum)0>>(T1&)::string (instance 2)
    tmc_util.o(t._ZN34_INTERNAL_12_tmc_util_cpp_7d630fea15test_connectionI9TMCMarlinI14TMC2208StepperLc88ELc48EL8AxisEnum0EEEEbRT_) refers to tmc_util.o(.constdata__ZZN34_INTERNAL_12_tmc_util_cpp_7d630fea15test_connectionI9TMCMarlinI14TMC2208StepperLc88ELc48EL8AxisEnum0EEEEbRT_Es_1) for bool [local to tmc_util_cpp]::test_connection<TMCMarlin<TMC2208Stepper, (char)88, (char)48, (AxisEnum)0>>(T1&)::string (instance 3)
    tmc_util.o(t._ZN34_INTERNAL_12_tmc_util_cpp_7d630fea15test_connectionI9TMCMarlinI14TMC2208StepperLc88ELc48EL8AxisEnum0EEEEbRT_) refers to tmc_util.o(.constdata__ZZN34_INTERNAL_12_tmc_util_cpp_7d630fea15test_connectionI9TMCMarlinI14TMC2208StepperLc88ELc48EL8AxisEnum0EEEEbRT_Es_2) for bool [local to tmc_util_cpp]::test_connection<TMCMarlin<TMC2208Stepper, (char)88, (char)48, (AxisEnum)0>>(T1&)::string (instance 4)
    tmc_util.o(t._ZN34_INTERNAL_12_tmc_util_cpp_7d630fea15test_connectionI9TMCMarlinI14TMC2208StepperLc88ELc48EL8AxisEnum0EEEEbRT_) refers to tmc_util.o(.constdata__ZZN34_INTERNAL_12_tmc_util_cpp_7d630fea15test_connectionI9TMCMarlinI14TMC2208StepperLc88ELc48EL8AxisEnum0EEEEbRT_Es_3) for bool [local to tmc_util_cpp]::test_connection<TMCMarlin<TMC2208Stepper, (char)88, (char)48, (AxisEnum)0>>(T1&)::string (instance 5)
    tmc_util.o(t._ZN34_INTERNAL_12_tmc_util_cpp_7d630fea15test_connectionI9TMCMarlinI14TMC2208StepperLc88ELc48EL8AxisEnum0EEEEbRT_) refers to tmc_util.o(.constdata__ZZN34_INTERNAL_12_tmc_util_cpp_7d630fea15test_connectionI9TMCMarlinI14TMC2208StepperLc88ELc48EL8AxisEnum0EEEEbRT_Es_4) for bool [local to tmc_util_cpp]::test_connection<TMCMarlin<TMC2208Stepper, (char)88, (char)48, (AxisEnum)0>>(T1&)::string (instance 6)
    tmc_util.o(t._ZN34_INTERNAL_12_tmc_util_cpp_7d630fea15test_connectionI9TMCMarlinI14TMC2208StepperLc88ELc48EL8AxisEnum0EEEEbRT_) refers to board_gpio.o(.bss) for Serial2
    tmc_util.o(t._ZN34_INTERNAL_12_tmc_util_cpp_7d630fea15test_connectionI9TMCMarlinI14TMC2208StepperLc89ELc48EL8AxisEnum1EEEEbRT_) refers to serial.o(i._Z14serialprintPGMPKc) for serialprintPGM(const char*)
    tmc_util.o(t._ZN34_INTERNAL_12_tmc_util_cpp_7d630fea15test_connectionI9TMCMarlinI14TMC2208StepperLc89ELc48EL8AxisEnum1EEEEbRT_) refers to tmc_util.o(t._ZN10TMCStorageILc89ELc48EE10printLabelEv) for TMCStorage<(char)89, (char)48>::printLabel()
    tmc_util.o(t._ZN34_INTERNAL_12_tmc_util_cpp_7d630fea15test_connectionI9TMCMarlinI14TMC2208StepperLc89ELc48EL8AxisEnum1EEEEbRT_) refers to tmcstepper.o(i._ZN10TMCStepper15test_connectionEv) for TMCStepper::test_connection()
    tmc_util.o(t._ZN34_INTERNAL_12_tmc_util_cpp_7d630fea15test_connectionI9TMCMarlinI14TMC2208StepperLc89ELc48EL8AxisEnum1EEEEbRT_) refers to marlincore.o(i._ZN14HardwareSerial5writeEi) for HardwareSerial::write(int)
    tmc_util.o(t._ZN34_INTERNAL_12_tmc_util_cpp_7d630fea15test_connectionI9TMCMarlinI14TMC2208StepperLc89ELc48EL8AxisEnum1EEEEbRT_) refers to tmc_util.o(.constdata__ZZN34_INTERNAL_12_tmc_util_cpp_7d630fea15test_connectionI9TMCMarlinI14TMC2208StepperLc89ELc48EL8AxisEnum1EEEEbRT_Es) for bool [local to tmc_util_cpp]::test_connection<TMCMarlin<TMC2208Stepper, (char)89, (char)48, (AxisEnum)1>>(T1&)::string
    tmc_util.o(t._ZN34_INTERNAL_12_tmc_util_cpp_7d630fea15test_connectionI9TMCMarlinI14TMC2208StepperLc89ELc48EL8AxisEnum1EEEEbRT_) refers to tmc_util.o(.constdata__ZZN34_INTERNAL_12_tmc_util_cpp_7d630fea15test_connectionI9TMCMarlinI14TMC2208StepperLc89ELc48EL8AxisEnum1EEEEbRT_Es_0) for bool [local to tmc_util_cpp]::test_connection<TMCMarlin<TMC2208Stepper, (char)89, (char)48, (AxisEnum)1>>(T1&)::string (instance 2)
    tmc_util.o(t._ZN34_INTERNAL_12_tmc_util_cpp_7d630fea15test_connectionI9TMCMarlinI14TMC2208StepperLc89ELc48EL8AxisEnum1EEEEbRT_) refers to tmc_util.o(.constdata__ZZN34_INTERNAL_12_tmc_util_cpp_7d630fea15test_connectionI9TMCMarlinI14TMC2208StepperLc89ELc48EL8AxisEnum1EEEEbRT_Es_1) for bool [local to tmc_util_cpp]::test_connection<TMCMarlin<TMC2208Stepper, (char)89, (char)48, (AxisEnum)1>>(T1&)::string (instance 3)
    tmc_util.o(t._ZN34_INTERNAL_12_tmc_util_cpp_7d630fea15test_connectionI9TMCMarlinI14TMC2208StepperLc89ELc48EL8AxisEnum1EEEEbRT_) refers to tmc_util.o(.constdata__ZZN34_INTERNAL_12_tmc_util_cpp_7d630fea15test_connectionI9TMCMarlinI14TMC2208StepperLc89ELc48EL8AxisEnum1EEEEbRT_Es_2) for bool [local to tmc_util_cpp]::test_connection<TMCMarlin<TMC2208Stepper, (char)89, (char)48, (AxisEnum)1>>(T1&)::string (instance 4)
    tmc_util.o(t._ZN34_INTERNAL_12_tmc_util_cpp_7d630fea15test_connectionI9TMCMarlinI14TMC2208StepperLc89ELc48EL8AxisEnum1EEEEbRT_) refers to tmc_util.o(.constdata__ZZN34_INTERNAL_12_tmc_util_cpp_7d630fea15test_connectionI9TMCMarlinI14TMC2208StepperLc89ELc48EL8AxisEnum1EEEEbRT_Es_3) for bool [local to tmc_util_cpp]::test_connection<TMCMarlin<TMC2208Stepper, (char)89, (char)48, (AxisEnum)1>>(T1&)::string (instance 5)
    tmc_util.o(t._ZN34_INTERNAL_12_tmc_util_cpp_7d630fea15test_connectionI9TMCMarlinI14TMC2208StepperLc89ELc48EL8AxisEnum1EEEEbRT_) refers to tmc_util.o(.constdata__ZZN34_INTERNAL_12_tmc_util_cpp_7d630fea15test_connectionI9TMCMarlinI14TMC2208StepperLc89ELc48EL8AxisEnum1EEEEbRT_Es_4) for bool [local to tmc_util_cpp]::test_connection<TMCMarlin<TMC2208Stepper, (char)89, (char)48, (AxisEnum)1>>(T1&)::string (instance 6)
    tmc_util.o(t._ZN34_INTERNAL_12_tmc_util_cpp_7d630fea15test_connectionI9TMCMarlinI14TMC2208StepperLc89ELc48EL8AxisEnum1EEEEbRT_) refers to board_gpio.o(.bss) for Serial2
    tmc_util.o(t._ZN34_INTERNAL_12_tmc_util_cpp_7d630fea15test_connectionI9TMCMarlinI14TMC2208StepperLc90ELc48EL8AxisEnum2EEEEbRT_) refers to serial.o(i._Z14serialprintPGMPKc) for serialprintPGM(const char*)
    tmc_util.o(t._ZN34_INTERNAL_12_tmc_util_cpp_7d630fea15test_connectionI9TMCMarlinI14TMC2208StepperLc90ELc48EL8AxisEnum2EEEEbRT_) refers to tmc_util.o(t._ZN10TMCStorageILc90ELc48EE10printLabelEv) for TMCStorage<(char)90, (char)48>::printLabel()
    tmc_util.o(t._ZN34_INTERNAL_12_tmc_util_cpp_7d630fea15test_connectionI9TMCMarlinI14TMC2208StepperLc90ELc48EL8AxisEnum2EEEEbRT_) refers to tmcstepper.o(i._ZN10TMCStepper15test_connectionEv) for TMCStepper::test_connection()
    tmc_util.o(t._ZN34_INTERNAL_12_tmc_util_cpp_7d630fea15test_connectionI9TMCMarlinI14TMC2208StepperLc90ELc48EL8AxisEnum2EEEEbRT_) refers to marlincore.o(i._ZN14HardwareSerial5writeEi) for HardwareSerial::write(int)
    tmc_util.o(t._ZN34_INTERNAL_12_tmc_util_cpp_7d630fea15test_connectionI9TMCMarlinI14TMC2208StepperLc90ELc48EL8AxisEnum2EEEEbRT_) refers to tmc_util.o(.constdata__ZZN34_INTERNAL_12_tmc_util_cpp_7d630fea15test_connectionI9TMCMarlinI14TMC2208StepperLc90ELc48EL8AxisEnum2EEEEbRT_Es) for bool [local to tmc_util_cpp]::test_connection<TMCMarlin<TMC2208Stepper, (char)90, (char)48, (AxisEnum)2>>(T1&)::string
    tmc_util.o(t._ZN34_INTERNAL_12_tmc_util_cpp_7d630fea15test_connectionI9TMCMarlinI14TMC2208StepperLc90ELc48EL8AxisEnum2EEEEbRT_) refers to tmc_util.o(.constdata__ZZN34_INTERNAL_12_tmc_util_cpp_7d630fea15test_connectionI9TMCMarlinI14TMC2208StepperLc90ELc48EL8AxisEnum2EEEEbRT_Es_0) for bool [local to tmc_util_cpp]::test_connection<TMCMarlin<TMC2208Stepper, (char)90, (char)48, (AxisEnum)2>>(T1&)::string (instance 2)
    tmc_util.o(t._ZN34_INTERNAL_12_tmc_util_cpp_7d630fea15test_connectionI9TMCMarlinI14TMC2208StepperLc90ELc48EL8AxisEnum2EEEEbRT_) refers to tmc_util.o(.constdata__ZZN34_INTERNAL_12_tmc_util_cpp_7d630fea15test_connectionI9TMCMarlinI14TMC2208StepperLc90ELc48EL8AxisEnum2EEEEbRT_Es_1) for bool [local to tmc_util_cpp]::test_connection<TMCMarlin<TMC2208Stepper, (char)90, (char)48, (AxisEnum)2>>(T1&)::string (instance 3)
    tmc_util.o(t._ZN34_INTERNAL_12_tmc_util_cpp_7d630fea15test_connectionI9TMCMarlinI14TMC2208StepperLc90ELc48EL8AxisEnum2EEEEbRT_) refers to tmc_util.o(.constdata__ZZN34_INTERNAL_12_tmc_util_cpp_7d630fea15test_connectionI9TMCMarlinI14TMC2208StepperLc90ELc48EL8AxisEnum2EEEEbRT_Es_2) for bool [local to tmc_util_cpp]::test_connection<TMCMarlin<TMC2208Stepper, (char)90, (char)48, (AxisEnum)2>>(T1&)::string (instance 4)
    tmc_util.o(t._ZN34_INTERNAL_12_tmc_util_cpp_7d630fea15test_connectionI9TMCMarlinI14TMC2208StepperLc90ELc48EL8AxisEnum2EEEEbRT_) refers to tmc_util.o(.constdata__ZZN34_INTERNAL_12_tmc_util_cpp_7d630fea15test_connectionI9TMCMarlinI14TMC2208StepperLc90ELc48EL8AxisEnum2EEEEbRT_Es_3) for bool [local to tmc_util_cpp]::test_connection<TMCMarlin<TMC2208Stepper, (char)90, (char)48, (AxisEnum)2>>(T1&)::string (instance 5)
    tmc_util.o(t._ZN34_INTERNAL_12_tmc_util_cpp_7d630fea15test_connectionI9TMCMarlinI14TMC2208StepperLc90ELc48EL8AxisEnum2EEEEbRT_) refers to tmc_util.o(.constdata__ZZN34_INTERNAL_12_tmc_util_cpp_7d630fea15test_connectionI9TMCMarlinI14TMC2208StepperLc90ELc48EL8AxisEnum2EEEEbRT_Es_4) for bool [local to tmc_util_cpp]::test_connection<TMCMarlin<TMC2208Stepper, (char)90, (char)48, (AxisEnum)2>>(T1&)::string (instance 6)
    tmc_util.o(t._ZN34_INTERNAL_12_tmc_util_cpp_7d630fea15test_connectionI9TMCMarlinI14TMC2208StepperLc90ELc48EL8AxisEnum2EEEEbRT_) refers to board_gpio.o(.bss) for Serial2
    tmc_util.o(t._ZN34_INTERNAL_12_tmc_util_cpp_7d630fea17tmc_get_registersI9TMCMarlinI14TMC2208StepperLc69ELc48EL8AxisEnum3EEEEvRT_22TMC_get_registers_enum) refers to marlincore.o(i._ZN14HardwareSerial5writeEi) for HardwareSerial::write(int)
    tmc_util.o(t._ZN34_INTERNAL_12_tmc_util_cpp_7d630fea17tmc_get_registersI9TMCMarlinI14TMC2208StepperLc69ELc48EL8AxisEnum3EEEEvRT_22TMC_get_registers_enum) refers to tmc_util.o(t._ZN10TMCStorageILc69ELc48EE10printLabelEv) for TMCStorage<(char)69, (char)48>::printLabel()
    tmc_util.o(t._ZN34_INTERNAL_12_tmc_util_cpp_7d630fea17tmc_get_registersI9TMCMarlinI14TMC2208StepperLc69ELc48EL8AxisEnum3EEEEvRT_22TMC_get_registers_enum) refers to gconf.o(i._ZN14TMC2208Stepper5GCONFEv) for TMC2208Stepper::GCONF()
    tmc_util.o(t._ZN34_INTERNAL_12_tmc_util_cpp_7d630fea17tmc_get_registersI9TMCMarlinI14TMC2208StepperLc69ELc48EL8AxisEnum3EEEEvRT_22TMC_get_registers_enum) refers to hex_print.o(i._Z14print_hex_longjc) for print_hex_long(unsigned, char)
    tmc_util.o(t._ZN34_INTERNAL_12_tmc_util_cpp_7d630fea17tmc_get_registersI9TMCMarlinI14TMC2208StepperLc69ELc48EL8AxisEnum3EEEEvRT_22TMC_get_registers_enum) refers to ihold_irun.o(i._ZN10TMCStepper10IHOLD_IRUNEv) for TMCStepper::IHOLD_IRUN()
    tmc_util.o(t._ZN34_INTERNAL_12_tmc_util_cpp_7d630fea17tmc_get_registersI9TMCMarlinI14TMC2208StepperLc69ELc48EL8AxisEnum3EEEEvRT_22TMC_get_registers_enum) refers to tmcstepper.o(i._ZN10TMCStepper5GSTATEv) for TMCStepper::GSTAT()
    tmc_util.o(t._ZN34_INTERNAL_12_tmc_util_cpp_7d630fea17tmc_get_registersI9TMCMarlinI14TMC2208StepperLc69ELc48EL8AxisEnum3EEEEvRT_22TMC_get_registers_enum) refers to tmc2208stepper.o(i._ZN14TMC2208Stepper4IOINEv) for TMC2208Stepper::IOIN()
    tmc_util.o(t._ZN34_INTERNAL_12_tmc_util_cpp_7d630fea17tmc_get_registersI9TMCMarlinI14TMC2208StepperLc69ELc48EL8AxisEnum3EEEEvRT_22TMC_get_registers_enum) refers to tmcstepper.o(i._ZN10TMCStepper10TPOWERDOWNEv) for TMCStepper::TPOWERDOWN()
    tmc_util.o(t._ZN34_INTERNAL_12_tmc_util_cpp_7d630fea17tmc_get_registersI9TMCMarlinI14TMC2208StepperLc69ELc48EL8AxisEnum3EEEEvRT_22TMC_get_registers_enum) refers to tmcstepper.o(i._ZN10TMCStepper5TSTEPEv) for TMCStepper::TSTEP()
    tmc_util.o(t._ZN34_INTERNAL_12_tmc_util_cpp_7d630fea17tmc_get_registersI9TMCMarlinI14TMC2208StepperLc69ELc48EL8AxisEnum3EEEEvRT_22TMC_get_registers_enum) refers to tmcstepper.o(i._ZN10TMCStepper8TPWMTHRSEv) for TMCStepper::TPWMTHRS()
    tmc_util.o(t._ZN34_INTERNAL_12_tmc_util_cpp_7d630fea17tmc_get_registersI9TMCMarlinI14TMC2208StepperLc69ELc48EL8AxisEnum3EEEEvRT_22TMC_get_registers_enum) refers to chopconf.o(i._ZN14TMC2208Stepper8CHOPCONFEv) for TMC2208Stepper::CHOPCONF()
    tmc_util.o(t._ZN34_INTERNAL_12_tmc_util_cpp_7d630fea17tmc_get_registersI9TMCMarlinI14TMC2208StepperLc69ELc48EL8AxisEnum3EEEEvRT_22TMC_get_registers_enum) refers to pwmconf.o(i._ZN14TMC2208Stepper7PWMCONFEv) for TMC2208Stepper::PWMCONF()
    tmc_util.o(t._ZN34_INTERNAL_12_tmc_util_cpp_7d630fea17tmc_get_registersI9TMCMarlinI14TMC2208StepperLc69ELc48EL8AxisEnum3EEEEvRT_22TMC_get_registers_enum) refers to tmc2208stepper.o(i._ZN14TMC2208Stepper9PWM_SCALEEv) for TMC2208Stepper::PWM_SCALE()
    tmc_util.o(t._ZN34_INTERNAL_12_tmc_util_cpp_7d630fea17tmc_get_registersI9TMCMarlinI14TMC2208StepperLc69ELc48EL8AxisEnum3EEEEvRT_22TMC_get_registers_enum) refers to tmc_util.o(i._ZN14TMC2208StepperC1ERKS_) for TMC2208Stepper::TMC2208Stepper(const TMC2208Stepper&)
    tmc_util.o(t._ZN34_INTERNAL_12_tmc_util_cpp_7d630fea17tmc_get_registersI9TMCMarlinI14TMC2208StepperLc69ELc48EL8AxisEnum3EEEEvRT_22TMC_get_registers_enum) refers to tmc_util.o(i._ZN34_INTERNAL_12_tmc_util_cpp_7d630fea20tmc_get_ic_registersE14TMC2208Stepper22TMC_get_registers_enum) for [local to tmc_util_cpp]::tmc_get_ic_registers(TMC2208Stepper, TMC_get_registers_enum)
    tmc_util.o(t._ZN34_INTERNAL_12_tmc_util_cpp_7d630fea17tmc_get_registersI9TMCMarlinI14TMC2208StepperLc69ELc48EL8AxisEnum3EEEEvRT_22TMC_get_registers_enum) refers to board_gpio.o(.bss) for Serial2
    tmc_util.o(t._ZN34_INTERNAL_12_tmc_util_cpp_7d630fea17tmc_get_registersI9TMCMarlinI14TMC2208StepperLc88ELc48EL8AxisEnum0EEEEvRT_22TMC_get_registers_enum) refers to marlincore.o(i._ZN14HardwareSerial5writeEi) for HardwareSerial::write(int)
    tmc_util.o(t._ZN34_INTERNAL_12_tmc_util_cpp_7d630fea17tmc_get_registersI9TMCMarlinI14TMC2208StepperLc88ELc48EL8AxisEnum0EEEEvRT_22TMC_get_registers_enum) refers to tmc_util.o(t._ZN10TMCStorageILc88ELc48EE10printLabelEv) for TMCStorage<(char)88, (char)48>::printLabel()
    tmc_util.o(t._ZN34_INTERNAL_12_tmc_util_cpp_7d630fea17tmc_get_registersI9TMCMarlinI14TMC2208StepperLc88ELc48EL8AxisEnum0EEEEvRT_22TMC_get_registers_enum) refers to gconf.o(i._ZN14TMC2208Stepper5GCONFEv) for TMC2208Stepper::GCONF()
    tmc_util.o(t._ZN34_INTERNAL_12_tmc_util_cpp_7d630fea17tmc_get_registersI9TMCMarlinI14TMC2208StepperLc88ELc48EL8AxisEnum0EEEEvRT_22TMC_get_registers_enum) refers to hex_print.o(i._Z14print_hex_longjc) for print_hex_long(unsigned, char)
    tmc_util.o(t._ZN34_INTERNAL_12_tmc_util_cpp_7d630fea17tmc_get_registersI9TMCMarlinI14TMC2208StepperLc88ELc48EL8AxisEnum0EEEEvRT_22TMC_get_registers_enum) refers to ihold_irun.o(i._ZN10TMCStepper10IHOLD_IRUNEv) for TMCStepper::IHOLD_IRUN()
    tmc_util.o(t._ZN34_INTERNAL_12_tmc_util_cpp_7d630fea17tmc_get_registersI9TMCMarlinI14TMC2208StepperLc88ELc48EL8AxisEnum0EEEEvRT_22TMC_get_registers_enum) refers to tmcstepper.o(i._ZN10TMCStepper5GSTATEv) for TMCStepper::GSTAT()
    tmc_util.o(t._ZN34_INTERNAL_12_tmc_util_cpp_7d630fea17tmc_get_registersI9TMCMarlinI14TMC2208StepperLc88ELc48EL8AxisEnum0EEEEvRT_22TMC_get_registers_enum) refers to tmc2208stepper.o(i._ZN14TMC2208Stepper4IOINEv) for TMC2208Stepper::IOIN()
    tmc_util.o(t._ZN34_INTERNAL_12_tmc_util_cpp_7d630fea17tmc_get_registersI9TMCMarlinI14TMC2208StepperLc88ELc48EL8AxisEnum0EEEEvRT_22TMC_get_registers_enum) refers to tmcstepper.o(i._ZN10TMCStepper10TPOWERDOWNEv) for TMCStepper::TPOWERDOWN()
    tmc_util.o(t._ZN34_INTERNAL_12_tmc_util_cpp_7d630fea17tmc_get_registersI9TMCMarlinI14TMC2208StepperLc88ELc48EL8AxisEnum0EEEEvRT_22TMC_get_registers_enum) refers to tmcstepper.o(i._ZN10TMCStepper5TSTEPEv) for TMCStepper::TSTEP()
    tmc_util.o(t._ZN34_INTERNAL_12_tmc_util_cpp_7d630fea17tmc_get_registersI9TMCMarlinI14TMC2208StepperLc88ELc48EL8AxisEnum0EEEEvRT_22TMC_get_registers_enum) refers to tmcstepper.o(i._ZN10TMCStepper8TPWMTHRSEv) for TMCStepper::TPWMTHRS()
    tmc_util.o(t._ZN34_INTERNAL_12_tmc_util_cpp_7d630fea17tmc_get_registersI9TMCMarlinI14TMC2208StepperLc88ELc48EL8AxisEnum0EEEEvRT_22TMC_get_registers_enum) refers to chopconf.o(i._ZN14TMC2208Stepper8CHOPCONFEv) for TMC2208Stepper::CHOPCONF()
    tmc_util.o(t._ZN34_INTERNAL_12_tmc_util_cpp_7d630fea17tmc_get_registersI9TMCMarlinI14TMC2208StepperLc88ELc48EL8AxisEnum0EEEEvRT_22TMC_get_registers_enum) refers to pwmconf.o(i._ZN14TMC2208Stepper7PWMCONFEv) for TMC2208Stepper::PWMCONF()
    tmc_util.o(t._ZN34_INTERNAL_12_tmc_util_cpp_7d630fea17tmc_get_registersI9TMCMarlinI14TMC2208StepperLc88ELc48EL8AxisEnum0EEEEvRT_22TMC_get_registers_enum) refers to tmc2208stepper.o(i._ZN14TMC2208Stepper9PWM_SCALEEv) for TMC2208Stepper::PWM_SCALE()
    tmc_util.o(t._ZN34_INTERNAL_12_tmc_util_cpp_7d630fea17tmc_get_registersI9TMCMarlinI14TMC2208StepperLc88ELc48EL8AxisEnum0EEEEvRT_22TMC_get_registers_enum) refers to tmc_util.o(i._ZN14TMC2208StepperC1ERKS_) for TMC2208Stepper::TMC2208Stepper(const TMC2208Stepper&)
    tmc_util.o(t._ZN34_INTERNAL_12_tmc_util_cpp_7d630fea17tmc_get_registersI9TMCMarlinI14TMC2208StepperLc88ELc48EL8AxisEnum0EEEEvRT_22TMC_get_registers_enum) refers to tmc_util.o(i._ZN34_INTERNAL_12_tmc_util_cpp_7d630fea20tmc_get_ic_registersE14TMC2208Stepper22TMC_get_registers_enum) for [local to tmc_util_cpp]::tmc_get_ic_registers(TMC2208Stepper, TMC_get_registers_enum)
    tmc_util.o(t._ZN34_INTERNAL_12_tmc_util_cpp_7d630fea17tmc_get_registersI9TMCMarlinI14TMC2208StepperLc88ELc48EL8AxisEnum0EEEEvRT_22TMC_get_registers_enum) refers to board_gpio.o(.bss) for Serial2
    tmc_util.o(t._ZN34_INTERNAL_12_tmc_util_cpp_7d630fea17tmc_get_registersI9TMCMarlinI14TMC2208StepperLc89ELc48EL8AxisEnum1EEEEvRT_22TMC_get_registers_enum) refers to marlincore.o(i._ZN14HardwareSerial5writeEi) for HardwareSerial::write(int)
    tmc_util.o(t._ZN34_INTERNAL_12_tmc_util_cpp_7d630fea17tmc_get_registersI9TMCMarlinI14TMC2208StepperLc89ELc48EL8AxisEnum1EEEEvRT_22TMC_get_registers_enum) refers to tmc_util.o(t._ZN10TMCStorageILc89ELc48EE10printLabelEv) for TMCStorage<(char)89, (char)48>::printLabel()
    tmc_util.o(t._ZN34_INTERNAL_12_tmc_util_cpp_7d630fea17tmc_get_registersI9TMCMarlinI14TMC2208StepperLc89ELc48EL8AxisEnum1EEEEvRT_22TMC_get_registers_enum) refers to gconf.o(i._ZN14TMC2208Stepper5GCONFEv) for TMC2208Stepper::GCONF()
    tmc_util.o(t._ZN34_INTERNAL_12_tmc_util_cpp_7d630fea17tmc_get_registersI9TMCMarlinI14TMC2208StepperLc89ELc48EL8AxisEnum1EEEEvRT_22TMC_get_registers_enum) refers to hex_print.o(i._Z14print_hex_longjc) for print_hex_long(unsigned, char)
    tmc_util.o(t._ZN34_INTERNAL_12_tmc_util_cpp_7d630fea17tmc_get_registersI9TMCMarlinI14TMC2208StepperLc89ELc48EL8AxisEnum1EEEEvRT_22TMC_get_registers_enum) refers to ihold_irun.o(i._ZN10TMCStepper10IHOLD_IRUNEv) for TMCStepper::IHOLD_IRUN()
    tmc_util.o(t._ZN34_INTERNAL_12_tmc_util_cpp_7d630fea17tmc_get_registersI9TMCMarlinI14TMC2208StepperLc89ELc48EL8AxisEnum1EEEEvRT_22TMC_get_registers_enum) refers to tmcstepper.o(i._ZN10TMCStepper5GSTATEv) for TMCStepper::GSTAT()
    tmc_util.o(t._ZN34_INTERNAL_12_tmc_util_cpp_7d630fea17tmc_get_registersI9TMCMarlinI14TMC2208StepperLc89ELc48EL8AxisEnum1EEEEvRT_22TMC_get_registers_enum) refers to tmc2208stepper.o(i._ZN14TMC2208Stepper4IOINEv) for TMC2208Stepper::IOIN()
    tmc_util.o(t._ZN34_INTERNAL_12_tmc_util_cpp_7d630fea17tmc_get_registersI9TMCMarlinI14TMC2208StepperLc89ELc48EL8AxisEnum1EEEEvRT_22TMC_get_registers_enum) refers to tmcstepper.o(i._ZN10TMCStepper10TPOWERDOWNEv) for TMCStepper::TPOWERDOWN()
    tmc_util.o(t._ZN34_INTERNAL_12_tmc_util_cpp_7d630fea17tmc_get_registersI9TMCMarlinI14TMC2208StepperLc89ELc48EL8AxisEnum1EEEEvRT_22TMC_get_registers_enum) refers to tmcstepper.o(i._ZN10TMCStepper5TSTEPEv) for TMCStepper::TSTEP()
    tmc_util.o(t._ZN34_INTERNAL_12_tmc_util_cpp_7d630fea17tmc_get_registersI9TMCMarlinI14TMC2208StepperLc89ELc48EL8AxisEnum1EEEEvRT_22TMC_get_registers_enum) refers to tmcstepper.o(i._ZN10TMCStepper8TPWMTHRSEv) for TMCStepper::TPWMTHRS()
    tmc_util.o(t._ZN34_INTERNAL_12_tmc_util_cpp_7d630fea17tmc_get_registersI9TMCMarlinI14TMC2208StepperLc89ELc48EL8AxisEnum1EEEEvRT_22TMC_get_registers_enum) refers to chopconf.o(i._ZN14TMC2208Stepper8CHOPCONFEv) for TMC2208Stepper::CHOPCONF()
    tmc_util.o(t._ZN34_INTERNAL_12_tmc_util_cpp_7d630fea17tmc_get_registersI9TMCMarlinI14TMC2208StepperLc89ELc48EL8AxisEnum1EEEEvRT_22TMC_get_registers_enum) refers to pwmconf.o(i._ZN14TMC2208Stepper7PWMCONFEv) for TMC2208Stepper::PWMCONF()
    tmc_util.o(t._ZN34_INTERNAL_12_tmc_util_cpp_7d630fea17tmc_get_registersI9TMCMarlinI14TMC2208StepperLc89ELc48EL8AxisEnum1EEEEvRT_22TMC_get_registers_enum) refers to tmc2208stepper.o(i._ZN14TMC2208Stepper9PWM_SCALEEv) for TMC2208Stepper::PWM_SCALE()
    tmc_util.o(t._ZN34_INTERNAL_12_tmc_util_cpp_7d630fea17tmc_get_registersI9TMCMarlinI14TMC2208StepperLc89ELc48EL8AxisEnum1EEEEvRT_22TMC_get_registers_enum) refers to tmc_util.o(i._ZN14TMC2208StepperC1ERKS_) for TMC2208Stepper::TMC2208Stepper(const TMC2208Stepper&)
    tmc_util.o(t._ZN34_INTERNAL_12_tmc_util_cpp_7d630fea17tmc_get_registersI9TMCMarlinI14TMC2208StepperLc89ELc48EL8AxisEnum1EEEEvRT_22TMC_get_registers_enum) refers to tmc_util.o(i._ZN34_INTERNAL_12_tmc_util_cpp_7d630fea20tmc_get_ic_registersE14TMC2208Stepper22TMC_get_registers_enum) for [local to tmc_util_cpp]::tmc_get_ic_registers(TMC2208Stepper, TMC_get_registers_enum)
    tmc_util.o(t._ZN34_INTERNAL_12_tmc_util_cpp_7d630fea17tmc_get_registersI9TMCMarlinI14TMC2208StepperLc89ELc48EL8AxisEnum1EEEEvRT_22TMC_get_registers_enum) refers to board_gpio.o(.bss) for Serial2
    tmc_util.o(t._ZN34_INTERNAL_12_tmc_util_cpp_7d630fea17tmc_get_registersI9TMCMarlinI14TMC2208StepperLc90ELc48EL8AxisEnum2EEEEvRT_22TMC_get_registers_enum) refers to marlincore.o(i._ZN14HardwareSerial5writeEi) for HardwareSerial::write(int)
    tmc_util.o(t._ZN34_INTERNAL_12_tmc_util_cpp_7d630fea17tmc_get_registersI9TMCMarlinI14TMC2208StepperLc90ELc48EL8AxisEnum2EEEEvRT_22TMC_get_registers_enum) refers to tmc_util.o(t._ZN10TMCStorageILc90ELc48EE10printLabelEv) for TMCStorage<(char)90, (char)48>::printLabel()
    tmc_util.o(t._ZN34_INTERNAL_12_tmc_util_cpp_7d630fea17tmc_get_registersI9TMCMarlinI14TMC2208StepperLc90ELc48EL8AxisEnum2EEEEvRT_22TMC_get_registers_enum) refers to gconf.o(i._ZN14TMC2208Stepper5GCONFEv) for TMC2208Stepper::GCONF()
    tmc_util.o(t._ZN34_INTERNAL_12_tmc_util_cpp_7d630fea17tmc_get_registersI9TMCMarlinI14TMC2208StepperLc90ELc48EL8AxisEnum2EEEEvRT_22TMC_get_registers_enum) refers to hex_print.o(i._Z14print_hex_longjc) for print_hex_long(unsigned, char)
    tmc_util.o(t._ZN34_INTERNAL_12_tmc_util_cpp_7d630fea17tmc_get_registersI9TMCMarlinI14TMC2208StepperLc90ELc48EL8AxisEnum2EEEEvRT_22TMC_get_registers_enum) refers to ihold_irun.o(i._ZN10TMCStepper10IHOLD_IRUNEv) for TMCStepper::IHOLD_IRUN()
    tmc_util.o(t._ZN34_INTERNAL_12_tmc_util_cpp_7d630fea17tmc_get_registersI9TMCMarlinI14TMC2208StepperLc90ELc48EL8AxisEnum2EEEEvRT_22TMC_get_registers_enum) refers to tmcstepper.o(i._ZN10TMCStepper5GSTATEv) for TMCStepper::GSTAT()
    tmc_util.o(t._ZN34_INTERNAL_12_tmc_util_cpp_7d630fea17tmc_get_registersI9TMCMarlinI14TMC2208StepperLc90ELc48EL8AxisEnum2EEEEvRT_22TMC_get_registers_enum) refers to tmc2208stepper.o(i._ZN14TMC2208Stepper4IOINEv) for TMC2208Stepper::IOIN()
    tmc_util.o(t._ZN34_INTERNAL_12_tmc_util_cpp_7d630fea17tmc_get_registersI9TMCMarlinI14TMC2208StepperLc90ELc48EL8AxisEnum2EEEEvRT_22TMC_get_registers_enum) refers to tmcstepper.o(i._ZN10TMCStepper10TPOWERDOWNEv) for TMCStepper::TPOWERDOWN()
    tmc_util.o(t._ZN34_INTERNAL_12_tmc_util_cpp_7d630fea17tmc_get_registersI9TMCMarlinI14TMC2208StepperLc90ELc48EL8AxisEnum2EEEEvRT_22TMC_get_registers_enum) refers to tmcstepper.o(i._ZN10TMCStepper5TSTEPEv) for TMCStepper::TSTEP()
    tmc_util.o(t._ZN34_INTERNAL_12_tmc_util_cpp_7d630fea17tmc_get_registersI9TMCMarlinI14TMC2208StepperLc90ELc48EL8AxisEnum2EEEEvRT_22TMC_get_registers_enum) refers to tmcstepper.o(i._ZN10TMCStepper8TPWMTHRSEv) for TMCStepper::TPWMTHRS()
    tmc_util.o(t._ZN34_INTERNAL_12_tmc_util_cpp_7d630fea17tmc_get_registersI9TMCMarlinI14TMC2208StepperLc90ELc48EL8AxisEnum2EEEEvRT_22TMC_get_registers_enum) refers to chopconf.o(i._ZN14TMC2208Stepper8CHOPCONFEv) for TMC2208Stepper::CHOPCONF()
    tmc_util.o(t._ZN34_INTERNAL_12_tmc_util_cpp_7d630fea17tmc_get_registersI9TMCMarlinI14TMC2208StepperLc90ELc48EL8AxisEnum2EEEEvRT_22TMC_get_registers_enum) refers to pwmconf.o(i._ZN14TMC2208Stepper7PWMCONFEv) for TMC2208Stepper::PWMCONF()
    tmc_util.o(t._ZN34_INTERNAL_12_tmc_util_cpp_7d630fea17tmc_get_registersI9TMCMarlinI14TMC2208StepperLc90ELc48EL8AxisEnum2EEEEvRT_22TMC_get_registers_enum) refers to tmc2208stepper.o(i._ZN14TMC2208Stepper9PWM_SCALEEv) for TMC2208Stepper::PWM_SCALE()
    tmc_util.o(t._ZN34_INTERNAL_12_tmc_util_cpp_7d630fea17tmc_get_registersI9TMCMarlinI14TMC2208StepperLc90ELc48EL8AxisEnum2EEEEvRT_22TMC_get_registers_enum) refers to tmc_util.o(i._ZN14TMC2208StepperC1ERKS_) for TMC2208Stepper::TMC2208Stepper(const TMC2208Stepper&)
    tmc_util.o(t._ZN34_INTERNAL_12_tmc_util_cpp_7d630fea17tmc_get_registersI9TMCMarlinI14TMC2208StepperLc90ELc48EL8AxisEnum2EEEEvRT_22TMC_get_registers_enum) refers to tmc_util.o(i._ZN34_INTERNAL_12_tmc_util_cpp_7d630fea20tmc_get_ic_registersE14TMC2208Stepper22TMC_get_registers_enum) for [local to tmc_util_cpp]::tmc_get_ic_registers(TMC2208Stepper, TMC_get_registers_enum)
    tmc_util.o(t._ZN34_INTERNAL_12_tmc_util_cpp_7d630fea17tmc_get_registersI9TMCMarlinI14TMC2208StepperLc90ELc48EL8AxisEnum2EEEEvRT_22TMC_get_registers_enum) refers to board_gpio.o(.bss) for Serial2
    tmc_util.o(t._ZN34_INTERNAL_12_tmc_util_cpp_7d630fea20tmc_parse_drv_statusI9TMCMarlinI14TMC2208StepperLc69ELc48EL8AxisEnum3EEEEvRT_19TMC_drv_status_enum) refers to marlincore.o(i._ZN14HardwareSerial5writeEi) for HardwareSerial::write(int)
    tmc_util.o(t._ZN34_INTERNAL_12_tmc_util_cpp_7d630fea20tmc_parse_drv_statusI9TMCMarlinI14TMC2208StepperLc69ELc48EL8AxisEnum3EEEEvRT_19TMC_drv_status_enum) refers to tmc_util.o(t._ZN10TMCStorageILc69ELc48EE10printLabelEv) for TMCStorage<(char)69, (char)48>::printLabel()
    tmc_util.o(t._ZN34_INTERNAL_12_tmc_util_cpp_7d630fea20tmc_parse_drv_statusI9TMCMarlinI14TMC2208StepperLc69ELc48EL8AxisEnum3EEEEvRT_19TMC_drv_status_enum) refers to drv_status.o(i._ZN14TMC2208Stepper4ststEv) for TMC2208Stepper::stst()
    tmc_util.o(t._ZN34_INTERNAL_12_tmc_util_cpp_7d630fea20tmc_parse_drv_statusI9TMCMarlinI14TMC2208StepperLc69ELc48EL8AxisEnum3EEEEvRT_19TMC_drv_status_enum) refers to drv_status.o(i._ZN14TMC2208Stepper3olbEv) for TMC2208Stepper::olb()
    tmc_util.o(t._ZN34_INTERNAL_12_tmc_util_cpp_7d630fea20tmc_parse_drv_statusI9TMCMarlinI14TMC2208StepperLc69ELc48EL8AxisEnum3EEEEvRT_19TMC_drv_status_enum) refers to drv_status.o(i._ZN14TMC2208Stepper3olaEv) for TMC2208Stepper::ola()
    tmc_util.o(t._ZN34_INTERNAL_12_tmc_util_cpp_7d630fea20tmc_parse_drv_statusI9TMCMarlinI14TMC2208StepperLc69ELc48EL8AxisEnum3EEEEvRT_19TMC_drv_status_enum) refers to drv_status.o(i._ZN14TMC2208Stepper4s2gbEv) for TMC2208Stepper::s2gb()
    tmc_util.o(t._ZN34_INTERNAL_12_tmc_util_cpp_7d630fea20tmc_parse_drv_statusI9TMCMarlinI14TMC2208StepperLc69ELc48EL8AxisEnum3EEEEvRT_19TMC_drv_status_enum) refers to drv_status.o(i._ZN14TMC2208Stepper4s2gaEv) for TMC2208Stepper::s2ga()
    tmc_util.o(t._ZN34_INTERNAL_12_tmc_util_cpp_7d630fea20tmc_parse_drv_statusI9TMCMarlinI14TMC2208StepperLc69ELc48EL8AxisEnum3EEEEvRT_19TMC_drv_status_enum) refers to drv_status.o(i._ZN14TMC2208Stepper4otpwEv) for TMC2208Stepper::otpw()
    tmc_util.o(t._ZN34_INTERNAL_12_tmc_util_cpp_7d630fea20tmc_parse_drv_statusI9TMCMarlinI14TMC2208StepperLc69ELc48EL8AxisEnum3EEEEvRT_19TMC_drv_status_enum) refers to drv_status.o(i._ZN14TMC2208Stepper2otEv) for TMC2208Stepper::ot()
    tmc_util.o(t._ZN34_INTERNAL_12_tmc_util_cpp_7d630fea20tmc_parse_drv_statusI9TMCMarlinI14TMC2208StepperLc69ELc48EL8AxisEnum3EEEEvRT_19TMC_drv_status_enum) refers to hex_print.o(i._Z14print_hex_longjc) for print_hex_long(unsigned, char)
    tmc_util.o(t._ZN34_INTERNAL_12_tmc_util_cpp_7d630fea20tmc_parse_drv_statusI9TMCMarlinI14TMC2208StepperLc69ELc48EL8AxisEnum3EEEEvRT_19TMC_drv_status_enum) refers to serial.o(i._Z14serialprintPGMPKc) for serialprintPGM(const char*)
    tmc_util.o(t._ZN34_INTERNAL_12_tmc_util_cpp_7d630fea20tmc_parse_drv_statusI9TMCMarlinI14TMC2208StepperLc69ELc48EL8AxisEnum3EEEEvRT_19TMC_drv_status_enum) refers to tmc_util.o(i._ZN34_INTERNAL_12_tmc_util_cpp_7d630fea21_tmc_parse_drv_statusER14TMC2208Stepper19TMC_drv_status_enum) for [local to tmc_util_cpp]::_tmc_parse_drv_status(TMC2208Stepper&, TMC_drv_status_enum)
    tmc_util.o(t._ZN34_INTERNAL_12_tmc_util_cpp_7d630fea20tmc_parse_drv_statusI9TMCMarlinI14TMC2208StepperLc69ELc48EL8AxisEnum3EEEEvRT_19TMC_drv_status_enum) refers to board_gpio.o(.bss) for Serial2
    tmc_util.o(t._ZN34_INTERNAL_12_tmc_util_cpp_7d630fea20tmc_parse_drv_statusI9TMCMarlinI14TMC2208StepperLc69ELc48EL8AxisEnum3EEEEvRT_19TMC_drv_status_enum) refers to tmc_util.o(.constdata__ZZN34_INTERNAL_12_tmc_util_cpp_7d630fea20tmc_parse_drv_statusI9TMCMarlinI14TMC2208StepperLc69ELc48EL8AxisEnum3EEEEvRT_19TMC_drv_status_enumEs) for void [local to tmc_util_cpp]::tmc_parse_drv_status<TMCMarlin<TMC2208Stepper, (char)69, (char)48, (AxisEnum)3>>(T1&, TMC_drv_status_enum)::string
    tmc_util.o(t._ZN34_INTERNAL_12_tmc_util_cpp_7d630fea20tmc_parse_drv_statusI9TMCMarlinI14TMC2208StepperLc88ELc48EL8AxisEnum0EEEEvRT_19TMC_drv_status_enum) refers to marlincore.o(i._ZN14HardwareSerial5writeEi) for HardwareSerial::write(int)
    tmc_util.o(t._ZN34_INTERNAL_12_tmc_util_cpp_7d630fea20tmc_parse_drv_statusI9TMCMarlinI14TMC2208StepperLc88ELc48EL8AxisEnum0EEEEvRT_19TMC_drv_status_enum) refers to tmc_util.o(t._ZN10TMCStorageILc88ELc48EE10printLabelEv) for TMCStorage<(char)88, (char)48>::printLabel()
    tmc_util.o(t._ZN34_INTERNAL_12_tmc_util_cpp_7d630fea20tmc_parse_drv_statusI9TMCMarlinI14TMC2208StepperLc88ELc48EL8AxisEnum0EEEEvRT_19TMC_drv_status_enum) refers to drv_status.o(i._ZN14TMC2208Stepper4ststEv) for TMC2208Stepper::stst()
    tmc_util.o(t._ZN34_INTERNAL_12_tmc_util_cpp_7d630fea20tmc_parse_drv_statusI9TMCMarlinI14TMC2208StepperLc88ELc48EL8AxisEnum0EEEEvRT_19TMC_drv_status_enum) refers to drv_status.o(i._ZN14TMC2208Stepper3olbEv) for TMC2208Stepper::olb()
    tmc_util.o(t._ZN34_INTERNAL_12_tmc_util_cpp_7d630fea20tmc_parse_drv_statusI9TMCMarlinI14TMC2208StepperLc88ELc48EL8AxisEnum0EEEEvRT_19TMC_drv_status_enum) refers to drv_status.o(i._ZN14TMC2208Stepper3olaEv) for TMC2208Stepper::ola()
    tmc_util.o(t._ZN34_INTERNAL_12_tmc_util_cpp_7d630fea20tmc_parse_drv_statusI9TMCMarlinI14TMC2208StepperLc88ELc48EL8AxisEnum0EEEEvRT_19TMC_drv_status_enum) refers to drv_status.o(i._ZN14TMC2208Stepper4s2gbEv) for TMC2208Stepper::s2gb()
    tmc_util.o(t._ZN34_INTERNAL_12_tmc_util_cpp_7d630fea20tmc_parse_drv_statusI9TMCMarlinI14TMC2208StepperLc88ELc48EL8AxisEnum0EEEEvRT_19TMC_drv_status_enum) refers to drv_status.o(i._ZN14TMC2208Stepper4s2gaEv) for TMC2208Stepper::s2ga()
    tmc_util.o(t._ZN34_INTERNAL_12_tmc_util_cpp_7d630fea20tmc_parse_drv_statusI9TMCMarlinI14TMC2208StepperLc88ELc48EL8AxisEnum0EEEEvRT_19TMC_drv_status_enum) refers to drv_status.o(i._ZN14TMC2208Stepper4otpwEv) for TMC2208Stepper::otpw()
    tmc_util.o(t._ZN34_INTERNAL_12_tmc_util_cpp_7d630fea20tmc_parse_drv_statusI9TMCMarlinI14TMC2208StepperLc88ELc48EL8AxisEnum0EEEEvRT_19TMC_drv_status_enum) refers to drv_status.o(i._ZN14TMC2208Stepper2otEv) for TMC2208Stepper::ot()
    tmc_util.o(t._ZN34_INTERNAL_12_tmc_util_cpp_7d630fea20tmc_parse_drv_statusI9TMCMarlinI14TMC2208StepperLc88ELc48EL8AxisEnum0EEEEvRT_19TMC_drv_status_enum) refers to hex_print.o(i._Z14print_hex_longjc) for print_hex_long(unsigned, char)
    tmc_util.o(t._ZN34_INTERNAL_12_tmc_util_cpp_7d630fea20tmc_parse_drv_statusI9TMCMarlinI14TMC2208StepperLc88ELc48EL8AxisEnum0EEEEvRT_19TMC_drv_status_enum) refers to serial.o(i._Z14serialprintPGMPKc) for serialprintPGM(const char*)
    tmc_util.o(t._ZN34_INTERNAL_12_tmc_util_cpp_7d630fea20tmc_parse_drv_statusI9TMCMarlinI14TMC2208StepperLc88ELc48EL8AxisEnum0EEEEvRT_19TMC_drv_status_enum) refers to tmc_util.o(i._ZN34_INTERNAL_12_tmc_util_cpp_7d630fea21_tmc_parse_drv_statusER14TMC2208Stepper19TMC_drv_status_enum) for [local to tmc_util_cpp]::_tmc_parse_drv_status(TMC2208Stepper&, TMC_drv_status_enum)
    tmc_util.o(t._ZN34_INTERNAL_12_tmc_util_cpp_7d630fea20tmc_parse_drv_statusI9TMCMarlinI14TMC2208StepperLc88ELc48EL8AxisEnum0EEEEvRT_19TMC_drv_status_enum) refers to board_gpio.o(.bss) for Serial2
    tmc_util.o(t._ZN34_INTERNAL_12_tmc_util_cpp_7d630fea20tmc_parse_drv_statusI9TMCMarlinI14TMC2208StepperLc88ELc48EL8AxisEnum0EEEEvRT_19TMC_drv_status_enum) refers to tmc_util.o(.constdata__ZZN34_INTERNAL_12_tmc_util_cpp_7d630fea20tmc_parse_drv_statusI9TMCMarlinI14TMC2208StepperLc88ELc48EL8AxisEnum0EEEEvRT_19TMC_drv_status_enumEs) for void [local to tmc_util_cpp]::tmc_parse_drv_status<TMCMarlin<TMC2208Stepper, (char)88, (char)48, (AxisEnum)0>>(T1&, TMC_drv_status_enum)::string
    tmc_util.o(t._ZN34_INTERNAL_12_tmc_util_cpp_7d630fea20tmc_parse_drv_statusI9TMCMarlinI14TMC2208StepperLc89ELc48EL8AxisEnum1EEEEvRT_19TMC_drv_status_enum) refers to marlincore.o(i._ZN14HardwareSerial5writeEi) for HardwareSerial::write(int)
    tmc_util.o(t._ZN34_INTERNAL_12_tmc_util_cpp_7d630fea20tmc_parse_drv_statusI9TMCMarlinI14TMC2208StepperLc89ELc48EL8AxisEnum1EEEEvRT_19TMC_drv_status_enum) refers to tmc_util.o(t._ZN10TMCStorageILc89ELc48EE10printLabelEv) for TMCStorage<(char)89, (char)48>::printLabel()
    tmc_util.o(t._ZN34_INTERNAL_12_tmc_util_cpp_7d630fea20tmc_parse_drv_statusI9TMCMarlinI14TMC2208StepperLc89ELc48EL8AxisEnum1EEEEvRT_19TMC_drv_status_enum) refers to drv_status.o(i._ZN14TMC2208Stepper4ststEv) for TMC2208Stepper::stst()
    tmc_util.o(t._ZN34_INTERNAL_12_tmc_util_cpp_7d630fea20tmc_parse_drv_statusI9TMCMarlinI14TMC2208StepperLc89ELc48EL8AxisEnum1EEEEvRT_19TMC_drv_status_enum) refers to drv_status.o(i._ZN14TMC2208Stepper3olbEv) for TMC2208Stepper::olb()
    tmc_util.o(t._ZN34_INTERNAL_12_tmc_util_cpp_7d630fea20tmc_parse_drv_statusI9TMCMarlinI14TMC2208StepperLc89ELc48EL8AxisEnum1EEEEvRT_19TMC_drv_status_enum) refers to drv_status.o(i._ZN14TMC2208Stepper3olaEv) for TMC2208Stepper::ola()
    tmc_util.o(t._ZN34_INTERNAL_12_tmc_util_cpp_7d630fea20tmc_parse_drv_statusI9TMCMarlinI14TMC2208StepperLc89ELc48EL8AxisEnum1EEEEvRT_19TMC_drv_status_enum) refers to drv_status.o(i._ZN14TMC2208Stepper4s2gbEv) for TMC2208Stepper::s2gb()
    tmc_util.o(t._ZN34_INTERNAL_12_tmc_util_cpp_7d630fea20tmc_parse_drv_statusI9TMCMarlinI14TMC2208StepperLc89ELc48EL8AxisEnum1EEEEvRT_19TMC_drv_status_enum) refers to drv_status.o(i._ZN14TMC2208Stepper4s2gaEv) for TMC2208Stepper::s2ga()
    tmc_util.o(t._ZN34_INTERNAL_12_tmc_util_cpp_7d630fea20tmc_parse_drv_statusI9TMCMarlinI14TMC2208StepperLc89ELc48EL8AxisEnum1EEEEvRT_19TMC_drv_status_enum) refers to drv_status.o(i._ZN14TMC2208Stepper4otpwEv) for TMC2208Stepper::otpw()
    tmc_util.o(t._ZN34_INTERNAL_12_tmc_util_cpp_7d630fea20tmc_parse_drv_statusI9TMCMarlinI14TMC2208StepperLc89ELc48EL8AxisEnum1EEEEvRT_19TMC_drv_status_enum) refers to drv_status.o(i._ZN14TMC2208Stepper2otEv) for TMC2208Stepper::ot()
    tmc_util.o(t._ZN34_INTERNAL_12_tmc_util_cpp_7d630fea20tmc_parse_drv_statusI9TMCMarlinI14TMC2208StepperLc89ELc48EL8AxisEnum1EEEEvRT_19TMC_drv_status_enum) refers to hex_print.o(i._Z14print_hex_longjc) for print_hex_long(unsigned, char)
    tmc_util.o(t._ZN34_INTERNAL_12_tmc_util_cpp_7d630fea20tmc_parse_drv_statusI9TMCMarlinI14TMC2208StepperLc89ELc48EL8AxisEnum1EEEEvRT_19TMC_drv_status_enum) refers to serial.o(i._Z14serialprintPGMPKc) for serialprintPGM(const char*)
    tmc_util.o(t._ZN34_INTERNAL_12_tmc_util_cpp_7d630fea20tmc_parse_drv_statusI9TMCMarlinI14TMC2208StepperLc89ELc48EL8AxisEnum1EEEEvRT_19TMC_drv_status_enum) refers to tmc_util.o(i._ZN34_INTERNAL_12_tmc_util_cpp_7d630fea21_tmc_parse_drv_statusER14TMC2208Stepper19TMC_drv_status_enum) for [local to tmc_util_cpp]::_tmc_parse_drv_status(TMC2208Stepper&, TMC_drv_status_enum)
    tmc_util.o(t._ZN34_INTERNAL_12_tmc_util_cpp_7d630fea20tmc_parse_drv_statusI9TMCMarlinI14TMC2208StepperLc89ELc48EL8AxisEnum1EEEEvRT_19TMC_drv_status_enum) refers to board_gpio.o(.bss) for Serial2
    tmc_util.o(t._ZN34_INTERNAL_12_tmc_util_cpp_7d630fea20tmc_parse_drv_statusI9TMCMarlinI14TMC2208StepperLc89ELc48EL8AxisEnum1EEEEvRT_19TMC_drv_status_enum) refers to tmc_util.o(.constdata__ZZN34_INTERNAL_12_tmc_util_cpp_7d630fea20tmc_parse_drv_statusI9TMCMarlinI14TMC2208StepperLc89ELc48EL8AxisEnum1EEEEvRT_19TMC_drv_status_enumEs) for void [local to tmc_util_cpp]::tmc_parse_drv_status<TMCMarlin<TMC2208Stepper, (char)89, (char)48, (AxisEnum)1>>(T1&, TMC_drv_status_enum)::string
    tmc_util.o(t._ZN34_INTERNAL_12_tmc_util_cpp_7d630fea20tmc_parse_drv_statusI9TMCMarlinI14TMC2208StepperLc90ELc48EL8AxisEnum2EEEEvRT_19TMC_drv_status_enum) refers to marlincore.o(i._ZN14HardwareSerial5writeEi) for HardwareSerial::write(int)
    tmc_util.o(t._ZN34_INTERNAL_12_tmc_util_cpp_7d630fea20tmc_parse_drv_statusI9TMCMarlinI14TMC2208StepperLc90ELc48EL8AxisEnum2EEEEvRT_19TMC_drv_status_enum) refers to tmc_util.o(t._ZN10TMCStorageILc90ELc48EE10printLabelEv) for TMCStorage<(char)90, (char)48>::printLabel()
    tmc_util.o(t._ZN34_INTERNAL_12_tmc_util_cpp_7d630fea20tmc_parse_drv_statusI9TMCMarlinI14TMC2208StepperLc90ELc48EL8AxisEnum2EEEEvRT_19TMC_drv_status_enum) refers to drv_status.o(i._ZN14TMC2208Stepper4ststEv) for TMC2208Stepper::stst()
    tmc_util.o(t._ZN34_INTERNAL_12_tmc_util_cpp_7d630fea20tmc_parse_drv_statusI9TMCMarlinI14TMC2208StepperLc90ELc48EL8AxisEnum2EEEEvRT_19TMC_drv_status_enum) refers to drv_status.o(i._ZN14TMC2208Stepper3olbEv) for TMC2208Stepper::olb()
    tmc_util.o(t._ZN34_INTERNAL_12_tmc_util_cpp_7d630fea20tmc_parse_drv_statusI9TMCMarlinI14TMC2208StepperLc90ELc48EL8AxisEnum2EEEEvRT_19TMC_drv_status_enum) refers to drv_status.o(i._ZN14TMC2208Stepper3olaEv) for TMC2208Stepper::ola()
    tmc_util.o(t._ZN34_INTERNAL_12_tmc_util_cpp_7d630fea20tmc_parse_drv_statusI9TMCMarlinI14TMC2208StepperLc90ELc48EL8AxisEnum2EEEEvRT_19TMC_drv_status_enum) refers to drv_status.o(i._ZN14TMC2208Stepper4s2gbEv) for TMC2208Stepper::s2gb()
    tmc_util.o(t._ZN34_INTERNAL_12_tmc_util_cpp_7d630fea20tmc_parse_drv_statusI9TMCMarlinI14TMC2208StepperLc90ELc48EL8AxisEnum2EEEEvRT_19TMC_drv_status_enum) refers to drv_status.o(i._ZN14TMC2208Stepper4s2gaEv) for TMC2208Stepper::s2ga()
    tmc_util.o(t._ZN34_INTERNAL_12_tmc_util_cpp_7d630fea20tmc_parse_drv_statusI9TMCMarlinI14TMC2208StepperLc90ELc48EL8AxisEnum2EEEEvRT_19TMC_drv_status_enum) refers to drv_status.o(i._ZN14TMC2208Stepper4otpwEv) for TMC2208Stepper::otpw()
    tmc_util.o(t._ZN34_INTERNAL_12_tmc_util_cpp_7d630fea20tmc_parse_drv_statusI9TMCMarlinI14TMC2208StepperLc90ELc48EL8AxisEnum2EEEEvRT_19TMC_drv_status_enum) refers to drv_status.o(i._ZN14TMC2208Stepper2otEv) for TMC2208Stepper::ot()
    tmc_util.o(t._ZN34_INTERNAL_12_tmc_util_cpp_7d630fea20tmc_parse_drv_statusI9TMCMarlinI14TMC2208StepperLc90ELc48EL8AxisEnum2EEEEvRT_19TMC_drv_status_enum) refers to hex_print.o(i._Z14print_hex_longjc) for print_hex_long(unsigned, char)
    tmc_util.o(t._ZN34_INTERNAL_12_tmc_util_cpp_7d630fea20tmc_parse_drv_statusI9TMCMarlinI14TMC2208StepperLc90ELc48EL8AxisEnum2EEEEvRT_19TMC_drv_status_enum) refers to serial.o(i._Z14serialprintPGMPKc) for serialprintPGM(const char*)
    tmc_util.o(t._ZN34_INTERNAL_12_tmc_util_cpp_7d630fea20tmc_parse_drv_statusI9TMCMarlinI14TMC2208StepperLc90ELc48EL8AxisEnum2EEEEvRT_19TMC_drv_status_enum) refers to tmc_util.o(i._ZN34_INTERNAL_12_tmc_util_cpp_7d630fea21_tmc_parse_drv_statusER14TMC2208Stepper19TMC_drv_status_enum) for [local to tmc_util_cpp]::_tmc_parse_drv_status(TMC2208Stepper&, TMC_drv_status_enum)
    tmc_util.o(t._ZN34_INTERNAL_12_tmc_util_cpp_7d630fea20tmc_parse_drv_statusI9TMCMarlinI14TMC2208StepperLc90ELc48EL8AxisEnum2EEEEvRT_19TMC_drv_status_enum) refers to board_gpio.o(.bss) for Serial2
    tmc_util.o(t._ZN34_INTERNAL_12_tmc_util_cpp_7d630fea20tmc_parse_drv_statusI9TMCMarlinI14TMC2208StepperLc90ELc48EL8AxisEnum2EEEEvRT_19TMC_drv_status_enum) refers to tmc_util.o(.constdata__ZZN34_INTERNAL_12_tmc_util_cpp_7d630fea20tmc_parse_drv_statusI9TMCMarlinI14TMC2208StepperLc90ELc48EL8AxisEnum2EEEEvRT_19TMC_drv_status_enumEs) for void [local to tmc_util_cpp]::tmc_parse_drv_status<TMCMarlin<TMC2208Stepper, (char)90, (char)48, (AxisEnum)2>>(T1&, TMC_drv_status_enum)::string
    tmc_util.o(.ARM.exidx) refers to tmc_util.o(i._ZN34_INTERNAL_12_tmc_util_cpp_7d630fea13get_pwm_scaleER14TMC2208Stepper) for i._ZN34_INTERNAL_12_tmc_util_cpp_7d630fea13get_pwm_scaleER14TMC2208Stepper
    tmc_util.o(.ARM.exidx) refers to tmc_util.o(i._ZN34_INTERNAL_12_tmc_util_cpp_7d630fea15get_driver_dataER14TMC2208Stepper) for i._ZN34_INTERNAL_12_tmc_util_cpp_7d630fea15get_driver_dataER14TMC2208Stepper
    tmc_util.o(.ARM.exidx) refers to tmc_util.o(i._ZN34_INTERNAL_12_tmc_util_cpp_7d630fea21_tmc_parse_drv_statusER14TMC2208Stepper19TMC_drv_status_enum) for i._ZN34_INTERNAL_12_tmc_util_cpp_7d630fea21_tmc_parse_drv_statusER14TMC2208Stepper19TMC_drv_status_enum
    tmc_util.o(.ARM.exidx) refers to tmc_util.o(t._ZN34_INTERNAL_12_tmc_util_cpp_7d630fea20tmc_parse_drv_statusI9TMCMarlinI14TMC2208StepperLc69ELc48EL8AxisEnum3EEEEvRT_19TMC_drv_status_enum) for t._ZN34_INTERNAL_12_tmc_util_cpp_7d630fea20tmc_parse_drv_statusI9TMCMarlinI14TMC2208StepperLc69ELc48EL8AxisEnum3EEEEvRT_19TMC_drv_status_enum
    tmc_util.o(.ARM.exidx) refers to tmc_util.o(t._ZN34_INTERNAL_12_tmc_util_cpp_7d630fea20tmc_parse_drv_statusI9TMCMarlinI14TMC2208StepperLc90ELc48EL8AxisEnum2EEEEvRT_19TMC_drv_status_enum) for t._ZN34_INTERNAL_12_tmc_util_cpp_7d630fea20tmc_parse_drv_statusI9TMCMarlinI14TMC2208StepperLc90ELc48EL8AxisEnum2EEEEvRT_19TMC_drv_status_enum
    tmc_util.o(.ARM.exidx) refers to tmc_util.o(t._ZN34_INTERNAL_12_tmc_util_cpp_7d630fea20tmc_parse_drv_statusI9TMCMarlinI14TMC2208StepperLc89ELc48EL8AxisEnum1EEEEvRT_19TMC_drv_status_enum) for t._ZN34_INTERNAL_12_tmc_util_cpp_7d630fea20tmc_parse_drv_statusI9TMCMarlinI14TMC2208StepperLc89ELc48EL8AxisEnum1EEEEvRT_19TMC_drv_status_enum
    tmc_util.o(.ARM.exidx) refers to tmc_util.o(t._ZN34_INTERNAL_12_tmc_util_cpp_7d630fea20tmc_parse_drv_statusI9TMCMarlinI14TMC2208StepperLc88ELc48EL8AxisEnum0EEEEvRT_19TMC_drv_status_enum) for t._ZN34_INTERNAL_12_tmc_util_cpp_7d630fea20tmc_parse_drv_statusI9TMCMarlinI14TMC2208StepperLc88ELc48EL8AxisEnum0EEEEvRT_19TMC_drv_status_enum
    tmc_util.o(.ARM.exidx) refers to tmc_util.o(i._ZN34_INTERNAL_12_tmc_util_cpp_7d630fea15drv_status_loopE19TMC_drv_status_enumbbbb) for i._ZN34_INTERNAL_12_tmc_util_cpp_7d630fea15drv_status_loopE19TMC_drv_status_enumbbbb
    tmc_util.o(.ARM.exidx) refers to tmc_util.o(i._ZN34_INTERNAL_12_tmc_util_cpp_7d630fea11_tmc_statusER14TMC2208Stepper14TMC_debug_enum) for i._ZN34_INTERNAL_12_tmc_util_cpp_7d630fea11_tmc_statusER14TMC2208Stepper14TMC_debug_enum
    tmc_util.o(.ARM.exidx) refers to tmc_util.o(t._ZN34_INTERNAL_12_tmc_util_cpp_7d630fea12print_vsenseI9TMCMarlinI14TMC2208StepperLc69ELc48EL8AxisEnum3EEEEvRT_) for t._ZN34_INTERNAL_12_tmc_util_cpp_7d630fea12print_vsenseI9TMCMarlinI14TMC2208StepperLc69ELc48EL8AxisEnum3EEEEvRT_
    tmc_util.o(.ARM.exidx) refers to tmc_util.o(t._ZN34_INTERNAL_12_tmc_util_cpp_7d630fea10tmc_statusI9TMCMarlinI14TMC2208StepperLc69ELc48EL8AxisEnum3EEEEvRT_14TMC_debug_enum) for t._ZN34_INTERNAL_12_tmc_util_cpp_7d630fea10tmc_statusI9TMCMarlinI14TMC2208StepperLc69ELc48EL8AxisEnum3EEEEvRT_14TMC_debug_enum
    tmc_util.o(.ARM.exidx) refers to tmc_util.o(t._ZN34_INTERNAL_12_tmc_util_cpp_7d630fea12print_vsenseI9TMCMarlinI14TMC2208StepperLc90ELc48EL8AxisEnum2EEEEvRT_) for t._ZN34_INTERNAL_12_tmc_util_cpp_7d630fea12print_vsenseI9TMCMarlinI14TMC2208StepperLc90ELc48EL8AxisEnum2EEEEvRT_
    tmc_util.o(.ARM.exidx) refers to tmc_util.o(t._ZN34_INTERNAL_12_tmc_util_cpp_7d630fea10tmc_statusI9TMCMarlinI14TMC2208StepperLc90ELc48EL8AxisEnum2EEEEvRT_14TMC_debug_enum) for t._ZN34_INTERNAL_12_tmc_util_cpp_7d630fea10tmc_statusI9TMCMarlinI14TMC2208StepperLc90ELc48EL8AxisEnum2EEEEvRT_14TMC_debug_enum
    tmc_util.o(.ARM.exidx) refers to tmc_util.o(t._ZN34_INTERNAL_12_tmc_util_cpp_7d630fea12print_vsenseI9TMCMarlinI14TMC2208StepperLc89ELc48EL8AxisEnum1EEEEvRT_) for t._ZN34_INTERNAL_12_tmc_util_cpp_7d630fea12print_vsenseI9TMCMarlinI14TMC2208StepperLc89ELc48EL8AxisEnum1EEEEvRT_
    tmc_util.o(.ARM.exidx) refers to tmc_util.o(t._ZN34_INTERNAL_12_tmc_util_cpp_7d630fea10tmc_statusI9TMCMarlinI14TMC2208StepperLc89ELc48EL8AxisEnum1EEEEvRT_14TMC_debug_enum) for t._ZN34_INTERNAL_12_tmc_util_cpp_7d630fea10tmc_statusI9TMCMarlinI14TMC2208StepperLc89ELc48EL8AxisEnum1EEEEvRT_14TMC_debug_enum
    tmc_util.o(.ARM.exidx) refers to tmc_util.o(t._ZN34_INTERNAL_12_tmc_util_cpp_7d630fea12print_vsenseI9TMCMarlinI14TMC2208StepperLc88ELc48EL8AxisEnum0EEEEvRT_) for t._ZN34_INTERNAL_12_tmc_util_cpp_7d630fea12print_vsenseI9TMCMarlinI14TMC2208StepperLc88ELc48EL8AxisEnum0EEEEvRT_
    tmc_util.o(.ARM.exidx) refers to tmc_util.o(t._ZN34_INTERNAL_12_tmc_util_cpp_7d630fea10tmc_statusI9TMCMarlinI14TMC2208StepperLc88ELc48EL8AxisEnum0EEEEvRT_14TMC_debug_enum) for t._ZN34_INTERNAL_12_tmc_util_cpp_7d630fea10tmc_statusI9TMCMarlinI14TMC2208StepperLc88ELc48EL8AxisEnum0EEEEvRT_14TMC_debug_enum
    tmc_util.o(.ARM.exidx) refers to tmc_util.o(i._ZN34_INTERNAL_12_tmc_util_cpp_7d630fea14tmc_debug_loopE14TMC_debug_enumbbbb) for i._ZN34_INTERNAL_12_tmc_util_cpp_7d630fea14tmc_debug_loopE14TMC_debug_enumbbbb
    tmc_util.o(.ARM.exidx) refers to tmc_util.o(i._Z14tmc_report_allbbbb) for i._Z14tmc_report_allbbbb
    tmc_util.o(.ARM.exidx) refers to tmc_util.o(i._Z19report_driver_errorRK15TMC_driver_data) for i._Z19report_driver_errorRK15TMC_driver_data
    tmc_util.o(.ARM.exidx) refers to tmc_util.o(i._Z19monitor_tmc_driversv) for i._Z19monitor_tmc_driversv
    tmc_util.o(.ARM.exidx) refers to tmc_util.o(i._Z23tmc_set_report_intervalt) for i._Z23tmc_set_report_intervalt
    tmc_util.o(.ARM.exidx) refers to tmc_util.o(i._ZN34_INTERNAL_12_tmc_util_cpp_7d630fea20tmc_get_ic_registersE14TMC2208Stepper22TMC_get_registers_enum) for i._ZN34_INTERNAL_12_tmc_util_cpp_7d630fea20tmc_get_ic_registersE14TMC2208Stepper22TMC_get_registers_enum
    tmc_util.o(.ARM.exidx) refers to tmc_util.o(t._ZN34_INTERNAL_12_tmc_util_cpp_7d630fea17tmc_get_registersI9TMCMarlinI14TMC2208StepperLc69ELc48EL8AxisEnum3EEEEvRT_22TMC_get_registers_enum) for t._ZN34_INTERNAL_12_tmc_util_cpp_7d630fea17tmc_get_registersI9TMCMarlinI14TMC2208StepperLc69ELc48EL8AxisEnum3EEEEvRT_22TMC_get_registers_enum
    tmc_util.o(.ARM.exidx) refers to tmc_util.o(t._ZN34_INTERNAL_12_tmc_util_cpp_7d630fea17tmc_get_registersI9TMCMarlinI14TMC2208StepperLc90ELc48EL8AxisEnum2EEEEvRT_22TMC_get_registers_enum) for t._ZN34_INTERNAL_12_tmc_util_cpp_7d630fea17tmc_get_registersI9TMCMarlinI14TMC2208StepperLc90ELc48EL8AxisEnum2EEEEvRT_22TMC_get_registers_enum
    tmc_util.o(.ARM.exidx) refers to tmc_util.o(t._ZN34_INTERNAL_12_tmc_util_cpp_7d630fea17tmc_get_registersI9TMCMarlinI14TMC2208StepperLc89ELc48EL8AxisEnum1EEEEvRT_22TMC_get_registers_enum) for t._ZN34_INTERNAL_12_tmc_util_cpp_7d630fea17tmc_get_registersI9TMCMarlinI14TMC2208StepperLc89ELc48EL8AxisEnum1EEEEvRT_22TMC_get_registers_enum
    tmc_util.o(.ARM.exidx) refers to tmc_util.o(t._ZN34_INTERNAL_12_tmc_util_cpp_7d630fea17tmc_get_registersI9TMCMarlinI14TMC2208StepperLc88ELc48EL8AxisEnum0EEEEvRT_22TMC_get_registers_enum) for t._ZN34_INTERNAL_12_tmc_util_cpp_7d630fea17tmc_get_registersI9TMCMarlinI14TMC2208StepperLc88ELc48EL8AxisEnum0EEEEvRT_22TMC_get_registers_enum
    tmc_util.o(.ARM.exidx) refers to tmc_util.o(i._ZN34_INTERNAL_12_tmc_util_cpp_7d630fea17tmc_get_registersE22TMC_get_registers_enumbbbb) for i._ZN34_INTERNAL_12_tmc_util_cpp_7d630fea17tmc_get_registersE22TMC_get_registers_enumbbbb
    tmc_util.o(.ARM.exidx) refers to tmc_util.o(i._Z17tmc_get_registersbbbb) for i._Z17tmc_get_registersbbbb
    tmc_util.o(.ARM.exidx) refers to tmc_util.o(t._ZN34_INTERNAL_12_tmc_util_cpp_7d630fea15test_connectionI9TMCMarlinI14TMC2208StepperLc69ELc48EL8AxisEnum3EEEEbRT_) for t._ZN34_INTERNAL_12_tmc_util_cpp_7d630fea15test_connectionI9TMCMarlinI14TMC2208StepperLc69ELc48EL8AxisEnum3EEEEbRT_
    tmc_util.o(.ARM.exidx) refers to tmc_util.o(t._ZN34_INTERNAL_12_tmc_util_cpp_7d630fea15test_connectionI9TMCMarlinI14TMC2208StepperLc90ELc48EL8AxisEnum2EEEEbRT_) for t._ZN34_INTERNAL_12_tmc_util_cpp_7d630fea15test_connectionI9TMCMarlinI14TMC2208StepperLc90ELc48EL8AxisEnum2EEEEbRT_
    tmc_util.o(.ARM.exidx) refers to tmc_util.o(t._ZN34_INTERNAL_12_tmc_util_cpp_7d630fea15test_connectionI9TMCMarlinI14TMC2208StepperLc89ELc48EL8AxisEnum1EEEEbRT_) for t._ZN34_INTERNAL_12_tmc_util_cpp_7d630fea15test_connectionI9TMCMarlinI14TMC2208StepperLc89ELc48EL8AxisEnum1EEEEbRT_
    tmc_util.o(.ARM.exidx) refers to tmc_util.o(t._ZN34_INTERNAL_12_tmc_util_cpp_7d630fea15test_connectionI9TMCMarlinI14TMC2208StepperLc88ELc48EL8AxisEnum0EEEEbRT_) for t._ZN34_INTERNAL_12_tmc_util_cpp_7d630fea15test_connectionI9TMCMarlinI14TMC2208StepperLc88ELc48EL8AxisEnum0EEEEbRT_
    tmc_util.o(.ARM.exidx) refers to tmc_util.o(i._Z19test_tmc_connectionbbbb) for i._Z19test_tmc_connectionbbbb
    bedlevel.o(i._Z14print_2d_arrayhhhPFfhhE) refers to serial.o(i._Z13serial_spacesh) for serial_spaces(unsigned char)
    bedlevel.o(i._Z14print_2d_arrayhhhPFfhhE) refers to print.o(i._ZN5Print5printEii) for Print::print(int, int)
    bedlevel.o(i._Z14print_2d_arrayhhhPFfhhE) refers to marlincore.o(i._ZN14HardwareSerial5writeEi) for HardwareSerial::write(int)
    bedlevel.o(i._Z14print_2d_arrayhhhPFfhhE) refers to f2d.o(.text) for __aeabi_f2d
    bedlevel.o(i._Z14print_2d_arrayhhhPFfhhE) refers to print.o(i._ZN5Print5printEdi) for Print::print(double, int)
    bedlevel.o(i._Z14print_2d_arrayhhhPFfhhE) refers to board_gpio.o(.bss) for Serial2
    bedlevel.o(i._Z15reset_bed_levelv) refers to bedlevel.o(i._Z24set_bed_leveling_enabledb) for set_bed_leveling_enabled(bool)
    bedlevel.o(i._Z15reset_bed_levelv) refers to serial.o(.data) for marlin_debug_flags
    bedlevel.o(i._Z15reset_bed_levelv) refers to abl.o(.data) for bilinear_start
    bedlevel.o(i._Z15reset_bed_levelv) refers to abl.o(.bss) for z_values
    bedlevel.o(i._Z17leveling_is_validv) refers to abl.o(.data) for bilinear_grid_spacing
    bedlevel.o(i._Z17set_z_fade_heightfb) refers to bedlevel.o(i._Z24set_bed_leveling_enabledb) for set_bed_leveling_enabled(bool)
    bedlevel.o(i._Z17set_z_fade_heightfb) refers to motion.o(i._Z23report_current_positionv) for report_current_position()
    bedlevel.o(i._Z17set_z_fade_heightfb) refers to planner.o(.data) for Planner::z_fade_height
    bedlevel.o(i._Z17set_z_fade_heightfb) refers to motion.o(.data) for current_position
    bedlevel.o(i._Z24set_bed_leveling_enabledb) refers to bedlevel.o(i._Z17leveling_is_validv) for leveling_is_valid()
    bedlevel.o(i._Z24set_bed_leveling_enabledb) refers to planner.o(i._ZN7Planner11synchronizeEv) for Planner::synchronize()
    bedlevel.o(i._Z24set_bed_leveling_enabledb) refers to abl.o(i._Z17bilinear_z_offsetRK5XYvalIfE) for bilinear_z_offset(const XYval<float>&)
    bedlevel.o(i._Z24set_bed_leveling_enabledb) refers to planner.o(i._ZN7Planner14apply_levelingER6XYZvalIfE) for Planner::apply_leveling(XYZval<float>&)
    bedlevel.o(i._Z24set_bed_leveling_enabledb) refers to planner.o(i._ZN7Planner16unapply_levelingER6XYZvalIfE) for Planner::unapply_leveling(XYZval<float>&)
    bedlevel.o(i._Z24set_bed_leveling_enabledb) refers to motion.o(i._Z18sync_plan_positionv) for sync_plan_position()
    bedlevel.o(i._Z24set_bed_leveling_enabledb) refers to planner.o(.data) for Planner::leveling_active
    bedlevel.o(i._Z24set_bed_leveling_enabledb) refers to bedlevel.o(.constdata) for .constdata
    bedlevel.o(i._Z24set_bed_leveling_enabledb) refers to serial.o(.data) for marlin_debug_flags
    bedlevel.o(i._Z24set_bed_leveling_enabledb) refers to motion.o(.data) for current_position
    bedlevel.o(i._ZN25TemporaryBedLevelingStateC1Eb) refers to bedlevel.o(i._Z24set_bed_leveling_enabledb) for set_bed_leveling_enabled(bool)
    bedlevel.o(i._ZN25TemporaryBedLevelingStateC1Eb) refers to planner.o(.data) for Planner::leveling_active
    bedlevel.o(.ARM.exidx) refers to bedlevel.o(i._Z17leveling_is_validv) for i._Z17leveling_is_validv
    bedlevel.o(.ARM.exidx) refers to bedlevel.o(i._Z24set_bed_leveling_enabledb) for i._Z24set_bed_leveling_enabledb
    bedlevel.o(.ARM.exidx) refers to bedlevel.o(i._Z17set_z_fade_heightfb) for i._Z17set_z_fade_heightfb
    bedlevel.o(.ARM.exidx) refers to bedlevel.o(i._Z15reset_bed_levelv) for i._Z15reset_bed_levelv
    bedlevel.o(.ARM.exidx) refers to bedlevel.o(i._Z14print_2d_arrayhhhPFfhhE) for i._Z14print_2d_arrayhhhPFfhhE
    bedlevel.o(.ARM.exidx) refers to bedlevel.o(i._ZN25TemporaryBedLevelingStateC1Eb) for i._ZN25TemporaryBedLevelingStateC1Eb
    abl.o(i._Z17bilinear_z_offsetRK5XYvalIfE) refers to floorf.o(i.__hardfp_floorf) for __hardfp_floorf
    abl.o(i._Z17bilinear_z_offsetRK5XYvalIfE) refers to abl.o(t._ZN28_INTERNAL_7_abl_cpp_5ad24c4b4_MINIiiEEDTplfpK_fpK0_ET_T0_) for decltype(((const param#1+const param#2))) [local to abl_cpp]::_MIN<int, int>(T1, T2)
    abl.o(i._Z17bilinear_z_offsetRK5XYvalIfE) refers to abl.o(.data) for bilinear_start
    abl.o(i._Z17bilinear_z_offsetRK5XYvalIfE) refers to abl.o(.bss) for z_values_virt
    abl.o(i._Z17refresh_bed_levelv) refers to abl.o(i._Z26bed_level_virt_interpolatev) for bed_level_virt_interpolate()
    abl.o(i._Z17refresh_bed_levelv) refers to abl.o(.data) for bilinear_grid_spacing
    abl.o(i._Z20bed_level_virt_coordhh) refers to abl.o(.bss) for z_values
    abl.o(i._Z26bed_level_virt_interpolatev) refers to abl.o(i._ZN28_INTERNAL_7_abl_cpp_5ad24c4b19bed_level_virt_2cmrEhhRKfS1_) for [local to abl_cpp]::bed_level_virt_2cmr(unsigned char, unsigned char, const float&, const float&)
    abl.o(i._Z26bed_level_virt_interpolatev) refers to abl.o(.data) for bilinear_grid_spacing
    abl.o(i._Z26bed_level_virt_interpolatev) refers to abl.o(.bss) for z_values_virt
    abl.o(i._Z28print_bilinear_leveling_gridv) refers to serial.o(i._Z14serialprintPGMPKc) for serialprintPGM(const char*)
    abl.o(i._Z28print_bilinear_leveling_gridv) refers to bedlevel.o(i._Z14print_2d_arrayhhhPFfhhE) for print_2d_array(unsigned char, unsigned char, unsigned char, float(*)(unsigned char, unsigned char))
    abl.o(i._Z28print_bilinear_leveling_gridv) refers to abl.o(i._ZZ28print_bilinear_leveling_gridvENUlhhE_4_FUNEhh) for print_bilinear_leveling_grid()::[lambda(unsigned char, unsigned char) (instance 1)]::_FUN(unsigned char, unsigned char)
    abl.o(i._Z30extrapolate_unprobed_bed_levelv) refers to abl.o(i._ZN28_INTERNAL_7_abl_cpp_5ad24c4b21extrapolate_one_pointEhhaa) for [local to abl_cpp]::extrapolate_one_point(unsigned char, unsigned char, signed char, signed char)
    abl.o(i._Z33print_bilinear_leveling_grid_virtv) refers to serial.o(i._Z14serialprintPGMPKc) for serialprintPGM(const char*)
    abl.o(i._Z33print_bilinear_leveling_grid_virtv) refers to bedlevel.o(i._Z14print_2d_arrayhhhPFfhhE) for print_2d_array(unsigned char, unsigned char, unsigned char, float(*)(unsigned char, unsigned char))
    abl.o(i._Z33print_bilinear_leveling_grid_virtv) refers to abl.o(i._ZZ33print_bilinear_leveling_grid_virtvENUlhhE_4_FUNEhh) for print_bilinear_leveling_grid_virt()::[lambda(unsigned char, unsigned char) (instance 1)]::_FUN(unsigned char, unsigned char)
    abl.o(i._ZN28_INTERNAL_7_abl_cpp_5ad24c4b19bed_level_virt_2cmrEhhRKfS1_) refers to abl.o(i._Z20bed_level_virt_coordhh) for bed_level_virt_coord(unsigned char, unsigned char)
    abl.o(i._ZN28_INTERNAL_7_abl_cpp_5ad24c4b19bed_level_virt_2cmrEhhRKfS1_) refers to abl.o(i._ZN28_INTERNAL_7_abl_cpp_5ad24c4b18bed_level_virt_cmrEPKfhf) for [local to abl_cpp]::bed_level_virt_cmr(const float*, unsigned char, float)
    abl.o(i._ZN28_INTERNAL_7_abl_cpp_5ad24c4b21extrapolate_one_pointEhhaa) refers to abl.o(i._ZSt5isnanf) for std::isnan(float)
    abl.o(i._ZN28_INTERNAL_7_abl_cpp_5ad24c4b21extrapolate_one_pointEhhaa) refers to abl.o(.bss) for z_values
    abl.o(i._ZN28_INTERNAL_7_abl_cpp_5ad24c4b21extrapolate_one_pointEhhaa) refers to serial.o(.data) for marlin_debug_flags
    abl.o(i._ZZ28print_bilinear_leveling_gridvENUlhhE_4_FUNEhh) refers to abl.o(.bss) for z_values
    abl.o(i._ZZ33print_bilinear_leveling_grid_virtvENUlhhE_4_FUNEhh) refers to abl.o(.bss) for z_values_virt
    abl.o(.ARM.exidx) refers to abl.o(i._ZN28_INTERNAL_7_abl_cpp_5ad24c4b21extrapolate_one_pointEhhaa) for i._ZN28_INTERNAL_7_abl_cpp_5ad24c4b21extrapolate_one_pointEhhaa
    abl.o(.ARM.exidx) refers to abl.o(i._Z30extrapolate_unprobed_bed_levelv) for i._Z30extrapolate_unprobed_bed_levelv
    abl.o(.ARM.exidx) refers to abl.o(i._ZZ28print_bilinear_leveling_gridvENUlhhE_4_FUNEhh) for i._ZZ28print_bilinear_leveling_gridvENUlhhE_4_FUNEhh
    abl.o(.ARM.exidx) refers to abl.o(i._Z28print_bilinear_leveling_gridv) for i._Z28print_bilinear_leveling_gridv
    abl.o(.ARM.exidx) refers to abl.o(i._ZZ33print_bilinear_leveling_grid_virtvENUlhhE_4_FUNEhh) for i._ZZ33print_bilinear_leveling_grid_virtvENUlhhE_4_FUNEhh
    abl.o(.ARM.exidx) refers to abl.o(i._Z33print_bilinear_leveling_grid_virtv) for i._Z33print_bilinear_leveling_grid_virtv
    abl.o(.ARM.exidx) refers to abl.o(i._Z20bed_level_virt_coordhh) for i._Z20bed_level_virt_coordhh
    abl.o(.ARM.exidx) refers to abl.o(i._ZN28_INTERNAL_7_abl_cpp_5ad24c4b18bed_level_virt_cmrEPKfhf) for i._ZN28_INTERNAL_7_abl_cpp_5ad24c4b18bed_level_virt_cmrEPKfhf
    abl.o(.ARM.exidx) refers to abl.o(i._ZN28_INTERNAL_7_abl_cpp_5ad24c4b19bed_level_virt_2cmrEhhRKfS1_) for i._ZN28_INTERNAL_7_abl_cpp_5ad24c4b19bed_level_virt_2cmrEhhRKfS1_
    abl.o(.ARM.exidx) refers to abl.o(i._Z26bed_level_virt_interpolatev) for i._Z26bed_level_virt_interpolatev
    abl.o(.ARM.exidx) refers to abl.o(i._Z17refresh_bed_levelv) for i._Z17refresh_bed_levelv
    abl.o(.ARM.exidx) refers to abl.o(i._Z17bilinear_z_offsetRK5XYvalIfE) for i._Z17bilinear_z_offsetRK5XYvalIfE
    abl.o(.ARM.exidx) refers to abl.o(t._ZN28_INTERNAL_7_abl_cpp_5ad24c4b4_MINIiiEEDTplfpK_fpK0_ET_T0_) for t._ZN28_INTERNAL_7_abl_cpp_5ad24c4b4_MINIiiEEDTplfpK_fpK0_ET_T0_
    gcode.o(i._ZN10GcodeSuite20process_next_commandEv) refers to serial.o(i._Z17serial_echo_startv) for serial_echo_start()
    gcode.o(i._ZN10GcodeSuite20process_next_commandEv) refers to print.o(i._ZN5Print7printlnEPKc) for Print::println(const char*)
    gcode.o(i._ZN10GcodeSuite20process_next_commandEv) refers to parser.o(i._ZN11GCodeParser5parseEPc) for GCodeParser::parse(char*)
    gcode.o(i._ZN10GcodeSuite20process_next_commandEv) refers to gcode.o(i._ZN10GcodeSuite22process_parsed_commandEb) for GcodeSuite::process_parsed_command(bool)
    gcode.o(i._ZN10GcodeSuite20process_next_commandEv) refers to queue.o(.data) for GCodeQueue::index_r
    gcode.o(i._ZN10GcodeSuite20process_next_commandEv) refers to queue.o(.bss) for GCodeQueue::command_buffer
    gcode.o(i._ZN10GcodeSuite20process_next_commandEv) refers to powerloss.o(.data) for PrintJobRecovery::queue_index_r
    gcode.o(i._ZN10GcodeSuite20process_next_commandEv) refers to serial.o(.data) for marlin_debug_flags
    gcode.o(i._ZN10GcodeSuite20process_next_commandEv) refers to board_gpio.o(.bss) for Serial2
    gcode.o(i._ZN10GcodeSuite22process_parsed_commandEb) refers to g0_g1.o(i._ZN10GcodeSuite5G0_G1Ev) for GcodeSuite::G0_G1()
    gcode.o(i._ZN10GcodeSuite22process_parsed_commandEb) refers to g2_g3.o(i._ZN10GcodeSuite5G2_G3Eb) for GcodeSuite::G2_G3(bool)
    gcode.o(i._ZN10GcodeSuite22process_parsed_commandEb) refers to g4.o(i._ZN10GcodeSuite2G4Ev) for GcodeSuite::G4()
    gcode.o(i._ZN10GcodeSuite22process_parsed_commandEb) refers to g27.o(i._ZN10GcodeSuite3G27Ev) for GcodeSuite::G27()
    gcode.o(i._ZN10GcodeSuite22process_parsed_commandEb) refers to g28.o(i._ZN10GcodeSuite3G28Ev) for GcodeSuite::G28()
    gcode.o(i._ZN10GcodeSuite22process_parsed_commandEb) refers to g29.o(i._ZN10GcodeSuite3G29Ev) for GcodeSuite::G29()
    gcode.o(i._ZN10GcodeSuite22process_parsed_commandEb) refers to g30.o(i._ZN10GcodeSuite3G30Ev) for GcodeSuite::G30()
    gcode.o(i._ZN10GcodeSuite22process_parsed_commandEb) refers to gcode.o(i._ZN10GcodeSuite17set_relative_modeEb) for GcodeSuite::set_relative_mode(bool)
    gcode.o(i._ZN10GcodeSuite22process_parsed_commandEb) refers to g92.o(i._ZN10GcodeSuite3G92Ev) for GcodeSuite::G92()
    gcode.o(i._ZN10GcodeSuite22process_parsed_commandEb) refers to g42.o(i._ZN10GcodeSuite3G42Ev) for GcodeSuite::G42()
    gcode.o(i._ZN10GcodeSuite22process_parsed_commandEb) refers to parser.o(i._ZN11GCodeParser23unknown_command_warningEv) for GCodeParser::unknown_command_warning()
    gcode.o(i._ZN10GcodeSuite22process_parsed_commandEb) refers to m0_m1.o(i._ZN10GcodeSuite5M0_M1Ev) for GcodeSuite::M0_M1()
    gcode.o(i._ZN10GcodeSuite22process_parsed_commandEb) refers to m17_m18_m84.o(i._ZN10GcodeSuite3M17Ev) for GcodeSuite::M17()
    gcode.o(i._ZN10GcodeSuite22process_parsed_commandEb) refers to m20.o(i._ZN10GcodeSuite3M20Ev) for GcodeSuite::M20()
    gcode.o(i._ZN10GcodeSuite22process_parsed_commandEb) refers to m21_m22.o(i._ZN10GcodeSuite3M21Ev) for GcodeSuite::M21()
    gcode.o(i._ZN10GcodeSuite22process_parsed_commandEb) refers to m21_m22.o(i._ZN10GcodeSuite3M22Ev) for GcodeSuite::M22()
    gcode.o(i._ZN10GcodeSuite22process_parsed_commandEb) refers to m23.o(i._ZN10GcodeSuite3M23Ev) for GcodeSuite::M23()
    gcode.o(i._ZN10GcodeSuite22process_parsed_commandEb) refers to m24_m25.o(i._ZN10GcodeSuite3M24Ev) for GcodeSuite::M24()
    gcode.o(i._ZN10GcodeSuite22process_parsed_commandEb) refers to m24_m25.o(i._ZN10GcodeSuite3M25Ev) for GcodeSuite::M25()
    gcode.o(i._ZN10GcodeSuite22process_parsed_commandEb) refers to m26.o(i._ZN10GcodeSuite3M26Ev) for GcodeSuite::M26()
    gcode.o(i._ZN10GcodeSuite22process_parsed_commandEb) refers to m27.o(i._ZN10GcodeSuite3M27Ev) for GcodeSuite::M27()
    gcode.o(i._ZN10GcodeSuite22process_parsed_commandEb) refers to m28_m29.o(i._ZN10GcodeSuite3M28Ev) for GcodeSuite::M28()
    gcode.o(i._ZN10GcodeSuite22process_parsed_commandEb) refers to m28_m29.o(i._ZN10GcodeSuite3M29Ev) for GcodeSuite::M29()
    gcode.o(i._ZN10GcodeSuite22process_parsed_commandEb) refers to m30.o(i._ZN10GcodeSuite3M30Ev) for GcodeSuite::M30()
    gcode.o(i._ZN10GcodeSuite22process_parsed_commandEb) refers to m32.o(i._ZN10GcodeSuite3M32Ev) for GcodeSuite::M32()
    gcode.o(i._ZN10GcodeSuite22process_parsed_commandEb) refers to m33.o(i._ZN10GcodeSuite3M33Ev) for GcodeSuite::M33()
    gcode.o(i._ZN10GcodeSuite22process_parsed_commandEb) refers to m928.o(i._ZN10GcodeSuite4M928Ev) for GcodeSuite::M928()
    gcode.o(i._ZN10GcodeSuite22process_parsed_commandEb) refers to m31.o(i._ZN10GcodeSuite3M31Ev) for GcodeSuite::M31()
    gcode.o(i._ZN10GcodeSuite22process_parsed_commandEb) refers to m48.o(i._ZN10GcodeSuite3M48Ev) for GcodeSuite::M48()
    gcode.o(i._ZN10GcodeSuite22process_parsed_commandEb) refers to m75-m78.o(i._ZN10GcodeSuite3M75Ev) for GcodeSuite::M75()
    gcode.o(i._ZN10GcodeSuite22process_parsed_commandEb) refers to m75-m78.o(i._ZN10GcodeSuite3M76Ev) for GcodeSuite::M76()
    gcode.o(i._ZN10GcodeSuite22process_parsed_commandEb) refers to m75-m78.o(i._ZN10GcodeSuite3M77Ev) for GcodeSuite::M77()
    gcode.o(i._ZN10GcodeSuite22process_parsed_commandEb) refers to m104_m109.o(i._ZN10GcodeSuite4M104Ev) for GcodeSuite::M104()
    gcode.o(i._ZN10GcodeSuite22process_parsed_commandEb) refers to m104_m109.o(i._ZN10GcodeSuite4M109Ev) for GcodeSuite::M109()
    gcode.o(i._ZN10GcodeSuite22process_parsed_commandEb) refers to parser.o(.data) for GCodeParser::command_letter
    gcode.o(i._ZN10GcodeSuite22process_parsed_commandEb) refers to m105.o(i._ZN10GcodeSuite4M105Ev) for GcodeSuite::M105()
    gcode.o(i._ZN10GcodeSuite22process_parsed_commandEb) refers to m106_m107.o(i._ZN10GcodeSuite4M106Ev) for GcodeSuite::M106()
    gcode.o(i._ZN10GcodeSuite22process_parsed_commandEb) refers to m106_m107.o(i._ZN10GcodeSuite4M107Ev) for GcodeSuite::M107()
    gcode.o(i._ZN10GcodeSuite22process_parsed_commandEb) refers to m110.o(i._ZN10GcodeSuite4M110Ev) for GcodeSuite::M110()
    gcode.o(i._ZN10GcodeSuite22process_parsed_commandEb) refers to m111.o(i._ZN10GcodeSuite4M111Ev) for GcodeSuite::M111()
    gcode.o(i._ZN10GcodeSuite22process_parsed_commandEb) refers to m140_m190.o(i._ZN10GcodeSuite4M140Ev) for GcodeSuite::M140()
    gcode.o(i._ZN10GcodeSuite22process_parsed_commandEb) refers to m140_m190.o(i._ZN10GcodeSuite4M190Ev) for GcodeSuite::M190()
    gcode.o(i._ZN10GcodeSuite22process_parsed_commandEb) refers to m155.o(i._ZN10GcodeSuite4M155Ev) for GcodeSuite::M155()
    gcode.o(i._ZN10GcodeSuite22process_parsed_commandEb) refers to m125.o(i._ZN10GcodeSuite4M125Ev) for GcodeSuite::M125()
    gcode.o(i._ZN10GcodeSuite22process_parsed_commandEb) refers to m80_m81.o(i._ZN10GcodeSuite3M81Ev) for GcodeSuite::M81()
    gcode.o(i._ZN10GcodeSuite22process_parsed_commandEb) refers to m82_m83.o(i._ZN10GcodeSuite3M82Ev) for GcodeSuite::M82()
    gcode.o(i._ZN10GcodeSuite22process_parsed_commandEb) refers to m82_m83.o(i._ZN10GcodeSuite3M83Ev) for GcodeSuite::M83()
    gcode.o(i._ZN10GcodeSuite22process_parsed_commandEb) refers to m17_m18_m84.o(i._ZN10GcodeSuite7M18_M84Ev) for GcodeSuite::M18_M84()
    gcode.o(i._ZN10GcodeSuite22process_parsed_commandEb) refers to m85.o(i._ZN10GcodeSuite3M85Ev) for GcodeSuite::M85()
    gcode.o(i._ZN10GcodeSuite22process_parsed_commandEb) refers to m92.o(i._ZN10GcodeSuite3M92Ev) for GcodeSuite::M92()
    gcode.o(i._ZN10GcodeSuite22process_parsed_commandEb) refers to m114.o(i._ZN10GcodeSuite4M114Ev) for GcodeSuite::M114()
    gcode.o(i._ZN10GcodeSuite22process_parsed_commandEb) refers to m115.o(i._ZN10GcodeSuite4M115Ev) for GcodeSuite::M115()
    gcode.o(i._ZN10GcodeSuite22process_parsed_commandEb) refers to m118.o(i._ZN10GcodeSuite4M118Ev) for GcodeSuite::M118()
    gcode.o(i._ZN10GcodeSuite22process_parsed_commandEb) refers to m119.o(i._ZN10GcodeSuite4M119Ev) for GcodeSuite::M119()
    gcode.o(i._ZN10GcodeSuite22process_parsed_commandEb) refers to m120_m121.o(i._ZN10GcodeSuite4M120Ev) for GcodeSuite::M120()
    gcode.o(i._ZN10GcodeSuite22process_parsed_commandEb) refers to m120_m121.o(i._ZN10GcodeSuite4M121Ev) for GcodeSuite::M121()
    gcode.o(i._ZN10GcodeSuite22process_parsed_commandEb) refers to m145.o(i._ZN10GcodeSuite4M145Ev) for GcodeSuite::M145()
    gcode.o(i._ZN10GcodeSuite22process_parsed_commandEb) refers to m200-m205.o(i._ZN10GcodeSuite4M200Ev) for GcodeSuite::M200()
    gcode.o(i._ZN10GcodeSuite22process_parsed_commandEb) refers to m200-m205.o(i._ZN10GcodeSuite4M201Ev) for GcodeSuite::M201()
    gcode.o(i._ZN10GcodeSuite22process_parsed_commandEb) refers to m200-m205.o(i._ZN10GcodeSuite4M203Ev) for GcodeSuite::M203()
    gcode.o(i._ZN10GcodeSuite22process_parsed_commandEb) refers to m200-m205.o(i._ZN10GcodeSuite4M204Ev) for GcodeSuite::M204()
    gcode.o(i._ZN10GcodeSuite22process_parsed_commandEb) refers to m200-m205.o(i._ZN10GcodeSuite4M205Ev) for GcodeSuite::M205()
    gcode.o(i._ZN10GcodeSuite22process_parsed_commandEb) refers to m206_m428.o(i._ZN10GcodeSuite4M206Ev) for GcodeSuite::M206()
    gcode.o(i._ZN10GcodeSuite22process_parsed_commandEb) refers to m211.o(i._ZN10GcodeSuite4M211Ev) for GcodeSuite::M211()
    gcode.o(i._ZN10GcodeSuite22process_parsed_commandEb) refers to m220.o(i._ZN10GcodeSuite4M220Ev) for GcodeSuite::M220()
    gcode.o(i._ZN10GcodeSuite22process_parsed_commandEb) refers to m221.o(i._ZN10GcodeSuite4M221Ev) for GcodeSuite::M221()
    gcode.o(i._ZN10GcodeSuite22process_parsed_commandEb) refers to m290.o(i._ZN10GcodeSuite4M290Ev) for GcodeSuite::M290()
    gcode.o(i._ZN10GcodeSuite22process_parsed_commandEb) refers to m300.o(i._ZN10GcodeSuite4M300Ev) for GcodeSuite::M300()
    gcode.o(i._ZN10GcodeSuite22process_parsed_commandEb) refers to m301.o(i._ZN10GcodeSuite4M301Ev) for GcodeSuite::M301()
    gcode.o(i._ZN10GcodeSuite22process_parsed_commandEb) refers to m304.o(i._ZN10GcodeSuite4M304Ev) for GcodeSuite::M304()
    gcode.o(i._ZN10GcodeSuite22process_parsed_commandEb) refers to m302.o(i._ZN10GcodeSuite4M302Ev) for GcodeSuite::M302()
    gcode.o(i._ZN10GcodeSuite22process_parsed_commandEb) refers to m303.o(i._ZN10GcodeSuite4M303Ev) for GcodeSuite::M303()
    gcode.o(i._ZN10GcodeSuite22process_parsed_commandEb) refers to m400.o(i._ZN10GcodeSuite4M400Ev) for GcodeSuite::M400()
    gcode.o(i._ZN10GcodeSuite22process_parsed_commandEb) refers to m401_m402.o(i._ZN10GcodeSuite4M401Ev) for GcodeSuite::M401()
    gcode.o(i._ZN10GcodeSuite22process_parsed_commandEb) refers to m401_m402.o(i._ZN10GcodeSuite4M402Ev) for GcodeSuite::M402()
    gcode.o(i._ZN10GcodeSuite22process_parsed_commandEb) refers to m412.o(i._ZN10GcodeSuite4M412Ev) for GcodeSuite::M412()
    gcode.o(i._ZN10GcodeSuite22process_parsed_commandEb) refers to m420.o(i._ZN10GcodeSuite4M420Ev) for GcodeSuite::M420()
    gcode.o(i._ZN10GcodeSuite22process_parsed_commandEb) refers to m421.o(i._ZN10GcodeSuite4M421Ev) for GcodeSuite::M421()
    gcode.o(i._ZN10GcodeSuite22process_parsed_commandEb) refers to m206_m428.o(i._ZN10GcodeSuite4M428Ev) for GcodeSuite::M428()
    gcode.o(i._ZN10GcodeSuite22process_parsed_commandEb) refers to m430.o(i._ZN10GcodeSuite4M430Ev) for GcodeSuite::M430()
    gcode.o(i._ZN10GcodeSuite22process_parsed_commandEb) refers to m500-m504.o(i._ZN10GcodeSuite4M500Ev) for GcodeSuite::M500()
    gcode.o(i._ZN10GcodeSuite22process_parsed_commandEb) refers to m500-m504.o(i._ZN10GcodeSuite4M501Ev) for GcodeSuite::M501()
    gcode.o(i._ZN10GcodeSuite22process_parsed_commandEb) refers to m500-m504.o(i._ZN10GcodeSuite4M502Ev) for GcodeSuite::M502()
    gcode.o(i._ZN10GcodeSuite22process_parsed_commandEb) refers to m500-m504.o(i._ZN10GcodeSuite4M503Ev) for GcodeSuite::M503()
    gcode.o(i._ZN10GcodeSuite22process_parsed_commandEb) refers to m500-m504.o(i._ZN10GcodeSuite4M504Ev) for GcodeSuite::M504()
    gcode.o(i._ZN10GcodeSuite22process_parsed_commandEb) refers to m524.o(i._ZN10GcodeSuite4M524Ev) for GcodeSuite::M524()
    gcode.o(i._ZN10GcodeSuite22process_parsed_commandEb) refers to m600.o(i._ZN10GcodeSuite4M600Ev) for GcodeSuite::M600()
    gcode.o(i._ZN10GcodeSuite22process_parsed_commandEb) refers to m603.o(i._ZN10GcodeSuite4M603Ev) for GcodeSuite::M603()
    gcode.o(i._ZN10GcodeSuite22process_parsed_commandEb) refers to m710.o(i._ZN10GcodeSuite4M710Ev) for GcodeSuite::M710()
    gcode.o(i._ZN10GcodeSuite22process_parsed_commandEb) refers to m851.o(i._ZN10GcodeSuite4M851Ev) for GcodeSuite::M851()
    gcode.o(i._ZN10GcodeSuite22process_parsed_commandEb) refers to m122.o(i._ZN10GcodeSuite4M122Ev) for GcodeSuite::M122()
    gcode.o(i._ZN10GcodeSuite22process_parsed_commandEb) refers to m906.o(i._ZN10GcodeSuite4M906Ev) for GcodeSuite::M906()
    gcode.o(i._ZN10GcodeSuite22process_parsed_commandEb) refers to m569.o(i._ZN10GcodeSuite4M569Ev) for GcodeSuite::M569()
    gcode.o(i._ZN10GcodeSuite22process_parsed_commandEb) refers to m911-m914.o(i._ZN10GcodeSuite4M911Ev) for GcodeSuite::M911()
    gcode.o(i._ZN10GcodeSuite22process_parsed_commandEb) refers to m911-m914.o(i._ZN10GcodeSuite4M912Ev) for GcodeSuite::M912()
    gcode.o(i._ZN10GcodeSuite22process_parsed_commandEb) refers to m808.o(i._ZN10GcodeSuite4M808Ev) for GcodeSuite::M808()
    gcode.o(i._ZN10GcodeSuite22process_parsed_commandEb) refers to m997.o(i._ZN10GcodeSuite4M997Ev) for GcodeSuite::M997()
    gcode.o(i._ZN10GcodeSuite22process_parsed_commandEb) refers to m999.o(i._ZN10GcodeSuite4M999Ev) for GcodeSuite::M999()
    gcode.o(i._ZN10GcodeSuite22process_parsed_commandEb) refers to m413.o(i._ZN10GcodeSuite4M413Ev) for GcodeSuite::M413()
    gcode.o(i._ZN10GcodeSuite22process_parsed_commandEb) refers to m1000.o(i._ZN10GcodeSuite5M1000Ev) for GcodeSuite::M1000()
    gcode.o(i._ZN10GcodeSuite22process_parsed_commandEb) refers to m1001.o(i._ZN10GcodeSuite5M1001Ev) for GcodeSuite::M1001()
    gcode.o(i._ZN10GcodeSuite22process_parsed_commandEb) refers to t.o(i._ZN10GcodeSuite1TEa) for GcodeSuite::T(signed char)
    gcode.o(i._ZN10GcodeSuite22process_parsed_commandEb) refers to queue.o(i._ZN10GCodeQueue10ok_to_sendEv) for GCodeQueue::ok_to_send()
    gcode.o(i._ZN10GcodeSuite23process_subcommands_nowEPc) refers to strchr.o(.text) for strchr
    gcode.o(i._ZN10GcodeSuite23process_subcommands_nowEPc) refers to parser.o(i._ZN11GCodeParser5parseEPc) for GCodeParser::parse(char*)
    gcode.o(i._ZN10GcodeSuite23process_subcommands_nowEPc) refers to gcode.o(i._ZN10GcodeSuite22process_parsed_commandEb) for GcodeSuite::process_parsed_command(bool)
    gcode.o(i._ZN10GcodeSuite23process_subcommands_nowEPc) refers to parser.o(.data) for GCodeParser::command_ptr
    gcode.o(i._ZN10GcodeSuite25process_subcommands_now_PEPKc) refers to strchr.o(.text) for strchr
    gcode.o(i._ZN10GcodeSuite25process_subcommands_now_PEPKc) refers to strlen.o(.text) for strlen
    gcode.o(i._ZN10GcodeSuite25process_subcommands_now_PEPKc) refers to mallocr.o(i.__malloc$realloc) for malloc
    gcode.o(i._ZN10GcodeSuite25process_subcommands_now_PEPKc) refers to strncpy.o(.text) for strncpy
    gcode.o(i._ZN10GcodeSuite25process_subcommands_now_PEPKc) refers to parser.o(i._ZN11GCodeParser5parseEPc) for GCodeParser::parse(char*)
    gcode.o(i._ZN10GcodeSuite25process_subcommands_now_PEPKc) refers to gcode.o(i._ZN10GcodeSuite22process_parsed_commandEb) for GcodeSuite::process_parsed_command(bool)
    gcode.o(i._ZN10GcodeSuite25process_subcommands_now_PEPKc) refers to mallocr.o(i.__free$realloc) for free
    gcode.o(i._ZN10GcodeSuite25process_subcommands_now_PEPKc) refers to parser.o(.data) for GCodeParser::command_ptr
    gcode.o(i._ZN10GcodeSuite28get_destination_from_commandEv) refers to gcode.o(i._ZN11GCodeParser7seenvalEc) for GCodeParser::seenval(char)
    gcode.o(i._ZN10GcodeSuite28get_destination_from_commandEv) refers to gcode.o(i._ZN11GCodeParser16value_axis_unitsE8AxisEnum) for GCodeParser::value_axis_units(AxisEnum)
    gcode.o(i._ZN10GcodeSuite28get_destination_from_commandEv) refers to gcode.o(i._ZN10GcodeSuite16axis_is_relativeE8AxisEnum) for GcodeSuite::axis_is_relative(AxisEnum)
    gcode.o(i._ZN10GcodeSuite28get_destination_from_commandEv) refers to gcode.o(i._ZN11GCodeParser18value_linear_unitsEv) for GCodeParser::value_linear_units()
    gcode.o(i._ZN10GcodeSuite28get_destination_from_commandEv) refers to motion.o(.data) for current_position
    gcode.o(i._ZN10GcodeSuite28get_destination_from_commandEv) refers to motion.o(.bss) for workspace_offset
    gcode.o(i._ZN10GcodeSuite32get_target_extruder_from_commandEv) refers to gcode.o(i._ZN11GCodeParser7seenvalEc) for GCodeParser::seenval(char)
    gcode.o(i._ZN10GcodeSuite32get_target_extruder_from_commandEv) refers to gcode.o(i._ZN11GCodeParser10value_longEv) for GCodeParser::value_long()
    gcode.o(i._ZN10GcodeSuite32get_target_extruder_from_commandEv) refers to serial.o(i._Z17serial_echo_startv) for serial_echo_start()
    gcode.o(i._ZN10GcodeSuite32get_target_extruder_from_commandEv) refers to marlincore.o(i._ZN14HardwareSerial5writeEi) for HardwareSerial::write(int)
    gcode.o(i._ZN10GcodeSuite32get_target_extruder_from_commandEv) refers to print.o(i._ZN5Print5printEii) for Print::print(int, int)
    gcode.o(i._ZN10GcodeSuite32get_target_extruder_from_commandEv) refers to serial.o(i._Z19serial_echopair_PGMPKci) for serial_echopair_PGM(const char*, int)
    gcode.o(i._ZN10GcodeSuite32get_target_extruder_from_commandEv) refers to board_gpio.o(.bss) for Serial2
    gcode.o(i._ZN10GcodeSuite32get_target_extruder_from_commandEv) refers to parser.o(.data) for GCodeParser::codenum
    gcode.o(i._ZN10GcodeSuite33get_target_e_stepper_from_commandEv) refers to gcode.o(i._ZN11GCodeParser7seenvalEc) for GCodeParser::seenval(char)
    gcode.o(i._ZN10GcodeSuite33get_target_e_stepper_from_commandEv) refers to gcode.o(i._ZN11GCodeParser10value_longEv) for GCodeParser::value_long()
    gcode.o(i._ZN10GcodeSuite33get_target_e_stepper_from_commandEv) refers to serial.o(i._Z17serial_echo_startv) for serial_echo_start()
    gcode.o(i._ZN10GcodeSuite33get_target_e_stepper_from_commandEv) refers to marlincore.o(i._ZN14HardwareSerial5writeEi) for HardwareSerial::write(int)
    gcode.o(i._ZN10GcodeSuite33get_target_e_stepper_from_commandEv) refers to print.o(i._ZN5Print5printEii) for Print::print(int, int)
    gcode.o(i._ZN10GcodeSuite33get_target_e_stepper_from_commandEv) refers to serial.o(i._Z14serialprintPGMPKc) for serialprintPGM(const char*)
    gcode.o(i._ZN10GcodeSuite33get_target_e_stepper_from_commandEv) refers to serial.o(i._Z19serial_echopair_PGMPKci) for serial_echopair_PGM(const char*, int)
    gcode.o(i._ZN10GcodeSuite33get_target_e_stepper_from_commandEv) refers to board_gpio.o(.bss) for Serial2
    gcode.o(i._ZN10GcodeSuite33get_target_e_stepper_from_commandEv) refers to parser.o(.data) for GCodeParser::codenum
    gcode.o(i._ZN10GcodeSuite5dwellEj) refers to board_tim0.o(i.millis) for millis
    gcode.o(i._ZN10GcodeSuite5dwellEj) refers to marlincore.o(i._Z4idleb) for idle(bool)
    gcode.o(.ARM.exidx) refers to gcode.o(i._ZN10GcodeSuite32get_target_extruder_from_commandEv) for i._ZN10GcodeSuite32get_target_extruder_from_commandEv
    gcode.o(.ARM.exidx) refers to gcode.o(i._ZN10GcodeSuite33get_target_e_stepper_from_commandEv) for i._ZN10GcodeSuite33get_target_e_stepper_from_commandEv
    gcode.o(.ARM.exidx) refers to gcode.o(i._ZN10GcodeSuite28get_destination_from_commandEv) for i._ZN10GcodeSuite28get_destination_from_commandEv
    gcode.o(.ARM.exidx) refers to gcode.o(i._ZN10GcodeSuite22process_parsed_commandEb) for i._ZN10GcodeSuite22process_parsed_commandEb
    gcode.o(.ARM.exidx) refers to gcode.o(i._ZN10GcodeSuite20process_next_commandEv) for i._ZN10GcodeSuite20process_next_commandEv
    gcode.o(.ARM.exidx) refers to gcode.o(i._ZN10GcodeSuite25process_subcommands_now_PEPKc) for i._ZN10GcodeSuite25process_subcommands_now_PEPKc
    gcode.o(.ARM.exidx) refers to gcode.o(i._ZN10GcodeSuite23process_subcommands_nowEPc) for i._ZN10GcodeSuite23process_subcommands_nowEPc
    gcode.o(.ARM.exidx) refers to gcode.o(i._ZN10GcodeSuite5dwellEj) for i._ZN10GcodeSuite5dwellEj
    parser.o(i._ZN11GCodeParser23unknown_command_warningEv) refers to serial.o(i._Z17serial_echo_startv) for serial_echo_start()
    parser.o(i._ZN11GCodeParser23unknown_command_warningEv) refers to serial.o(i._Z19serial_echopair_PGMPKcS0_) for serial_echopair_PGM(const char*, const char*)
    parser.o(i._ZN11GCodeParser23unknown_command_warningEv) refers to serial.o(i._Z14serialprintPGMPKc) for serialprintPGM(const char*)
    parser.o(i._ZN11GCodeParser23unknown_command_warningEv) refers to parser.o(.data) for GCodeParser::command_ptr
    parser.o(i._ZN11GCodeParser5parseEPc) refers to parser.o(i._ZN11GCodeParser5resetEv) for GCodeParser::reset()
    parser.o(i._ZN11GCodeParser5parseEPc) refers to parser.o(i._ZSt6strchrPci) for std::strchr(char*, int)
    parser.o(i._ZN11GCodeParser5parseEPc) refers to parser.o(.data) for GCodeParser::command_ptr
    parser.o(i._ZN11GCodeParser5parseEPc) refers to parser.o(.bss) for GCodeParser::param
    parser.o(i._ZN11GCodeParser5resetEv) refers to parser.o(.data) for GCodeParser::string_arg
    parser.o(.ARM.exidx) refers to parser.o(i._ZN11GCodeParser5resetEv) for i._ZN11GCodeParser5resetEv
    parser.o(.ARM.exidx) refers to parser.o(i._ZN11GCodeParser5parseEPc) for i._ZN11GCodeParser5parseEPc
    parser.o(.ARM.exidx) refers to parser.o(i._ZN11GCodeParser23unknown_command_warningEv) for i._ZN11GCodeParser23unknown_command_warningEv
    queue.o(i._ZN10GCodeQueue10ok_to_sendEv) refers to serial.o(i._Z14serialprintPGMPKc) for serialprintPGM(const char*)
    queue.o(i._ZN10GCodeQueue10ok_to_sendEv) refers to queue.o(.data) for send_ok
    queue.o(i._ZN10GCodeQueue10ok_to_sendEv) refers to board_gpio.o(.bss) for Serial2
    queue.o(i._ZN10GCodeQueue11enqueue_oneEPKc) refers to queue.o(i._ZN10GCodeQueue8_enqueueEPKcb) for GCodeQueue::_enqueue(const char*, bool)
    queue.o(i._ZN10GCodeQueue11enqueue_oneEPKc) refers to serial.o(i._Z17serial_echo_startv) for serial_echo_start()
    queue.o(i._ZN10GCodeQueue11enqueue_oneEPKc) refers to serial.o(i._Z19serial_echopair_PGMPKcS0_) for serial_echopair_PGM(const char*, const char*)
    queue.o(i._ZN10GCodeQueue11enqueue_oneEPKc) refers to serial.o(i._Z14serialprintPGMPKc) for serialprintPGM(const char*)
    queue.o(i._ZN10GCodeQueue13enqueue_now_PEPKc) refers to mallocr.o(i.__malloc$realloc) for malloc
    queue.o(i._ZN10GCodeQueue13enqueue_now_PEPKc) refers to memmovea.o(.text) for __aeabi_memcpy
    queue.o(i._ZN10GCodeQueue13enqueue_now_PEPKc) refers to queue.o(i._ZN10GCodeQueue15enqueue_one_nowEPKc) for GCodeQueue::enqueue_one_now(const char*)
    queue.o(i._ZN10GCodeQueue13enqueue_now_PEPKc) refers to mallocr.o(i.__free$realloc) for free
    queue.o(i._ZN10GCodeQueue13enqueue_one_PEPKc) refers to mallocr.o(i.__malloc$realloc) for malloc
    queue.o(i._ZN10GCodeQueue13enqueue_one_PEPKc) refers to memmovea.o(.text) for __aeabi_memcpy
    queue.o(i._ZN10GCodeQueue13enqueue_one_PEPKc) refers to queue.o(i._ZN10GCodeQueue8_enqueueEPKcb) for GCodeQueue::_enqueue(const char*, bool)
    queue.o(i._ZN10GCodeQueue13enqueue_one_PEPKc) refers to mallocr.o(i.__free$realloc) for free
    queue.o(i._ZN10GCodeQueue15_commit_commandEb) refers to queue.o(.data) for send_ok
    queue.o(i._ZN10GCodeQueue15_commit_commandEb) refers to powerloss.o(.data) for PrintJobRecovery::cmd_sdpos
    queue.o(i._ZN10GCodeQueue15_commit_commandEb) refers to powerloss.o(.bss) for PrintJobRecovery::sdpos
    queue.o(i._ZN10GCodeQueue15enqueue_one_nowEPKc) refers to marlincore.o(i._Z4idleb) for idle(bool)
    queue.o(i._ZN10GCodeQueue15enqueue_one_nowEPKc) refers to queue.o(i._ZN10GCodeQueue11enqueue_oneEPKc) for GCodeQueue::enqueue_one(const char*)
    queue.o(i._ZN10GCodeQueue16gcode_line_errorEPKca) refers to serial.o(i._Z18serial_error_startv) for serial_error_start()
    queue.o(i._ZN10GCodeQueue16gcode_line_errorEPKca) refers to serial.o(i._Z14serialprintPGMPKc) for serialprintPGM(const char*)
    queue.o(i._ZN10GCodeQueue16gcode_line_errorEPKca) refers to print.o(i._ZN5Print7printlnEli) for Print::println(long, int)
    queue.o(i._ZN10GCodeQueue16gcode_line_errorEPKca) refers to queue.o(i._Z11read_serialh) for read_serial(unsigned char)
    queue.o(i._ZN10GCodeQueue16gcode_line_errorEPKca) refers to queue.o(i._ZN10GCodeQueue24flush_and_request_resendEv) for GCodeQueue::flush_and_request_resend()
    queue.o(i._ZN10GCodeQueue16gcode_line_errorEPKca) refers to queue.o(.data) for GCodeQueue::last_N
    queue.o(i._ZN10GCodeQueue16gcode_line_errorEPKca) refers to board_gpio.o(.bss) for Serial2
    queue.o(i._ZN10GCodeQueue19get_serial_commandsEv) refers to queue.o(i._Z11read_serialh) for read_serial(unsigned char)
    queue.o(i._ZN10GCodeQueue19get_serial_commandsEv) refers to queue.o(i._Z17process_line_doneRhRA96_cRi) for process_line_done(unsigned char&, char(&)[96], int&)
    queue.o(i._ZN10GCodeQueue19get_serial_commandsEv) refers to strstr.o(.text) for strstr
    queue.o(i._ZN10GCodeQueue19get_serial_commandsEv) refers to parser.o(i._ZSt6strchrPci) for std::strchr(char*, int)
    queue.o(i._ZN10GCodeQueue19get_serial_commandsEv) refers to strtol.o(.text) for strtol
    queue.o(i._ZN10GCodeQueue19get_serial_commandsEv) refers to queue.o(i._ZN10GCodeQueue16gcode_line_errorEPKca) for GCodeQueue::gcode_line_error(const char*, signed char)
    queue.o(i._ZN10GCodeQueue19get_serial_commandsEv) refers to strrchr.o(.text) for strrchr
    queue.o(i._ZN10GCodeQueue19get_serial_commandsEv) refers to serial.o(i._Z14serialprintPGMPKc) for serialprintPGM(const char*)
    queue.o(i._ZN10GCodeQueue19get_serial_commandsEv) refers to marlinui.o(i._ZN8MarlinUI12set_status_PEPKca) for MarlinUI::set_status_P(const char*, signed char)
    queue.o(i._ZN10GCodeQueue19get_serial_commandsEv) refers to queue.o(i._ZN10GCodeQueue8_enqueueEPKcb) for GCodeQueue::_enqueue(const char*, bool)
    queue.o(i._ZN10GCodeQueue19get_serial_commandsEv) refers to queue.o(i._Z19process_stream_charcRhRA96_cRi) for process_stream_char(char, unsigned char&, char(&)[96], int&)
    queue.o(i._ZN10GCodeQueue19get_serial_commandsEv) refers to hardwareserial.o(i._ZN14HardwareSerial9availableEv) for HardwareSerial::available()
    queue.o(i._ZN10GCodeQueue19get_serial_commandsEv) refers to queue.o(.data) for serial_count
    queue.o(i._ZN10GCodeQueue19get_serial_commandsEv) refers to queue.o(.bss) for GCodeQueue::get_serial_commands()::serial_line_buffer
    queue.o(i._ZN10GCodeQueue19get_serial_commandsEv) refers to cardreader.o(.data) for CardReader::flag
    queue.o(i._ZN10GCodeQueue19get_serial_commandsEv) refers to queue.o(.constdata__ZZ6is_M29PKcEs) for is_M29(const char*)::string
    queue.o(i._ZN10GCodeQueue19get_serial_commandsEv) refers to marlincore.o(.data) for marlin_state
    queue.o(i._ZN10GCodeQueue19get_serial_commandsEv) refers to queue.o(.conststring) for .conststring
    queue.o(i._ZN10GCodeQueue19get_serial_commandsEv) refers to marlinui.o(.data) for MarlinUI::language
    queue.o(i._ZN10GCodeQueue19get_serial_commandsEv) refers to queue.o(.constdata) for [local to queue_cpp]::Language_en::MSG_STOPPED
    queue.o(i._ZN10GCodeQueue19get_serial_commandsEv) refers to board_gpio.o(.bss) for Serial2
    queue.o(i._ZN10GCodeQueue19has_commands_queuedEv) refers to queue.o(.data) for GCodeQueue::length
    queue.o(i._ZN10GCodeQueue19has_commands_queuedEv) refers to queue.o(.bss) for GCodeQueue::injected_commands
    queue.o(i._ZN10GCodeQueue22get_available_commandsEv) refers to queue.o(i._ZN10GCodeQueue19get_serial_commandsEv) for GCodeQueue::get_serial_commands()
    queue.o(i._ZN10GCodeQueue22get_available_commandsEv) refers to queue.o(i._ZN10GCodeQueue19get_sdcard_commandsEv) for GCodeQueue::get_sdcard_commands()
    queue.o(i._ZN10GCodeQueue24flush_and_request_resendEv) refers to hardwareserial.o(i._ZN14HardwareSerial5flushEv) for HardwareSerial::flush()
    queue.o(i._ZN10GCodeQueue24flush_and_request_resendEv) refers to serial.o(i._Z14serialprintPGMPKc) for serialprintPGM(const char*)
    queue.o(i._ZN10GCodeQueue24flush_and_request_resendEv) refers to print.o(i._ZN5Print7printlnEli) for Print::println(long, int)
    queue.o(i._ZN10GCodeQueue24flush_and_request_resendEv) refers to queue.o(i._ZN10GCodeQueue10ok_to_sendEv) for GCodeQueue::ok_to_send()
    queue.o(i._ZN10GCodeQueue24flush_and_request_resendEv) refers to board_gpio.o(.bss) for Serial2
    queue.o(i._ZN10GCodeQueue24flush_and_request_resendEv) refers to queue.o(.data) for GCodeQueue::last_N
    queue.o(i._ZN10GCodeQueue24process_injected_commandEv) refers to parser.o(i._ZN11GCodeParser5parseEPc) for GCodeParser::parse(char*)
    queue.o(i._ZN10GCodeQueue24process_injected_commandEv) refers to gcode.o(i._ZN10GcodeSuite22process_parsed_commandEb) for GcodeSuite::process_parsed_command(bool)
    queue.o(i._ZN10GCodeQueue24process_injected_commandEv) refers to queue.o(.bss) for GCodeQueue::injected_commands
    queue.o(i._ZN10GCodeQueue26process_injected_command_PEv) refers to mallocr.o(i.__malloc$realloc) for malloc
    queue.o(i._ZN10GCodeQueue26process_injected_command_PEv) refers to memmovea.o(.text) for __aeabi_memcpy
    queue.o(i._ZN10GCodeQueue26process_injected_command_PEv) refers to parser.o(i._ZN11GCodeParser5parseEPc) for GCodeParser::parse(char*)
    queue.o(i._ZN10GCodeQueue26process_injected_command_PEv) refers to gcode.o(i._ZN10GcodeSuite22process_parsed_commandEb) for GcodeSuite::process_parsed_command(bool)
    queue.o(i._ZN10GCodeQueue26process_injected_command_PEv) refers to mallocr.o(i.__free$realloc) for free
    queue.o(i._ZN10GCodeQueue26process_injected_command_PEv) refers to queue.o(.data) for GCodeQueue::injected_commands_P
    queue.o(i._ZN10GCodeQueue5clearEv) refers to queue.o(.data) for GCodeQueue::length
    queue.o(i._ZN10GCodeQueue7advanceEv) refers to queue.o(i._ZN10GCodeQueue26process_injected_command_PEv) for GCodeQueue::process_injected_command_P()
    queue.o(i._ZN10GCodeQueue7advanceEv) refers to queue.o(i._ZN10GCodeQueue24process_injected_commandEv) for GCodeQueue::process_injected_command()
    queue.o(i._ZN10GCodeQueue7advanceEv) refers to strstr.o(.text) for strstr
    queue.o(i._ZN10GCodeQueue7advanceEv) refers to cardreader.o(i._ZN10CardReader9closefileEb) for CardReader::closefile(bool)
    queue.o(i._ZN10GCodeQueue7advanceEv) refers to serial.o(i._Z14serialprintPGMPKc) for serialprintPGM(const char*)
    queue.o(i._ZN10GCodeQueue7advanceEv) refers to queue.o(i._ZN10GCodeQueue10ok_to_sendEv) for GCodeQueue::ok_to_send()
    queue.o(i._ZN10GCodeQueue7advanceEv) refers to cardreader.o(i._ZN10CardReader13write_commandEPc) for CardReader::write_command(char*)
    queue.o(i._ZN10GCodeQueue7advanceEv) refers to gcode.o(i._ZN10GcodeSuite20process_next_commandEv) for GcodeSuite::process_next_command()
    queue.o(i._ZN10GCodeQueue7advanceEv) refers to queue.o(.data) for GCodeQueue::length
    queue.o(i._ZN10GCodeQueue7advanceEv) refers to cardreader.o(.data) for CardReader::flag
    queue.o(i._ZN10GCodeQueue7advanceEv) refers to queue.o(.bss) for GCodeQueue::command_buffer
    queue.o(i._ZN10GCodeQueue7advanceEv) refers to queue.o(.constdata__ZZ6is_M29PKcEs) for is_M29(const char*)::string
    queue.o(i._ZN10GCodeQueue8_enqueueEPKcb) refers to strcpy.o(.text) for strcpy
    queue.o(i._ZN10GCodeQueue8_enqueueEPKcb) refers to queue.o(i._ZN10GCodeQueue15_commit_commandEb) for GCodeQueue::_commit_command(bool)
    queue.o(i._ZN10GCodeQueue8_enqueueEPKcb) refers to queue.o(.data) for GCodeQueue::length
    queue.o(i._ZN10GCodeQueue8_enqueueEPKcb) refers to queue.o(.bss) for GCodeQueue::command_buffer
    queue.o(i._ZN10GCodeQueue9clear_bufEv) refers to memseta.o(.text) for __aeabi_memclr
    queue.o(i._ZN10GCodeQueue9clear_bufEv) refers to queue.o(.data) for GCodeQueue::length
    queue.o(i._ZN10GCodeQueue9clear_bufEv) refers to queue.o(.bss) for GCodeQueue::command_buffer
    queue.o(i._ZN10GCodeQueueC1Ev) refers to queue.o(.data) for send_ok
    queue.o(i.__sti___9_queue_cpp_queue) refers to queue.o(i._ZN10GCodeQueueC1Ev) for GCodeQueue::GCodeQueue()
    queue.o(i.__sti___9_queue_cpp_queue) refers to queue.o(.data) for queue
    queue.o(.ARM.exidx) refers to queue.o(i._ZN10GCodeQueueC1Ev) for i._ZN10GCodeQueueC1Ev
    queue.o(.ARM.exidx) refers to queue.o(i._ZN10GCodeQueue5clearEv) for i._ZN10GCodeQueue5clearEv
    queue.o(.ARM.exidx) refers to queue.o(i._ZN10GCodeQueue9clear_bufEv) for i._ZN10GCodeQueue9clear_bufEv
    queue.o(.ARM.exidx) refers to queue.o(i._ZN10GCodeQueue15_commit_commandEb) for i._ZN10GCodeQueue15_commit_commandEb
    queue.o(.ARM.exidx) refers to queue.o(i._ZN10GCodeQueue8_enqueueEPKcb) for i._ZN10GCodeQueue8_enqueueEPKcb
    queue.o(.ARM.exidx) refers to queue.o(i._ZN10GCodeQueue11enqueue_oneEPKc) for i._ZN10GCodeQueue11enqueue_oneEPKc
    queue.o(.ARM.exidx) refers to queue.o(i._ZN10GCodeQueue15enqueue_one_nowEPKc) for i._ZN10GCodeQueue15enqueue_one_nowEPKc
    queue.o(.ARM.exidx) refers to queue.o(i._ZN10GCodeQueue13enqueue_one_PEPKc) for i._ZN10GCodeQueue13enqueue_one_PEPKc
    queue.o(.ARM.exidx) refers to queue.o(i._ZN10GCodeQueue13enqueue_now_PEPKc) for i._ZN10GCodeQueue13enqueue_now_PEPKc
    queue.o(.ARM.exidx) refers to queue.o(i._ZN10GCodeQueue19has_commands_queuedEv) for i._ZN10GCodeQueue19has_commands_queuedEv
    queue.o(.ARM.exidx) refers to queue.o(i._ZN10GCodeQueue10ok_to_sendEv) for i._ZN10GCodeQueue10ok_to_sendEv
    queue.o(.ARM.exidx) refers to queue.o(i._ZN10GCodeQueue24process_injected_commandEv) for i._ZN10GCodeQueue24process_injected_commandEv
    queue.o(.ARM.exidx) refers to queue.o(i._ZN10GCodeQueue26process_injected_command_PEv) for i._ZN10GCodeQueue26process_injected_command_PEv
    queue.o(.ARM.exidx) refers to queue.o(i._ZN10GCodeQueue7advanceEv) for i._ZN10GCodeQueue7advanceEv
    queue.o(.ARM.exidx) refers to queue.o(i._ZN10GCodeQueue24flush_and_request_resendEv) for i._ZN10GCodeQueue24flush_and_request_resendEv
    queue.o(.ARM.exidx) refers to queue.o(i._ZN10GCodeQueue16gcode_line_errorEPKca) for i._ZN10GCodeQueue16gcode_line_errorEPKca
    queue.o(.ARM.exidx) refers to queue.o(i._ZN10GCodeQueue19get_serial_commandsEv) for i._ZN10GCodeQueue19get_serial_commandsEv
    queue.o(.ARM.exidx) refers to queue.o(i._ZN10GCodeQueue22get_available_commandsEv) for i._ZN10GCodeQueue22get_available_commandsEv
    queue.o(.ARM.exidx) refers to queue.o(i.__sti___9_queue_cpp_queue) for i.__sti___9_queue_cpp_queue
    queue.o(.init_array) refers to queue.o(i.__sti___9_queue_cpp_queue) for __sti___9_queue_cpp_queue
    queue.o(.init_array) refers to cpp_init.o(.text) for __cpp_initialize__aeabi_
    g42.o(i._ZN10GcodeSuite3G42Ev) refers to gcode.o(i._ZN11GCodeParser7seenvalEc) for GCodeParser::seenval(char)
    g42.o(i._ZN10GcodeSuite3G42Ev) refers to g42.o(i._ZN11GCodeParser9value_intEv) for GCodeParser::value_int()
    g42.o(i._ZN10GcodeSuite3G42Ev) refers to serial.o(i._Z14serialprintPGMPKc) for serialprintPGM(const char*)
    g42.o(i._ZN10GcodeSuite3G42Ev) refers to g29.o(i._ZN11GCodeParser7boolvalEcb) for GCodeParser::boolval(char, bool)
    g42.o(i._ZN10GcodeSuite3G42Ev) refers to gcode.o(i._ZN11GCodeParser11value_floatEv) for GCodeParser::value_float()
    g42.o(i._ZN10GcodeSuite3G42Ev) refers to motion.o(i._Z29_internal_move_to_destinationRKf) for _internal_move_to_destination(const float&)
    g42.o(i._ZN10GcodeSuite3G42Ev) refers to marlincore.o(.data) for marlin_state
    g42.o(i._ZN10GcodeSuite3G42Ev) refers to motion.o(.bss) for destination
    g42.o(i._ZN10GcodeSuite3G42Ev) refers to motion.o(.data) for current_position
    g42.o(i._ZN10GcodeSuite3G42Ev) refers to abl.o(.data) for bilinear_start
    g42.o(i._ZN10GcodeSuite3G42Ev) refers to probe.o(.data) for Probe::offset_xy
    g42.o(.ARM.exidx) refers to g42.o(i._ZN10GcodeSuite3G42Ev) for i._ZN10GcodeSuite3G42Ev
    m420.o(i._ZN10GcodeSuite4M420Ev) refers to repeat.o(i._ZN11GCodeParser4seenEc) for GCodeParser::seen(char)
    m420.o(i._ZN10GcodeSuite4M420Ev) refers to gcode.o(i._ZN11GCodeParser10value_longEv) for GCodeParser::value_long()
    m420.o(i._ZN10GcodeSuite4M420Ev) refers to bedlevel.o(i._Z24set_bed_leveling_enabledb) for set_bed_leveling_enabled(bool)
    m420.o(i._ZN10GcodeSuite4M420Ev) refers to bedlevel.o(i._Z17leveling_is_validv) for leveling_is_valid()
    m420.o(i._ZN10GcodeSuite4M420Ev) refers to gcode.o(i._ZN11GCodeParser11value_floatEv) for GCodeParser::value_float()
    m420.o(i._ZN10GcodeSuite4M420Ev) refers to abl.o(i._Z26bed_level_virt_interpolatev) for bed_level_virt_interpolate()
    m420.o(i._ZN10GcodeSuite4M420Ev) refers to serial.o(i._Z17serial_echo_startv) for serial_echo_start()
    m420.o(i._ZN10GcodeSuite4M420Ev) refers to serial.o(i._Z14serialprintPGMPKc) for serialprintPGM(const char*)
    m420.o(i._ZN10GcodeSuite4M420Ev) refers to abl.o(i._Z28print_bilinear_leveling_gridv) for print_bilinear_leveling_grid()
    m420.o(i._ZN10GcodeSuite4M420Ev) refers to abl.o(i._Z33print_bilinear_leveling_grid_virtv) for print_bilinear_leveling_grid_virt()
    m420.o(i._ZN10GcodeSuite4M420Ev) refers to bedlevel.o(i._Z17set_z_fade_heightfb) for set_z_fade_height(float, bool)
    m420.o(i._ZN10GcodeSuite4M420Ev) refers to serial.o(i._Z18serial_error_startv) for serial_error_start()
    m420.o(i._ZN10GcodeSuite4M420Ev) refers to serial.o(i._Z19serialprintln_onoffb) for serialprintln_onoff(bool)
    m420.o(i._ZN10GcodeSuite4M420Ev) refers to f2d.o(.text) for __aeabi_f2d
    m420.o(i._ZN10GcodeSuite4M420Ev) refers to print.o(i._ZN5Print7printlnEdi) for Print::println(double, int)
    m420.o(i._ZN10GcodeSuite4M420Ev) refers to motion.o(i._Z23report_current_positionv) for report_current_position()
    m420.o(i._ZN10GcodeSuite4M420Ev) refers to parser.o(.data) for GCodeParser::value_ptr
    m420.o(i._ZN10GcodeSuite4M420Ev) refers to planner.o(.data) for Planner::leveling_active
    m420.o(i._ZN10GcodeSuite4M420Ev) refers to motion.o(.data) for current_position
    m420.o(i._ZN10GcodeSuite4M420Ev) refers to abl.o(.bss) for z_values
    m420.o(i._ZN10GcodeSuite4M420Ev) refers to board_gpio.o(.bss) for Serial2
    m420.o(.ARM.exidx) refers to m420.o(i._ZN10GcodeSuite4M420Ev) for i._ZN10GcodeSuite4M420Ev
    g29.o(i._ZN10GcodeSuite3G29Ev) refers to board_tim0.o(i.millis) for millis
    g29.o(i._ZN10GcodeSuite3G29Ev) refers to repeat.o(i._ZN11GCodeParser4seenEc) for GCodeParser::seen(char)
    g29.o(i._ZN10GcodeSuite3G29Ev) refers to utility.o(i._Z16log_machine_infov) for log_machine_info()
    g29.o(i._ZN10GcodeSuite3G29Ev) refers to g29.o(i._ZN11GCodeParser7boolvalEcb) for GCodeParser::boolval(char, bool)
    g29.o(i._ZN10GcodeSuite3G29Ev) refers to gcode.o(i._ZN10GcodeSuite25process_subcommands_now_PEPKc) for GcodeSuite::process_subcommands_now_P(const char*)
    g29.o(i._ZN10GcodeSuite3G29Ev) refers to motion.o(i._Z19homing_needed_errorh) for homing_needed_error(unsigned char)
    g29.o(i._ZN10GcodeSuite3G29Ev) refers to bedlevel.o(i._Z17leveling_is_validv) for leveling_is_valid()
    g29.o(i._ZN10GcodeSuite3G29Ev) refers to serial.o(i._Z18serial_error_startv) for serial_error_start()
    g29.o(i._ZN10GcodeSuite3G29Ev) refers to serial.o(i._Z14serialprintPGMPKc) for serialprintPGM(const char*)
    g29.o(i._ZN10GcodeSuite3G29Ev) refers to gcode.o(i._ZN11GCodeParser7seenvalEc) for GCodeParser::seenval(char)
    g29.o(i._ZN10GcodeSuite3G29Ev) refers to gcode.o(i._ZN11GCodeParser18value_linear_unitsEv) for GCodeParser::value_linear_units()
    g29.o(i._ZN10GcodeSuite3G29Ev) refers to g29.o(i._ZN11GCodeParser9linearvalEcf) for GCodeParser::linearval(char, float)
    g29.o(i._ZN10GcodeSuite3G29Ev) refers to g29.o(i._ZN11GCodeParser7bytevalEch) for GCodeParser::byteval(char, unsigned char)
    g29.o(i._ZN10GcodeSuite3G29Ev) refers to abl.o(i._ZSt5isnanf) for std::isnan(float)
    g29.o(i._ZN10GcodeSuite3G29Ev) refers to g29.o(t._ZN28_INTERNAL_7_G29_cpp_b59c42575LIMITIaiiEEvRT_T0_T1_) for void [local to G29_cpp]::LIMIT<signed char, int, int>(T1&, T2, T3)
    g29.o(i._ZN10GcodeSuite3G29Ev) refers to bedlevel.o(i._Z24set_bed_leveling_enabledb) for set_bed_leveling_enabled(bool)
    g29.o(i._ZN10GcodeSuite3G29Ev) refers to abl.o(i._Z26bed_level_virt_interpolatev) for bed_level_virt_interpolate()
    g29.o(i._ZN10GcodeSuite3G29Ev) refers to motion.o(i._Z23report_current_positionv) for report_current_position()
    g29.o(i._ZN10GcodeSuite3G29Ev) refers to bedlevel.o(i._Z15reset_bed_levelv) for reset_bed_level()
    g29.o(i._ZN10GcodeSuite3G29Ev) refers to gcode.o(i._ZN11GCodeParser10value_longEv) for GCodeParser::value_long()
    g29.o(i._ZN10GcodeSuite3G29Ev) refers to g29.o(i._ZN5Probe5min_xEv) for Probe::min_x()
    g29.o(i._ZN10GcodeSuite3G29Ev) refers to g29.o(i._ZN5Probe5max_xEv) for Probe::max_x()
    g29.o(i._ZN10GcodeSuite3G29Ev) refers to g29.o(i._ZN5Probe5min_yEv) for Probe::min_y()
    g29.o(i._ZN10GcodeSuite3G29Ev) refers to g29.o(i._ZN5Probe5max_yEv) for Probe::max_y()
    g29.o(i._ZN10GcodeSuite3G29Ev) refers to g29.o(t._ZN28_INTERNAL_7_G29_cpp_b59c42574_MAXIifEEDTplfpK_fpK0_ET_T0_) for decltype(((const param#1+const param#2))) [local to G29_cpp]::_MAX<int, float>(T1, T2)
    g29.o(i._ZN10GcodeSuite3G29Ev) refers to g29.o(t._ZN28_INTERNAL_7_G29_cpp_b59c42574_MINIffEEDTplfpK_fpK0_ET_T0_) for decltype(((const param#1+const param#2))) [local to G29_cpp]::_MIN<float, float>(T1, T2)
    g29.o(i._ZN10GcodeSuite3G29Ev) refers to g29.o(i._ZN5Probe9can_reachERK5XYvalIfE) for Probe::can_reach(const XYval<float>&)
    g29.o(i._ZN10GcodeSuite3G29Ev) refers to probe.o(.data) for Probe::status
    g29.o(i._ZN10GcodeSuite3G29Ev) refers to gcode.o(.data) for GcodeSuite::previous_move_ms
    g29.o(i._ZN10GcodeSuite3G29Ev) refers to serial.o(.data) for marlin_debug_flags
    g29.o(i._ZN10GcodeSuite3G29Ev) refers to planner.o(.data) for Planner::leveling_active
    g29.o(i._ZN10GcodeSuite3G29Ev) refers to g29.o(.constdata) for .constdata
    g29.o(i._ZN10GcodeSuite3G29Ev) refers to motion.o(.bss) for workspace_offset
    g29.o(i._ZN10GcodeSuite3G29Ev) refers to motion.o(.data) for current_position
    g29.o(i._ZN10GcodeSuite3G29Ev) refers to abl.o(.data) for bilinear_start
    g29.o(i._ZN10GcodeSuite3G29Ev) refers to abl.o(.bss) for z_values
    g29.o(i._ZN10GcodeSuite3G29Ev) refers to planner.o(i._ZN7Planner11synchronizeEv) for Planner::synchronize()
    g29.o(i._ZN10GcodeSuite3G29Ev) refers to motion.o(i._Z29remember_feedrate_scaling_offv) for remember_feedrate_scaling_off()
    g29.o(i._ZN10GcodeSuite3G29Ev) refers to probe.o(i._ZN5Probe19preheat_for_probingEtt) for Probe::preheat_for_probing(unsigned short, unsigned short)
    g29.o(i._ZN10GcodeSuite3G29Ev) refers to probe.o(i._ZN5Probe12set_deployedEb) for Probe::set_deployed(bool)
    g29.o(i._ZN10GcodeSuite3G29Ev) refers to serial.o(i._Z19serial_echopair_PGMPKci) for serial_echopair_PGM(const char*, int)
    g29.o(i._ZN10GcodeSuite3G29Ev) refers to marlinui.o(i._ZN8MarlinUI15status_printf_PEhPKcz) for MarlinUI::status_printf_P(unsigned char, const char*, ...)
    g29.o(i._ZN10GcodeSuite3G29Ev) refers to arduino.o(i.random) for random
    g29.o(i._ZN10GcodeSuite3G29Ev) refers to probe.o(i._ZN5Probe14probe_at_pointERKfS1_12ProbePtRaisehbb) for Probe::probe_at_point(const float&, const float&, ProbePtRaise, unsigned char, bool, bool)
    g29.o(i._ZN10GcodeSuite3G29Ev) refers to marlincore.o(i._Z4idleb) for idle(bool)
    g29.o(i._ZN10GcodeSuite3G29Ev) refers to marlinui.o(i._ZN8MarlinUI12reset_statusEb) for MarlinUI::reset_status(bool)
    g29.o(i._ZN10GcodeSuite3G29Ev) refers to abl.o(i._Z30extrapolate_unprobed_bed_levelv) for extrapolate_unprobed_bed_level()
    g29.o(i._ZN10GcodeSuite3G29Ev) refers to abl.o(i._Z28print_bilinear_leveling_gridv) for print_bilinear_leveling_grid()
    g29.o(i._ZN10GcodeSuite3G29Ev) refers to abl.o(i._Z17refresh_bed_levelv) for refresh_bed_level()
    g29.o(i._ZN10GcodeSuite3G29Ev) refers to abl.o(i._Z33print_bilinear_leveling_grid_virtv) for print_bilinear_leveling_grid_virt()
    g29.o(i._ZN10GcodeSuite3G29Ev) refers to abl.o(i._Z17bilinear_z_offsetRK5XYvalIfE) for bilinear_z_offset(const XYval<float>&)
    g29.o(i._ZN10GcodeSuite3G29Ev) refers to board_gpio.o(.bss) for Serial2
    g29.o(i._ZN10GcodeSuite3G29Ev) refers to marlinui.o(.data) for MarlinUI::language
    g29.o(i._ZN10GcodeSuite3G29Ev) refers to utility.o(.data__ZZN7Planner25fade_scaling_factor_for_zERKfE13z_fade_factor) for Planner::fade_scaling_factor_for_z(const float&)::z_fade_factor
    g29.o(i._ZN10GcodeSuite3G29Ev) refers to motion.o(i._Z28restore_feedrate_and_scalingv) for restore_feedrate_and_scaling()
    g29.o(i._ZN10GcodeSuite3G29Ev) refers to motion.o(i._Z18sync_plan_positionv) for sync_plan_position()
    g29.o(i._ZN10GcodeSuite3G29Ev) refers to marlinui.o(i._ZN8MarlinUI18set_alert_status_PEPKc) for MarlinUI::set_alert_status_P(const char*)
    g29.o(i._ZN10GcodeSuite3G29Ev) refers to g29.o(t._ZN28_INTERNAL_7_G29_cpp_b59c42574_MINIsiEEDTplfpK_fpK0_ET_T0_) for decltype(((const param#1+const param#2))) [local to G29_cpp]::_MIN<short, int>(T1, T2)
    g29.o(i._ZN10GcodeSuite3G29Ev) refers to temperature.o(i._ZN11Temperature21start_watching_hotendEh) for Temperature::start_watching_hotend(unsigned char)
    g29.o(i._ZN10GcodeSuite3G29Ev) refers to temperature.o(i._ZN11Temperature18start_watching_bedEv) for Temperature::start_watching_bed()
    g29.o(i._ZN10GcodeSuite3G29Ev) refers to temperature.o(i._ZN11Temperature13set_fan_speedEht) for Temperature::set_fan_speed(unsigned char, unsigned short)
    g29.o(i._ZN10GcodeSuite3G29Ev) refers to queue.o(i._ZN10GCodeQueue5clearEv) for GCodeQueue::clear()
    g29.o(i._ZN10GcodeSuite3G29Ev) refers to temperature.o(.data) for Temperature::temp_range
    g29.o(i._ZN10GcodeSuite3G29Ev) refers to temperature.o(.bss) for Temperature::temp_hotend
    g29.o(i._ZN10GcodeSuite3G29Ev) refers to marlincore.o(.data) for wait_for_user
    g29.o(.ARM.exidx) refers to g29.o(t._ZN28_INTERNAL_7_G29_cpp_b59c42575LIMITIaiiEEvRT_T0_T1_) for t._ZN28_INTERNAL_7_G29_cpp_b59c42575LIMITIaiiEEvRT_T0_T1_
    g29.o(.ARM.exidx) refers to g29.o(i._ZN10GcodeSuite3G29Ev) for i._ZN10GcodeSuite3G29Ev
    g29.o(.ARM.exidx) refers to g29.o(t._ZN28_INTERNAL_7_G29_cpp_b59c42574_MAXIifEEDTplfpK_fpK0_ET_T0_) for t._ZN28_INTERNAL_7_G29_cpp_b59c42574_MAXIifEEDTplfpK_fpK0_ET_T0_
    g29.o(.ARM.exidx) refers to g29.o(t._ZN28_INTERNAL_7_G29_cpp_b59c42574_MINIifEEDTplfpK_fpK0_ET_T0_) for t._ZN28_INTERNAL_7_G29_cpp_b59c42574_MINIifEEDTplfpK_fpK0_ET_T0_
    g29.o(.ARM.exidx) refers to g29.o(t._ZN28_INTERNAL_7_G29_cpp_b59c42574_MINIsiEEDTplfpK_fpK0_ET_T0_) for t._ZN28_INTERNAL_7_G29_cpp_b59c42574_MINIsiEEDTplfpK_fpK0_ET_T0_
    g29.o(.ARM.exidx) refers to g29.o(t._ZN28_INTERNAL_7_G29_cpp_b59c42574_MINIffEEDTplfpK_fpK0_ET_T0_) for t._ZN28_INTERNAL_7_G29_cpp_b59c42574_MINIffEEDTplfpK_fpK0_ET_T0_
    m421.o(i._ZN10GcodeSuite4M421Ev) refers to m303.o(i._ZN11GCodeParser6intvalEcs) for GCodeParser::intval(char, short)
